libstd-4e66027e5c9dd3e7.so:_ZN100_$LT$$RF$std..os..unix..net..stream..UnixStream$u20$as$u20$std..sys..unix..kernel_copy..CopyRead$GT$10properties17hb2eed49e4cade919E
libstd-4e66027e5c9dd3e7.so:_ZN100_$LT$alloc..ffi..c_str..CString$u20$as$u20$core..convert..From$LT$$RF$core..ffi..c_str..CStr$GT$$GT$4from17hc412e6159e781a5bE
libstd-4e66027e5c9dd3e7.so:_ZN100_$LT$core..ascii..EscapeDefault$u20$as$u20$core..iter..traits..double_ended..DoubleEndedIterator$GT$9next_back17h71f78c25ffd9f2c3E
libstd-4e66027e5c9dd3e7.so:_ZN100_$LT$miniz_oxide..inflate..stream..MinReset$u20$as$u20$miniz_oxide..inflate..stream..ResetPolicy$GT$5reset17h8a15f1c12e610c45E
libstd-4e66027e5c9dd3e7.so:_ZN100_$LT$std..fs..Metadata$u20$as$u20$std..sys_common..FromInner$LT$std..sys..unix..fs..FileAttr$GT$$GT$10from_inner17h5a01c1900274be15E
libstd-4e66027e5c9dd3e7.so:_ZN100_$LT$std..sys..unix..args..Args$u20$as$u20$core..iter..traits..double_ended..DoubleEndedIterator$GT$9next_back17he650df4a6bbc923fE
libstd-4e66027e5c9dd3e7.so:_ZN100_$LT$std..sys..unix..time..SystemTime$u20$as$u20$core..convert..From$LT$libc..unix..timespec$GT$$GT$4from17h410c07ce3fc0e87fE
libstd-4e66027e5c9dd3e7.so:_ZN101_$LT$$RF$std..os..unix..net..stream..UnixStream$u20$as$u20$std..sys..unix..kernel_copy..CopyWrite$GT$10properties17ha8d3e476f155ae72E
libstd-4e66027e5c9dd3e7.so:_ZN101_$LT$core..char..CaseMappingIter$u20$as$u20$core..iter..traits..double_ended..DoubleEndedIterator$GT$9next_back17h45d67a6a3c2088b7E
libstd-4e66027e5c9dd3e7.so:_ZN101_$LT$libc..unix..linux_like..linux..gnu..b32..x86..user_regs_struct$u20$as$u20$core..clone..Clone$GT$5clone17hfb94161d058a906cE
libstd-4e66027e5c9dd3e7.so:_ZN101_$LT$std..os..unix..net..addr..SocketAddr$u20$as$u20$std..os..net..linux_ext..addr..SocketAddrExt$GT$16as_abstract_name17h28f0eea0362a83ddE
libstd-4e66027e5c9dd3e7.so:_ZN101_$LT$std..process..ExitStatusError$u20$as$u20$core..convert..Into$LT$std..process..ExitStatus$GT$$GT$4into17h8f7031f463373f6dE
libstd-4e66027e5c9dd3e7.so:_ZN101_$LT$std..sys..unix..process..process_inner..ExitStatus$u20$as$u20$core..convert..From$LT$i32$GT$$GT$4from17he10e57133ce6b409E
libstd-4e66027e5c9dd3e7.so:_ZN102_$LT$libc..unix..linux_like..linux..__c_anonymous_sockaddr_can_j1939$u20$as$u20$core..clone..Clone$GT$5clone17h61bc64ce2ec52b5dE
libstd-4e66027e5c9dd3e7.so:_ZN103_$LT$core..array..TryFromSliceError$u20$as$u20$core..convert..From$LT$core..convert..Infallible$GT$$GT$4from17h5e0c44dd84895137E
libstd-4e66027e5c9dd3e7.so:_ZN103_$LT$libc..unix..linux_like..linux..gnu..b32..x86..align..max_align_t$u20$as$u20$core..clone..Clone$GT$5clone17h6bfe103b8064aebfE
libstd-4e66027e5c9dd3e7.so:_ZN103_$LT$libc..unix..linux_like..linux..gnu..b32..x86..user_fpregs_struct$u20$as$u20$core..clone..Clone$GT$5clone17hba80819c361bc011E
libstd-4e66027e5c9dd3e7.so:_ZN103_$LT$std..sync..mpsc..TryRecvError$u20$as$u20$core..convert..From$LT$std..sync..mpsc..RecvError$GT$$GT$4from17h1362e6db0fc637edE
libstd-4e66027e5c9dd3e7.so:_ZN104_$LT$$RF$$u5b$std..net..socket_addr..SocketAddr$u5d$$u20$as$u20$std..net..socket_addr..ToSocketAddrs$GT$15to_socket_addrs17hea8be404c9a7f2afE
libstd-4e66027e5c9dd3e7.so:_ZN104_$LT$libc..unix..linux_like..linux..gnu..b32..x86..seccomp_notif_sizes$u20$as$u20$core..clone..Clone$GT$5clone17hee298bdb6793a595E
libstd-4e66027e5c9dd3e7.so:_ZN104_$LT$libc..unix..linux_like..linux..gnu..b32..x86..user_fpxregs_struct$u20$as$u20$core..clone..Clone$GT$5clone17h00cc460227a674b4E
libstd-4e66027e5c9dd3e7.so:_ZN104_$LT$std..fs..OpenOptions$u20$as$u20$std..sys_common..AsInner$LT$std..sys..unix..fs..OpenOptions$GT$$GT$8as_inner17hc048ff1cacdfd225E
libstd-4e66027e5c9dd3e7.so:_ZN104_$LT$std..os..unix..net..ancillary..ScmCredentials$u20$as$u20$core..iter..traits..iterator..Iterator$GT$4next17h9dba83f65e8f2fc0E
libstd-4e66027e5c9dd3e7.so:_ZN104_$LT$std..sys_common..net..LookupHost$u20$as$u20$core..convert..TryFrom$LT$$LP$$RF$str$C$u16$RP$$GT$$GT$8try_from17ha900ee693c90fe95E
libstd-4e66027e5c9dd3e7.so:_ZN105_$LT$core..slice..ascii..EscapeAscii$u20$as$u20$core..iter..traits..double_ended..DoubleEndedIterator$GT$9next_back17h96360b68bbc7fba9E
libstd-4e66027e5c9dd3e7.so:_ZN105_$LT$dyn$u20$core..any..Any$u2b$core..marker..Sync$u2b$core..marker..Send$u20$as$u20$core..fmt..Debug$GT$3fmt17h4b1340972b95b34cE
libstd-4e66027e5c9dd3e7.so:_ZN105_$LT$libc..unix..linux_like..linux..__c_anonymous_sockaddr_can_can_addr$u20$as$u20$core..clone..Clone$GT$5clone17hbe256395876f953fE
libstd-4e66027e5c9dd3e7.so:_ZN105_$LT$std..fs..DirBuilder$u20$as$u20$std..sys_common..AsInnerMut$LT$std..sys..unix..fs..DirBuilder$GT$$GT$12as_inner_mut17h1c92fb6e0549170fE
libstd-4e66027e5c9dd3e7.so:_ZN105_$LT$std..os..linux..process..PidFd$u20$as$u20$core..convert..From$LT$std..os..fd..owned..OwnedFd$GT$$GT$4from17haf15d54d9d65feffE
libstd-4e66027e5c9dd3e7.so:_ZN105_$LT$std..sys..unix..fs..File$u20$as$u20$std..sys_common..AsInner$LT$std..sys..unix..fd..FileDesc$GT$$GT$8as_inner17hfb6db96280e3c707E
libstd-4e66027e5c9dd3e7.so:_ZN106_$LT$$LT$std..path..Iter$u20$as$u20$core..fmt..Debug$GT$..fmt..DebugHelper$u20$as$u20$core..fmt..Debug$GT$3fmt17h4564b6869e876a63E
libstd-4e66027e5c9dd3e7.so:_ZN106_$LT$alloc..boxed..Box$LT$dyn$u20$core..error..Error$GT$$u20$as$u20$core..convert..From$LT$$RF$str$GT$$GT$4from17h53d86c0aa2bb6434E
libstd-4e66027e5c9dd3e7.so:_ZN106_$LT$core..num..error..TryFromIntError$u20$as$u20$core..convert..From$LT$core..convert..Infallible$GT$$GT$4from17h50aa75db05cd0502E
libstd-4e66027e5c9dd3e7.so:_ZN106_$LT$miniz_oxide..deflate..core..TDEFLFlush$u20$as$u20$core..convert..From$LT$miniz_oxide..MZFlush$GT$$GT$4from17h2ab71c9a64e723e7E
libstd-4e66027e5c9dd3e7.so:_ZN107_$LT$object..read..pe..relocation..RelocationIterator$u20$as$u20$core..iter..traits..iterator..Iterator$GT$4next17h479f08a34b95d357E
libstd-4e66027e5c9dd3e7.so:_ZN107_$LT$std..fs..OpenOptions$u20$as$u20$std..sys_common..AsInnerMut$LT$std..sys..unix..fs..OpenOptions$GT$$GT$12as_inner_mut17h84832e7971c530d6E
libstd-4e66027e5c9dd3e7.so:_ZN107_$LT$std..process..ChildStdin$u20$as$u20$std..sys_common..AsInner$LT$std..sys..unix..pipe..AnonPipe$GT$$GT$8as_inner17h73ef15baca5e5875E
libstd-4e66027e5c9dd3e7.so:_ZN107_$LT$std..sync..mpsc..RecvTimeoutError$u20$as$u20$core..convert..From$LT$std..sync..mpsc..RecvError$GT$$GT$4from17he59f2e08cbb93a07E
libstd-4e66027e5c9dd3e7.so:_ZN107_$LT$std..sys..unix..fs..File$u20$as$u20$std..sys_common..FromInner$LT$std..sys..unix..fd..FileDesc$GT$$GT$10from_inner17h29045c17c46e927fE
libstd-4e66027e5c9dd3e7.so:_ZN107_$LT$std..sys..unix..fs..File$u20$as$u20$std..sys_common..IntoInner$LT$std..sys..unix..fd..FileDesc$GT$$GT$10into_inner17h0efcbbab2bd534bfE
libstd-4e66027e5c9dd3e7.so:_ZN107_$LT$std..sys..unix..os_str..Buf$u20$as$u20$std..sys_common..IntoInner$LT$alloc..vec..Vec$LT$u8$GT$$GT$$GT$10into_inner17h23a9664c2e6f6314E
libstd-4e66027e5c9dd3e7.so:_ZN107_$LT$std..sys_common..process..CommandEnvs$u20$as$u20$core..iter..traits..exact_size..ExactSizeIterator$GT$3len17h95b895929940a682E
libstd-4e66027e5c9dd3e7.so:_ZN107_$LT$std..sys_common..process..CommandEnvs$u20$as$u20$core..iter..traits..exact_size..ExactSizeIterator$GT$8is_empty17h259154ef7e5568a6E
libstd-4e66027e5c9dd3e7.so:_ZN108_$LT$$RF$std..os..unix..net..listener..UnixListener$u20$as$u20$core..iter..traits..collect..IntoIterator$GT$9into_iter17h5cdad511564d739eE
libstd-4e66027e5c9dd3e7.so:_ZN108_$LT$std..fs..Permissions$u20$as$u20$std..sys_common..AsInner$LT$std..sys..unix..fs..FilePermissions$GT$$GT$8as_inner17h7ffd0d93868fc635E
libstd-4e66027e5c9dd3e7.so:_ZN108_$LT$std..net..tcp..TcpStream$u20$as$u20$std..sys_common..AsInner$LT$std..sys_common..net..TcpStream$GT$$GT$8as_inner17h2c28f6fcd8e79d8dE
libstd-4e66027e5c9dd3e7.so:_ZN108_$LT$std..net..udp..UdpSocket$u20$as$u20$std..sys_common..AsInner$LT$std..sys_common..net..UdpSocket$GT$$GT$8as_inner17h93001e1ce5d6b062E
libstd-4e66027e5c9dd3e7.so:_ZN108_$LT$std..process..ChildStderr$u20$as$u20$std..sys_common..AsInner$LT$std..sys..unix..pipe..AnonPipe$GT$$GT$8as_inner17he9b1dfb7ed1d5c60E
libstd-4e66027e5c9dd3e7.so:_ZN108_$LT$std..process..ChildStdout$u20$as$u20$std..sys_common..AsInner$LT$std..sys..unix..pipe..AnonPipe$GT$$GT$8as_inner17h2b2954a1b10ed67eE
libstd-4e66027e5c9dd3e7.so:_ZN108_$LT$std..sys..unix..fd..FileDesc$u20$as$u20$std..sys_common..AsInner$LT$std..os..fd..owned..OwnedFd$GT$$GT$8as_inner17hfe249fcc2787b40dE
libstd-4e66027e5c9dd3e7.so:_ZN108_$LT$std..sys..unix..fs..File$u20$as$u20$std..sys_common..AsInnerMut$LT$std..sys..unix..fd..FileDesc$GT$$GT$12as_inner_mut17h7727b8bd1276f51bE
libstd-4e66027e5c9dd3e7.so:_ZN108_$LT$std..sys..unix..net..Socket$u20$as$u20$std..sys_common..AsInner$LT$std..sys..unix..fd..FileDesc$GT$$GT$8as_inner17h097db15a3940b270E
libstd-4e66027e5c9dd3e7.so:_ZN108_$LT$std..time..SystemTime$u20$as$u20$std..sys_common..FromInner$LT$std..sys..unix..time..SystemTime$GT$$GT$10from_inner17h1ef2b5eac87754f4E
libstd-4e66027e5c9dd3e7.so:_ZN108_$LT$std..time..SystemTime$u20$as$u20$std..sys_common..IntoInner$LT$std..sys..unix..time..SystemTime$GT$$GT$10into_inner17haed209292b67b373E
libstd-4e66027e5c9dd3e7.so:_ZN109_$LT$std..net..ip_addr..Ipv6Addr$u20$as$u20$std..sys_common..IntoInner$LT$libc..unix..align..in6_addr$GT$$GT$10into_inner17h9bc54fb8612984c6E
libstd-4e66027e5c9dd3e7.so:_ZN109_$LT$std..process..ChildStdin$u20$as$u20$std..sys_common..FromInner$LT$std..sys..unix..pipe..AnonPipe$GT$$GT$10from_inner17hb8e1dc60be6ac2baE
libstd-4e66027e5c9dd3e7.so:_ZN109_$LT$std..process..ChildStdin$u20$as$u20$std..sys_common..IntoInner$LT$std..sys..unix..pipe..AnonPipe$GT$$GT$10into_inner17hb23a9636114d886dE
libstd-4e66027e5c9dd3e7.so:_ZN10std_detect6detect4arch3x867Feature6to_str17h10bdcebd2cb565faE
libstd-4e66027e5c9dd3e7.so:_ZN10std_detect6detect5cache21detect_and_initialize17ha32b61903aafd76cE
libstd-4e66027e5c9dd3e7.so:_ZN10std_detect6detect5cache5CACHE17h2cb562d4ce3f96a0E
libstd-4e66027e5c9dd3e7.so:_ZN10std_detect6detect8features17h7ea60f0e440cf1b6E
libstd-4e66027e5c9dd3e7.so:_ZN110_$LT$alloc..collections..btree..set_val..SetValZST$u20$as$u20$alloc..collections..btree..set_val..IsSetVal$GT$10is_set_val17h4bb4fb72f71e7448E
libstd-4e66027e5c9dd3e7.so:_ZN110_$LT$std..fs..Permissions$u20$as$u20$std..sys_common..FromInner$LT$std..sys..unix..fs..FilePermissions$GT$$GT$10from_inner17h776bc0487a0f1f48E
libstd-4e66027e5c9dd3e7.so:_ZN110_$LT$std..net..tcp..TcpStream$u20$as$u20$std..sys_common..FromInner$LT$std..sys_common..net..TcpStream$GT$$GT$10from_inner17h64f629cd00561c2dE
libstd-4e66027e5c9dd3e7.so:_ZN110_$LT$std..net..tcp..TcpStream$u20$as$u20$std..sys_common..IntoInner$LT$std..sys_common..net..TcpStream$GT$$GT$10into_inner17h029d95de5ebee804E
libstd-4e66027e5c9dd3e7.so:_ZN110_$LT$std..net..udp..UdpSocket$u20$as$u20$std..sys_common..FromInner$LT$std..sys_common..net..UdpSocket$GT$$GT$10from_inner17hc824ee7b0e03a2b7E
libstd-4e66027e5c9dd3e7.so:_ZN110_$LT$std..net..udp..UdpSocket$u20$as$u20$std..sys_common..IntoInner$LT$std..sys_common..net..UdpSocket$GT$$GT$10into_inner17h9af1f8990272c6caE
libstd-4e66027e5c9dd3e7.so:_ZN110_$LT$std..process..ChildStderr$u20$as$u20$std..sys_common..FromInner$LT$std..sys..unix..pipe..AnonPipe$GT$$GT$10from_inner17hb4c915afd785e1dbE
libstd-4e66027e5c9dd3e7.so:_ZN110_$LT$std..process..ChildStderr$u20$as$u20$std..sys_common..IntoInner$LT$std..sys..unix..pipe..AnonPipe$GT$$GT$10into_inner17h0b0700b5f2724457E
libstd-4e66027e5c9dd3e7.so:_ZN110_$LT$std..process..ChildStdout$u20$as$u20$std..sys_common..FromInner$LT$std..sys..unix..pipe..AnonPipe$GT$$GT$10from_inner17hd35e2c33162184edE
libstd-4e66027e5c9dd3e7.so:_ZN110_$LT$std..process..ChildStdout$u20$as$u20$std..sys_common..IntoInner$LT$std..sys..unix..pipe..AnonPipe$GT$$GT$10into_inner17h593089ebcda672f9E
libstd-4e66027e5c9dd3e7.so:_ZN110_$LT$std..sys..unix..fd..FileDesc$u20$as$u20$std..sys_common..FromInner$LT$std..os..fd..owned..OwnedFd$GT$$GT$10from_inner17h50a53ae4e2e8669eE
libstd-4e66027e5c9dd3e7.so:_ZN110_$LT$std..sys..unix..fd..FileDesc$u20$as$u20$std..sys_common..IntoInner$LT$std..os..fd..owned..OwnedFd$GT$$GT$10into_inner17he14eb15e698d731eE
libstd-4e66027e5c9dd3e7.so:_ZN110_$LT$std..sys..unix..net..Socket$u20$as$u20$std..sys_common..FromInner$LT$std..sys..unix..fd..FileDesc$GT$$GT$10from_inner17had2b33af6ec7a242E
libstd-4e66027e5c9dd3e7.so:_ZN110_$LT$std..sys..unix..net..Socket$u20$as$u20$std..sys_common..IntoInner$LT$std..sys..unix..fd..FileDesc$GT$$GT$10into_inner17h30f5a7a9bb7eb904E
libstd-4e66027e5c9dd3e7.so:_ZN111_$LT$std..io..buffered..bufwriter..BufWriter$LT$W$GT$..flush_buf..BufGuard$u20$as$u20$core..ops..drop..Drop$GT$4drop17h6b015b39e26fa5f7E
libstd-4e66027e5c9dd3e7.so:_ZN111_$LT$std..os..linux..process..PidFd$u20$as$u20$std..sys_common..AsInner$LT$std..sys..unix..fd..FileDesc$GT$$GT$8as_inner17h34e9be4782865207E
libstd-4e66027e5c9dd3e7.so:_ZN111_$LT$std..sys..unix..process..process_common..CommandArgs$u20$as$u20$core..iter..traits..iterator..Iterator$GT$4next17h1ef2f0a80e40a023E
libstd-4e66027e5c9dd3e7.so:_ZN111_$LT$std..sys..unix..process..process_common..CommandArgs$u20$as$u20$core..iter..traits..iterator..Iterator$GT$9size_hint17h268b154ac7eedd30E
libstd-4e66027e5c9dd3e7.so:_ZN111_$LT$std..sys_common..net..TcpStream$u20$as$u20$std..sys_common..AsInner$LT$std..sys..unix..net..Socket$GT$$GT$8as_inner17h6d32f5c0959a97acE
libstd-4e66027e5c9dd3e7.so:_ZN112_$LT$$LT$std..path..Components$u20$as$u20$core..fmt..Debug$GT$..fmt..DebugHelper$u20$as$u20$core..fmt..Debug$GT$3fmt17h2013d333a58fbb42E
libstd-4e66027e5c9dd3e7.so:_ZN112_$LT$std..net..tcp..TcpListener$u20$as$u20$std..sys_common..AsInner$LT$std..sys_common..net..TcpListener$GT$$GT$8as_inner17hc378dba58e885cdaE
libstd-4e66027e5c9dd3e7.so:_ZN113_$LT$libc..unix..linux_like..linux..gnu..__c_anonymous_ptrace_syscall_info_data$u20$as$u20$core..clone..Clone$GT$5clone17h6026f6393aa988a9E
libstd-4e66027e5c9dd3e7.so:_ZN113_$LT$libc..unix..linux_like..linux..gnu..__c_anonymous_ptrace_syscall_info_exit$u20$as$u20$core..clone..Clone$GT$5clone17h47fbf277b580c4eeE
libstd-4e66027e5c9dd3e7.so:_ZN113_$LT$std..net..ip_addr..Ipv4Addr$u20$as$u20$std..sys_common..FromInner$LT$libc..unix..linux_like..in_addr$GT$$GT$10from_inner17hc6e5122e0b20c46aE
libstd-4e66027e5c9dd3e7.so:_ZN113_$LT$std..os..linux..process..PidFd$u20$as$u20$std..sys_common..FromInner$LT$std..sys..unix..fd..FileDesc$GT$$GT$10from_inner17h12dc61b0d42d72d7E
libstd-4e66027e5c9dd3e7.so:_ZN113_$LT$std..os..linux..process..PidFd$u20$as$u20$std..sys_common..IntoInner$LT$std..sys..unix..fd..FileDesc$GT$$GT$10into_inner17h1cdfae7c60dcdfbbE
libstd-4e66027e5c9dd3e7.so:_ZN113_$LT$std..sys..unix..pipe..AnonPipe$u20$as$u20$std..sys_common..IntoInner$LT$std..sys..unix..fd..FileDesc$GT$$GT$10into_inner17h8a31dbcb31bd7213E
libstd-4e66027e5c9dd3e7.so:_ZN113_$LT$std..sys_common..net..TcpStream$u20$as$u20$std..sys_common..FromInner$LT$std..sys..unix..net..Socket$GT$$GT$10from_inner17h11be1f8da84e97bdE
libstd-4e66027e5c9dd3e7.so:_ZN113_$LT$std..sys_common..net..UdpSocket$u20$as$u20$std..sys_common..FromInner$LT$std..sys..unix..net..Socket$GT$$GT$10from_inner17hba34988d00c389f3E
libstd-4e66027e5c9dd3e7.so:_ZN114_$LT$core..ffi..c_str..CStr$u20$as$u20$core..ops..index..Index$LT$core..ops..range..RangeFrom$LT$usize$GT$$GT$$GT$5index17h0b47ea0862f44078E
libstd-4e66027e5c9dd3e7.so:_ZN114_$LT$libc..unix..linux_like..linux..gnu..__c_anonymous_ptrace_syscall_info_entry$u20$as$u20$core..clone..Clone$GT$5clone17h62baf8fed62d391cE
libstd-4e66027e5c9dd3e7.so:_ZN114_$LT$std..net..tcp..TcpListener$u20$as$u20$std..sys_common..FromInner$LT$std..sys_common..net..TcpListener$GT$$GT$10from_inner17h3e398427a89109e1E
libstd-4e66027e5c9dd3e7.so:_ZN114_$LT$std..net..tcp..TcpListener$u20$as$u20$std..sys_common..IntoInner$LT$std..sys_common..net..TcpListener$GT$$GT$10into_inner17h369f9926b4852761E
libstd-4e66027e5c9dd3e7.so:_ZN115_$LT$std..sys_common..net..TcpListener$u20$as$u20$std..sys_common..FromInner$LT$std..sys..unix..net..Socket$GT$$GT$10from_inner17h407811d1a0f2b87bE
libstd-4e66027e5c9dd3e7.so:_ZN116_$LT$libc..unix..linux_like..linux..gnu..__c_anonymous_ptrace_syscall_info_seccomp$u20$as$u20$core..clone..Clone$GT$5clone17h5850c6db8d05574eE
libstd-4e66027e5c9dd3e7.so:_ZN116_$LT$std..net..socket_addr..SocketAddr$u20$as$u20$core..convert..From$LT$std..net..socket_addr..SocketAddrV4$GT$$GT$4from17h9f1c0fca76cdef1bE
libstd-4e66027e5c9dd3e7.so:_ZN116_$LT$std..net..socket_addr..SocketAddr$u20$as$u20$core..convert..From$LT$std..net..socket_addr..SocketAddrV6$GT$$GT$4from17hb0e9239883ddbe87E
libstd-4e66027e5c9dd3e7.so:_ZN118_$LT$std..sys..unix..process..process_common..Stdio$u20$as$u20$core..convert..From$LT$std..sys..unix..fs..File$GT$$GT$4from17h2c912337e03424a8E
libstd-4e66027e5c9dd3e7.so:_ZN119_$LT$std..process..Child$u20$as$u20$std..sys_common..AsInner$LT$std..sys..unix..process..process_inner..Process$GT$$GT$8as_inner17h0273093a33240526E
libstd-4e66027e5c9dd3e7.so:_ZN11miniz_oxide155_$LT$impl$u20$core..convert..From$LT$miniz_oxide..StreamResult$GT$$u20$for$u20$core..result..Result$LT$miniz_oxide..MZStatus$C$miniz_oxide..MZError$GT$$GT$4from17h8d2bc101730b6918E
libstd-4e66027e5c9dd3e7.so:_ZN11miniz_oxide159_$LT$impl$u20$core..convert..From$LT$$RF$miniz_oxide..StreamResult$GT$$u20$for$u20$core..result..Result$LT$miniz_oxide..MZStatus$C$miniz_oxide..MZError$GT$$GT$4from17h77ca22e0aa7c9011E
libstd-4e66027e5c9dd3e7.so:_ZN11miniz_oxide6shared14update_adler3217h5a813f853a7c77a3E
libstd-4e66027e5c9dd3e7.so:_ZN11miniz_oxide7MZFlush3new17h43c455f9f05b931cE
libstd-4e66027e5c9dd3e7.so:_ZN11miniz_oxide7deflate15compress_to_vec17h1894579275015619E
libstd-4e66027e5c9dd3e7.so:_ZN11miniz_oxide7deflate20compress_to_vec_zlib17hb3dd0516af71132eE
libstd-4e66027e5c9dd3e7.so:_ZN11miniz_oxide7deflate4core10TDEFLFlush3new17h5401229ebc42fd0eE
libstd-4e66027e5c9dd3e7.so:_ZN11miniz_oxide7deflate4core11ParamsOxide3new17h9add96ad7aa2c5b7E
libstd-4e66027e5c9dd3e7.so:_ZN11miniz_oxide7deflate4core13CallbackOxide17new_callback_func17h34af6d282d697502E
libstd-4e66027e5c9dd3e7.so:_ZN11miniz_oxide7deflate4core14compress_inner17h5b152513f08cdf5fE
libstd-4e66027e5c9dd3e7.so:_ZN11miniz_oxide7deflate4core15CompressorOxide11data_format17h7436ff459c2dd719E
libstd-4e66027e5c9dd3e7.so:_ZN11miniz_oxide7deflate4core15CompressorOxide18prev_return_status17he2304671b3058e62E
libstd-4e66027e5c9dd3e7.so:_ZN11miniz_oxide7deflate4core15CompressorOxide20set_format_and_level17h8098a67bd617c85dE
libstd-4e66027e5c9dd3e7.so:_ZN11miniz_oxide7deflate4core15CompressorOxide21set_compression_level17h4e348e85f91eb2e4E
libstd-4e66027e5c9dd3e7.so:_ZN11miniz_oxide7deflate4core15CompressorOxide25set_compression_level_raw17he83f7408b2efb5fdE
libstd-4e66027e5c9dd3e7.so:_ZN11miniz_oxide7deflate4core15CompressorOxide3new17hf86b70e0290aa638E
libstd-4e66027e5c9dd3e7.so:_ZN11miniz_oxide7deflate4core15CompressorOxide5flags17hb3edbe3a42fdcdf5E
libstd-4e66027e5c9dd3e7.so:_ZN11miniz_oxide7deflate4core15CompressorOxide5reset17hec6effc63f44541fE
libstd-4e66027e5c9dd3e7.so:_ZN11miniz_oxide7deflate4core15CompressorOxide7adler3217hf13f47c576954e8bE
libstd-4e66027e5c9dd3e7.so:_ZN11miniz_oxide7deflate4core33create_comp_flags_from_zip_params17h700237a654ad4478E
libstd-4e66027e5c9dd3e7.so:_ZN11miniz_oxide7deflate4core7LZOxide3new17h8f6de2461e259622E
libstd-4e66027e5c9dd3e7.so:_ZN11miniz_oxide7deflate4core8compress17h17ff7928a2eaef0cE
libstd-4e66027e5c9dd3e7.so:_ZN11miniz_oxide7deflate4core9DictOxide3new17h0580af580c0fa801E
libstd-4e66027e5c9dd3e7.so:_ZN11miniz_oxide7deflate6stream7deflate17ha1b97776312f4167E
libstd-4e66027e5c9dd3e7.so:_ZN11miniz_oxide7inflate11TINFLStatus8from_i3217h5f497ddc4dd11445E
libstd-4e66027e5c9dd3e7.so:_ZN11miniz_oxide7inflate23decompress_to_vec_inner17hd8e8cb645095e2e6E
libstd-4e66027e5c9dd3e7.so:_ZN11miniz_oxide7inflate4core10decompress17hef9afe538c9fbf67E
libstd-4e66027e5c9dd3e7.so:_ZN11miniz_oxide7inflate4core12HuffmanTable3new17h20c54e8b750b0dc3E
libstd-4e66027e5c9dd3e7.so:_ZN11miniz_oxide7inflate4core17DecompressorOxide3new17hc8175d7266ff69feE
libstd-4e66027e5c9dd3e7.so:_ZN11miniz_oxide7inflate4core5State10is_failure17hac37cc8ef349c14eE
libstd-4e66027e5c9dd3e7.so:_ZN11miniz_oxide7inflate6stream12InflateState11last_status17ha79e1158b4a90d1aE
libstd-4e66027e5c9dd3e7.so:_ZN11miniz_oxide7inflate6stream12InflateState12decompressor17hbae4003a08edc522E
libstd-4e66027e5c9dd3e7.so:_ZN11miniz_oxide7inflate6stream12InflateState26new_boxed_with_window_bits17h86141893d0bbb78fE
libstd-4e66027e5c9dd3e7.so:_ZN11miniz_oxide7inflate6stream12InflateState3new17h51b9bd24d9f1c42cE
libstd-4e66027e5c9dd3e7.so:_ZN11miniz_oxide7inflate6stream12InflateState9new_boxed17hf86b836b6a6cca19E
libstd-4e66027e5c9dd3e7.so:_ZN11miniz_oxide7inflate6stream7inflate17he63f560bc6d819fdE
libstd-4e66027e5c9dd3e7.so:_ZN120_$LT$alloc..boxed..Box$LT$dyn$u20$core..error..Error$GT$$u20$as$u20$core..convert..From$LT$alloc..string..String$GT$$GT$4from17h544fec814e20dcd0E
libstd-4e66027e5c9dd3e7.so:_ZN120_$LT$std..process..Stdio$u20$as$u20$std..sys_common..FromInner$LT$std..sys..unix..process..process_common..Stdio$GT$$GT$10from_inner17he1c197c5aff74729E
libstd-4e66027e5c9dd3e7.so:_ZN121_$LT$std..process..Child$u20$as$u20$std..sys_common..IntoInner$LT$std..sys..unix..process..process_inner..Process$GT$$GT$10into_inner17h5679707f70fd7ef9E
libstd-4e66027e5c9dd3e7.so:_ZN122_$LT$std..process..Command$u20$as$u20$std..sys_common..AsInner$LT$std..sys..unix..process..process_common..Command$GT$$GT$8as_inner17ha182e8795ae6eb78E
libstd-4e66027e5c9dd3e7.so:_ZN122_$LT$std..sys..unix..process..process_common..CommandArgs$u20$as$u20$core..iter..traits..exact_size..ExactSizeIterator$GT$3len17hc4a7a83eed2fb4beE
libstd-4e66027e5c9dd3e7.so:_ZN122_$LT$std..sys..unix..process..process_common..CommandArgs$u20$as$u20$core..iter..traits..exact_size..ExactSizeIterator$GT$8is_empty17h78f869edf8429c9eE
libstd-4e66027e5c9dd3e7.so:_ZN124_$LT$std..process..ExitCode$u20$as$u20$std..sys_common..AsInner$LT$std..sys..unix..process..process_common..ExitCode$GT$$GT$8as_inner17heea36af35cdcd45aE
libstd-4e66027e5c9dd3e7.so:_ZN124_$LT$std..sys..unix..process..process_common..Stdio$u20$as$u20$core..convert..From$LT$std..sys..unix..pipe..AnonPipe$GT$$GT$4from17hb51da5e454fe9102E
libstd-4e66027e5c9dd3e7.so:_ZN125_$LT$std..net..socket_addr..SocketAddrV4$u20$as$u20$std..sys_common..FromInner$LT$libc..unix..linux_like..sockaddr_in$GT$$GT$10from_inner17h97d0235e187c37deE
libstd-4e66027e5c9dd3e7.so:_ZN125_$LT$std..net..socket_addr..SocketAddrV4$u20$as$u20$std..sys_common..IntoInner$LT$libc..unix..linux_like..sockaddr_in$GT$$GT$10into_inner17h5c9554a8f2d34ba6E
libstd-4e66027e5c9dd3e7.so:_ZN125_$LT$std..process..Command$u20$as$u20$std..sys_common..AsInnerMut$LT$std..sys..unix..process..process_common..Command$GT$$GT$12as_inner_mut17h45644a67d0966b7cE
libstd-4e66027e5c9dd3e7.so:_ZN126_$LT$std..net..socket_addr..SocketAddrV6$u20$as$u20$std..sys_common..FromInner$LT$libc..unix..linux_like..sockaddr_in6$GT$$GT$10from_inner17haa179737e9944357E
libstd-4e66027e5c9dd3e7.so:_ZN126_$LT$std..net..socket_addr..SocketAddrV6$u20$as$u20$std..sys_common..IntoInner$LT$libc..unix..linux_like..sockaddr_in6$GT$$GT$10into_inner17hecf16083c6bd95ebE
libstd-4e66027e5c9dd3e7.so:_ZN126_$LT$std..process..ExitCode$u20$as$u20$std..sys_common..FromInner$LT$std..sys..unix..process..process_common..ExitCode$GT$$GT$10from_inner17h901b86e94b4a3caaE
libstd-4e66027e5c9dd3e7.so:_ZN127_$LT$$LT$core..cell..RefCell$LT$T$GT$$u20$as$u20$core..fmt..Debug$GT$..fmt..BorrowedPlaceholder$u20$as$u20$core..fmt..Debug$GT$3fmt17h9f456c180e0c23f9E
libstd-4e66027e5c9dd3e7.so:_ZN127_$LT$std..process..ExitStatus$u20$as$u20$std..sys_common..AsInner$LT$std..sys..unix..process..process_inner..ExitStatus$GT$$GT$8as_inner17h1405716a4775c43aE
libstd-4e66027e5c9dd3e7.so:_ZN128_$LT$alloc..boxed..Box$LT$dyn$u20$core..error..Error$GT$$u20$as$u20$core..convert..From$LT$alloc..borrow..Cow$LT$str$GT$$GT$$GT$4from17h02a5d7abd4995853E
libstd-4e66027e5c9dd3e7.so:_ZN129_$LT$$LT$std..sync..mutex..Mutex$LT$T$GT$$u20$as$u20$core..fmt..Debug$GT$..fmt..LockedPlaceholder$u20$as$u20$core..fmt..Debug$GT$3fmt17hd6875499041cd12aE
libstd-4e66027e5c9dd3e7.so:_ZN129_$LT$std..process..ExitStatus$u20$as$u20$std..sys_common..FromInner$LT$std..sys..unix..process..process_inner..ExitStatus$GT$$GT$10from_inner17hcd2de8e2eb212d8bE
libstd-4e66027e5c9dd3e7.so:_ZN131_$LT$$LT$std..sync..rwlock..RwLock$LT$T$GT$$u20$as$u20$core..fmt..Debug$GT$..fmt..LockedPlaceholder$u20$as$u20$core..fmt..Debug$GT$3fmt17hc57bc228fdac81c2E
libstd-4e66027e5c9dd3e7.so:_ZN133_$LT$std..sys..unix..fs..FileAttr$u20$as$u20$std..sys_common..AsInner$LT$libc..unix..linux_like..linux..gnu..b32..x86..stat64$GT$$GT$8as_inner17hf373614e00c8e10cE
libstd-4e66027e5c9dd3e7.so:_ZN145_$LT$gimli..read..abbrev..Attributes$u20$as$u20$core..convert..From$LT$alloc..vec..Vec$LT$gimli..read..abbrev..AttributeSpecification$GT$$GT$$GT$4from17h578d33b5994e91e3E
libstd-4e66027e5c9dd3e7.so:_ZN14rustc_demangle12try_demangle17h159147337fcd8d17E
libstd-4e66027e5c9dd3e7.so:_ZN14rustc_demangle2v010HexNibbles19try_parse_str_chars28_$u7b$$u7b$closure$u7d$$u7d$28_$u7b$$u7b$closure$u7d$$u7d$24utf8_len_from_first_byte17ha92974a227acd47eE
libstd-4e66027e5c9dd3e7.so:_ZN14rustc_demangle8Demangle6as_str17hf3ac3deeb5b7f90cE
libstd-4e66027e5c9dd3e7.so:_ZN14rustc_demangle8demangle17h4b33755d47d5ae58E
libstd-4e66027e5c9dd3e7.so:_ZN153_$LT$std..sys..unix..process..process_inner..ExitStatusError$u20$as$u20$core..convert..Into$LT$std..sys..unix..process..process_inner..ExitStatus$GT$$GT$4into17he8bba55ce8e4e485E
libstd-4e66027e5c9dd3e7.so:_ZN163_$LT$std..sys..unix..process..process_inner..$LT$impl$u20$std..sys..unix..process..process_common..Command$GT$..do_exec..Reset$u20$as$u20$core..ops..drop..Drop$GT$4drop17h50b58bab5f5b3eefE
libstd-4e66027e5c9dd3e7.so:_ZN174_$LT$alloc..boxed..Box$LT$dyn$u20$core..error..Error$u2b$core..marker..Sync$u2b$core..marker..Send$GT$$u20$as$u20$core..convert..From$LT$alloc..borrow..Cow$LT$str$GT$$GT$$GT$4from17h4e817a8a7ed6a22eE
libstd-4e66027e5c9dd3e7.so:_ZN176_$LT$std..sys..unix..process..process_inner..$LT$impl$u20$std..sys..unix..process..process_common..Command$GT$..posix_spawn..PosixSpawnattr$u20$as$u20$core..ops..drop..Drop$GT$4drop17h2cffc88fc4fb344eE
libstd-4e66027e5c9dd3e7.so:_ZN183_$LT$std..process..Child$u20$as$u20$std..sys_common..FromInner$LT$$LP$std..sys..unix..process..process_inner..Process$C$std..sys..unix..process..process_common..StdioPipes$RP$$GT$$GT$10from_inner17h3aa326d480224e8fE
libstd-4e66027e5c9dd3e7.so:_ZN183_$LT$std..sys..unix..process..process_inner..$LT$impl$u20$std..sys..unix..process..process_common..Command$GT$..posix_spawn..PosixSpawnFileActions$u20$as$u20$core..ops..drop..Drop$GT$4drop17ha091e9d4b1ef616cE
libstd-4e66027e5c9dd3e7.so:_ZN221_$LT$$LT$alloc..boxed..Box$LT$dyn$u20$core..error..Error$u2b$core..marker..Sync$u2b$core..marker..Send$GT$$u20$as$u20$core..convert..From$LT$alloc..string..String$GT$$GT$..from..StringError$u20$as$u20$core..fmt..Debug$GT$3fmt17h7f1f8c7ccd484a44E
libstd-4e66027e5c9dd3e7.so:_ZN223_$LT$$LT$alloc..boxed..Box$LT$dyn$u20$core..error..Error$u2b$core..marker..Sync$u2b$core..marker..Send$GT$$u20$as$u20$core..convert..From$LT$alloc..string..String$GT$$GT$..from..StringError$u20$as$u20$core..error..Error$GT$11description17h2449e4894aedcebeE
libstd-4e66027e5c9dd3e7.so:_ZN223_$LT$$LT$alloc..boxed..Box$LT$dyn$u20$core..error..Error$u2b$core..marker..Sync$u2b$core..marker..Send$GT$$u20$as$u20$core..convert..From$LT$alloc..string..String$GT$$GT$..from..StringError$u20$as$u20$core..fmt..Display$GT$3fmt17h879d778b6e06cf49E
libstd-4e66027e5c9dd3e7.so:_ZN3std10sys_common11thread_info3set17hc6d5b55b845580d0E
libstd-4e66027e5c9dd3e7.so:_ZN3std10sys_common2fs10try_exists17h46568974a1417a21E
libstd-4e66027e5c9dd3e7.so:_ZN3std10sys_common3net11TcpListener11into_socket17hcc6caec72cbcfcb7E
libstd-4e66027e5c9dd3e7.so:_ZN3std10sys_common3net11TcpListener4bind17ha30528a7fef354d0E
libstd-4e66027e5c9dd3e7.so:_ZN3std10sys_common3net11TcpListener6socket17h33b24540f83ad48cE
libstd-4e66027e5c9dd3e7.so:_ZN3std10sys_common3net153_$LT$impl$u20$std..sys_common..IntoInner$LT$$LP$std..sys_common..net..SocketAddrCRepr$C$u32$RP$$GT$$u20$for$u20$$RF$std..net..socket_addr..SocketAddr$GT$10into_inner17h0f9544ac5365e6a7E
libstd-4e66027e5c9dd3e7.so:_ZN3std10sys_common3net9TcpStream11into_socket17hf1793932a1ce077bE
libstd-4e66027e5c9dd3e7.so:_ZN3std10sys_common3net9TcpStream6socket17hfc848f6e5c827607E
libstd-4e66027e5c9dd3e7.so:_ZN3std10sys_common3net9TcpStream7connect17h480a166b39fad4faE
libstd-4e66027e5c9dd3e7.so:_ZN3std10sys_common3net9UdpSocket11into_socket17h3f5a691cf84332cfE
libstd-4e66027e5c9dd3e7.so:_ZN3std10sys_common3net9UdpSocket4bind17ha259dea51af5d478E
libstd-4e66027e5c9dd3e7.so:_ZN3std10sys_common3net9UdpSocket6socket17he461bd909fee36edE
libstd-4e66027e5c9dd3e7.so:_ZN3std10sys_common3net9UdpSocket7connect17ha00c6c106b63e0e8E
libstd-4e66027e5c9dd3e7.so:_ZN3std10sys_common3net9UdpSocket7send_to17h59ba1adef26ef05dE
libstd-4e66027e5c9dd3e7.so:_ZN3std10sys_common4wtf816slice_error_fail17h7578f96a5212e8ebE
libstd-4e66027e5c9dd3e7.so:_ZN3std10sys_common4wtf87Wtf8Buf25push_code_point_unchecked17h8bbd9c564b45068aE
libstd-4e66027e5c9dd3e7.so:_ZN3std10sys_common6thread9min_stack17hdbb343613ad17035E
libstd-4e66027e5c9dd3e7.so:_ZN3std10sys_common7process10CommandEnv3set17h90eeadb9f2371c6dE
libstd-4e66027e5c9dd3e7.so:_ZN3std10sys_common7process10CommandEnv6remove17h32dfba4f6c91af09E
libstd-4e66027e5c9dd3e7.so:_ZN3std11collections4hash3map11RandomState3new4KEYS7__getit5__KEY17h6083c79c055f4a00E
libstd-4e66027e5c9dd3e7.so:_ZN3std2fs10DirBuilder3new17h330d218a4964b9b0E
libstd-4e66027e5c9dd3e7.so:_ZN3std2fs10DirBuilder7_create17h5bc849fc76317fbaE
libstd-4e66027e5c9dd3e7.so:_ZN3std2fs10DirBuilder9recursive17hbf2bd860adf24c28E
libstd-4e66027e5c9dd3e7.so:_ZN3std2fs11OpenOptions10create_new17h1e0816f26809704dE
libstd-4e66027e5c9dd3e7.so:_ZN3std2fs11OpenOptions3new17hf3be7f5150991c28E
libstd-4e66027e5c9dd3e7.so:_ZN3std2fs11OpenOptions4read17hdf7b86279ed7a826E
libstd-4e66027e5c9dd3e7.so:_ZN3std2fs11OpenOptions5_open17h14ac6add78d7f9cfE
libstd-4e66027e5c9dd3e7.so:_ZN3std2fs11OpenOptions5write17h3dee6b0b9ec28326E
libstd-4e66027e5c9dd3e7.so:_ZN3std2fs11OpenOptions6append17h8b40f85e77f58c8dE
libstd-4e66027e5c9dd3e7.so:_ZN3std2fs11OpenOptions6create17hfde68b3d41e82c66E
libstd-4e66027e5c9dd3e7.so:_ZN3std2fs11OpenOptions8truncate17hd681c5ade8b7aa41E
libstd-4e66027e5c9dd3e7.so:_ZN3std2fs11Permissions12set_readonly17h886c7dcad09fb1eeE
libstd-4e66027e5c9dd3e7.so:_ZN3std2fs11Permissions8readonly17h2cbba114f105caa9E
libstd-4e66027e5c9dd3e7.so:_ZN3std2fs14read_to_string5inner17h991937cf0b76ad29E
libstd-4e66027e5c9dd3e7.so:_ZN3std2fs4File15set_permissions17hb31db69193d65925E
libstd-4e66027e5c9dd3e7.so:_ZN3std2fs4File7options17h36294a8cf3952656E
libstd-4e66027e5c9dd3e7.so:_ZN3std2fs4File7set_len17hcdf5b3a418c0dbc0E
libstd-4e66027e5c9dd3e7.so:_ZN3std2fs4File8metadata17h867a6b486c8ac9f3E
libstd-4e66027e5c9dd3e7.so:_ZN3std2fs4File8sync_all17h64859f63bb86190fE
libstd-4e66027e5c9dd3e7.so:_ZN3std2fs4File9set_times17hccd2463b68d7d08aE
libstd-4e66027e5c9dd3e7.so:_ZN3std2fs4File9sync_data17he1d564f84c6a642fE
libstd-4e66027e5c9dd3e7.so:_ZN3std2fs4File9try_clone17hf83baa90bbfabc11E
libstd-4e66027e5c9dd3e7.so:_ZN3std2fs4read5inner17had44ff6f25d700a3E
libstd-4e66027e5c9dd3e7.so:_ZN3std2fs5write5inner17h743dc9e4967a2454E
libstd-4e66027e5c9dd3e7.so:_ZN3std2fs8DirEntry4path17hd55116a7f539b14aE
libstd-4e66027e5c9dd3e7.so:_ZN3std2fs8DirEntry8metadata17hcee4da919f48ad21E
libstd-4e66027e5c9dd3e7.so:_ZN3std2fs8DirEntry9file_name17h13abb00970d979d0E
libstd-4e66027e5c9dd3e7.so:_ZN3std2fs8DirEntry9file_type17h75013890ced155a5E
libstd-4e66027e5c9dd3e7.so:_ZN3std2fs8FileType10is_symlink17h0db5aa4d48d8487eE
libstd-4e66027e5c9dd3e7.so:_ZN3std2fs8FileType6is_dir17hde26a8a06473c956E
libstd-4e66027e5c9dd3e7.so:_ZN3std2fs8FileType7is_file17h9e6b11224ba8ac04E
libstd-4e66027e5c9dd3e7.so:_ZN3std2fs8Metadata10is_symlink17hbb132edb8ec37665E
libstd-4e66027e5c9dd3e7.so:_ZN3std2fs8Metadata11permissions17hd23a5165a5bb169cE
libstd-4e66027e5c9dd3e7.so:_ZN3std2fs8Metadata3len17hede3d6a6c5c4f39dE
libstd-4e66027e5c9dd3e7.so:_ZN3std2fs8Metadata6is_dir17hc1fbdecec6ce459bE
libstd-4e66027e5c9dd3e7.so:_ZN3std2fs8Metadata7created17hfc4977c313dc4ba9E
libstd-4e66027e5c9dd3e7.so:_ZN3std2fs8Metadata7is_file17h207b8450ecb30523E
libstd-4e66027e5c9dd3e7.so:_ZN3std2fs8Metadata8accessed17hfd00ff817956e108E
libstd-4e66027e5c9dd3e7.so:_ZN3std2fs8Metadata8modified17hab42ca48e5e62c64E
libstd-4e66027e5c9dd3e7.so:_ZN3std2fs8Metadata9file_type17h2e7397809343311bE
libstd-4e66027e5c9dd3e7.so:_ZN3std2fs9FileTimes12set_accessed17h965fbe7b34cd0f22E
libstd-4e66027e5c9dd3e7.so:_ZN3std2fs9FileTimes12set_modified17h4d849780a0c72763E
libstd-4e66027e5c9dd3e7.so:_ZN3std2fs9FileTimes3new17he5414e3e673e6193E
libstd-4e66027e5c9dd3e7.so:_ZN3std2io4util4sink17h5192850e4294dcd8E
libstd-4e66027e5c9dd3e7.so:_ZN3std2io4util5empty17h8f6a3178ee3d186aE
libstd-4e66027e5c9dd3e7.so:_ZN3std2io4util6repeat17h8cffb69c7533df05E
libstd-4e66027e5c9dd3e7.so:_ZN3std2io5error13SimpleMessage3new17h840fd5ea7c7cb1b3E
libstd-4e66027e5c9dd3e7.so:_ZN3std2io5error5Error4_new17h11f1ab40aa8dac59E
libstd-4e66027e5c9dd3e7.so:_ZN3std2io5error82_$LT$impl$u20$core..fmt..Debug$u20$for$u20$std..io..error..repr_unpacked..Repr$GT$3fmt17h9e0dbe72b78889f4E
libstd-4e66027e5c9dd3e7.so:_ZN3std2io5stdio18set_output_capture17hab7a5920af8b0639E
libstd-4e66027e5c9dd3e7.so:_ZN3std2io5stdio23attempt_print_to_stderr17h20dd3fbcb2dffc53E
libstd-4e66027e5c9dd3e7.so:_ZN3std2io5stdio5Stdin4lock17h98055b6eb35fa4e6E
libstd-4e66027e5c9dd3e7.so:_ZN3std2io5stdio5Stdin5lines17h39b7cf95db5fd804E
libstd-4e66027e5c9dd3e7.so:_ZN3std2io5stdio5Stdin9read_line17hf5b551a19a40d9ccE
libstd-4e66027e5c9dd3e7.so:_ZN3std2io5stdio5stdin17he781657ace70f72aE
libstd-4e66027e5c9dd3e7.so:_ZN3std2io5stdio6Stderr4lock17h9e3b68326c4bcb2cE
libstd-4e66027e5c9dd3e7.so:_ZN3std2io5stdio6Stdout4lock17hb5d6c7028dea17dbE
libstd-4e66027e5c9dd3e7.so:_ZN3std2io5stdio6_print17hd4438bde02f853d0E
libstd-4e66027e5c9dd3e7.so:_ZN3std2io5stdio6stderr17ha496567ceca2c7f2E
libstd-4e66027e5c9dd3e7.so:_ZN3std2io5stdio6stdout17h9203b7f9a031af71E
libstd-4e66027e5c9dd3e7.so:_ZN3std2io5stdio7_eprint17h960a1d2f902c0330E
libstd-4e66027e5c9dd3e7.so:_ZN3std2io5stdio9StdinLock10as_mut_buf17h046feeaba740a025E
libstd-4e66027e5c9dd3e7.so:_ZN3std2io8buffered9bufwriter14WriterPanicked10into_inner17habed236e6c71f7b2E
libstd-4e66027e5c9dd3e7.so:_ZN3std2io8buffered9bufwriter18BufWriter$LT$W$GT$9flush_buf8BufGuard3new17hbbf96f4da399b816E
libstd-4e66027e5c9dd3e7.so:_ZN3std2io8buffered9bufwriter18BufWriter$LT$W$GT$9flush_buf8BufGuard4done17h71ba95381e92f08aE
libstd-4e66027e5c9dd3e7.so:_ZN3std2io8buffered9bufwriter18BufWriter$LT$W$GT$9flush_buf8BufGuard7consume17h7b3f0e7cd2b14246E
libstd-4e66027e5c9dd3e7.so:_ZN3std2io8buffered9bufwriter18BufWriter$LT$W$GT$9flush_buf8BufGuard9remaining17h09b9002ccad3ce15E
libstd-4e66027e5c9dd3e7.so:_ZN3std2os2fd5owned10BorrowedFd18try_clone_to_owned17ha068ce8035edcce9E
libstd-4e66027e5c9dd3e7.so:_ZN3std2os2fd5owned7OwnedFd9try_clone17h1503f86577bba310E
libstd-4e66027e5c9dd3e7.so:_ZN3std2os4unix3net4addr10SocketAddr10from_parts17ha1fc5a80c21d7499E
libstd-4e66027e5c9dd3e7.so:_ZN3std2os4unix3net4addr10SocketAddr10is_unnamed17h8a9df46cdee384d1E
libstd-4e66027e5c9dd3e7.so:_ZN3std2os4unix3net4addr10SocketAddr11as_pathname17h26474bf4269c5f67E
libstd-4e66027e5c9dd3e7.so:_ZN3std2os4unix3net4addr11sockaddr_un17h4b06f1eb47cf6810E
libstd-4e66027e5c9dd3e7.so:_ZN3std2os4unix3net4addr15sun_path_offset17h4f86ce1bc0226323E
libstd-4e66027e5c9dd3e7.so:_ZN3std2os4unix3net6stream10UnixStream10local_addr17h98b94336fbc0e636E
libstd-4e66027e5c9dd3e7.so:_ZN3std2os4unix3net6stream10UnixStream10take_error17h3ab012e0c8670f8cE
libstd-4e66027e5c9dd3e7.so:_ZN3std2os4unix3net6stream10UnixStream12connect_addr17h5084a851f95e4497E
libstd-4e66027e5c9dd3e7.so:_ZN3std2os4unix3net6stream10UnixStream12read_timeout17h4199944d6705f7a2E
libstd-4e66027e5c9dd3e7.so:_ZN3std2os4unix3net6stream10UnixStream12set_passcred17hb8000473c067220fE
libstd-4e66027e5c9dd3e7.so:_ZN3std2os4unix3net6stream10UnixStream13write_timeout17h2c5bf4fe4ecd6835E
libstd-4e66027e5c9dd3e7.so:_ZN3std2os4unix3net6stream10UnixStream15set_nonblocking17h040c7d056df5a86fE
libstd-4e66027e5c9dd3e7.so:_ZN3std2os4unix3net6stream10UnixStream16set_read_timeout17hed4c24edfde3e335E
libstd-4e66027e5c9dd3e7.so:_ZN3std2os4unix3net6stream10UnixStream17set_write_timeout17haabd867c0b72fbeeE
libstd-4e66027e5c9dd3e7.so:_ZN3std2os4unix3net6stream10UnixStream28recv_vectored_with_ancillary17h336fb6a4e24bf87bE
libstd-4e66027e5c9dd3e7.so:_ZN3std2os4unix3net6stream10UnixStream28send_vectored_with_ancillary17h7d0985ed24efe41aE
libstd-4e66027e5c9dd3e7.so:_ZN3std2os4unix3net6stream10UnixStream4pair17h99a5f50e195e35fcE
libstd-4e66027e5c9dd3e7.so:_ZN3std2os4unix3net6stream10UnixStream4peek17h2059004c8318380eE
libstd-4e66027e5c9dd3e7.so:_ZN3std2os4unix3net6stream10UnixStream8passcred17h13b357c33d33b396E
libstd-4e66027e5c9dd3e7.so:_ZN3std2os4unix3net6stream10UnixStream8set_mark17hadc8096445691addE
libstd-4e66027e5c9dd3e7.so:_ZN3std2os4unix3net6stream10UnixStream8shutdown17hf8b5c678ab5927c8E
libstd-4e66027e5c9dd3e7.so:_ZN3std2os4unix3net6stream10UnixStream9peer_addr17h6cfa85bf0e7fcde1E
libstd-4e66027e5c9dd3e7.so:_ZN3std2os4unix3net6stream10UnixStream9peer_cred17hc873ae252927ecd1E
libstd-4e66027e5c9dd3e7.so:_ZN3std2os4unix3net6stream10UnixStream9try_clone17hc5f691646777bc59E
libstd-4e66027e5c9dd3e7.so:_ZN3std2os4unix3net8datagram12UnixDatagram10local_addr17h51bfbd3a7037bae5E
libstd-4e66027e5c9dd3e7.so:_ZN3std2os4unix3net8datagram12UnixDatagram10take_error17h0c2366a9dfef29c1E
libstd-4e66027e5c9dd3e7.so:_ZN3std2os4unix3net8datagram12UnixDatagram12connect_addr17h95aef67921e7bc51E
libstd-4e66027e5c9dd3e7.so:_ZN3std2os4unix3net8datagram12UnixDatagram12read_timeout17h371876b6723a0de5E
libstd-4e66027e5c9dd3e7.so:_ZN3std2os4unix3net8datagram12UnixDatagram12send_to_addr17h57c9041773136341E
libstd-4e66027e5c9dd3e7.so:_ZN3std2os4unix3net8datagram12UnixDatagram12set_passcred17hc824021d21dbf523E
libstd-4e66027e5c9dd3e7.so:_ZN3std2os4unix3net8datagram12UnixDatagram13write_timeout17hceb803fae2bd165bE
libstd-4e66027e5c9dd3e7.so:_ZN3std2os4unix3net8datagram12UnixDatagram15set_nonblocking17h28ec9c06498e0102E
libstd-4e66027e5c9dd3e7.so:_ZN3std2os4unix3net8datagram12UnixDatagram16set_read_timeout17haa1b8c824b0930daE
libstd-4e66027e5c9dd3e7.so:_ZN3std2os4unix3net8datagram12UnixDatagram17set_write_timeout17ha386b0ce1535f9f5E
libstd-4e66027e5c9dd3e7.so:_ZN3std2os4unix3net8datagram12UnixDatagram28recv_vectored_with_ancillary17h88619b043bbe03b3E
libstd-4e66027e5c9dd3e7.so:_ZN3std2os4unix3net8datagram12UnixDatagram28send_vectored_with_ancillary17h08cfa0c713bb2b06E
libstd-4e66027e5c9dd3e7.so:_ZN3std2os4unix3net8datagram12UnixDatagram33recv_vectored_with_ancillary_from17he951099b2a449d40E
libstd-4e66027e5c9dd3e7.so:_ZN3std2os4unix3net8datagram12UnixDatagram4pair17h74c37d151b2c07b0E
libstd-4e66027e5c9dd3e7.so:_ZN3std2os4unix3net8datagram12UnixDatagram4peek17h7a2260a15680978bE
libstd-4e66027e5c9dd3e7.so:_ZN3std2os4unix3net8datagram12UnixDatagram4recv17h092ba073c27a36b1E
libstd-4e66027e5c9dd3e7.so:_ZN3std2os4unix3net8datagram12UnixDatagram4send17h1ae2bdd12cad6600E
libstd-4e66027e5c9dd3e7.so:_ZN3std2os4unix3net8datagram12UnixDatagram7unbound17h797828b374810b8aE
libstd-4e66027e5c9dd3e7.so:_ZN3std2os4unix3net8datagram12UnixDatagram8passcred17h6e2463bb9e44ecd7E
libstd-4e66027e5c9dd3e7.so:_ZN3std2os4unix3net8datagram12UnixDatagram8set_mark17ha49166aec1e4ba27E
libstd-4e66027e5c9dd3e7.so:_ZN3std2os4unix3net8datagram12UnixDatagram8shutdown17h3fdf67cc803d69cbE
libstd-4e66027e5c9dd3e7.so:_ZN3std2os4unix3net8datagram12UnixDatagram9bind_addr17h2f3c25792081481eE
libstd-4e66027e5c9dd3e7.so:_ZN3std2os4unix3net8datagram12UnixDatagram9peek_from17hb2d523220f8626efE
libstd-4e66027e5c9dd3e7.so:_ZN3std2os4unix3net8datagram12UnixDatagram9peer_addr17h8ff1e8bc8afef322E
libstd-4e66027e5c9dd3e7.so:_ZN3std2os4unix3net8datagram12UnixDatagram9recv_from17h0cbb37d3578441acE
libstd-4e66027e5c9dd3e7.so:_ZN3std2os4unix3net8datagram12UnixDatagram9try_clone17h9ef1691b87acc4b3E
libstd-4e66027e5c9dd3e7.so:_ZN3std2os4unix3net8listener12UnixListener10local_addr17h6dd458e8157053f5E
libstd-4e66027e5c9dd3e7.so:_ZN3std2os4unix3net8listener12UnixListener10take_error17h85bae8c7ff872357E
libstd-4e66027e5c9dd3e7.so:_ZN3std2os4unix3net8listener12UnixListener15set_nonblocking17h81059c982a66383eE
libstd-4e66027e5c9dd3e7.so:_ZN3std2os4unix3net8listener12UnixListener6accept17hf1542163172046a4E
libstd-4e66027e5c9dd3e7.so:_ZN3std2os4unix3net8listener12UnixListener8incoming17h4743678cf5abad21E
libstd-4e66027e5c9dd3e7.so:_ZN3std2os4unix3net8listener12UnixListener9bind_addr17h46362efd9d3d2b51E
libstd-4e66027e5c9dd3e7.so:_ZN3std2os4unix3net8listener12UnixListener9try_clone17h03fca0e2c2c57af9E
libstd-4e66027e5c9dd3e7.so:_ZN3std2os4unix3net9ancillary10SocketCred3new17h14bd642f1bfb7030E
libstd-4e66027e5c9dd3e7.so:_ZN3std2os4unix3net9ancillary10SocketCred7get_gid17h357a073e3251110dE
libstd-4e66027e5c9dd3e7.so:_ZN3std2os4unix3net9ancillary10SocketCred7get_pid17hcdcbd4e990d6fe69E
libstd-4e66027e5c9dd3e7.so:_ZN3std2os4unix3net9ancillary10SocketCred7get_uid17h0241d7da046a99e0E
libstd-4e66027e5c9dd3e7.so:_ZN3std2os4unix3net9ancillary10SocketCred7set_gid17h6d91fde1cd459c68E
libstd-4e66027e5c9dd3e7.so:_ZN3std2os4unix3net9ancillary10SocketCred7set_pid17h79cd70e0a9c7d2aeE
libstd-4e66027e5c9dd3e7.so:_ZN3std2os4unix3net9ancillary10SocketCred7set_uid17h96111b237d511546E
libstd-4e66027e5c9dd3e7.so:_ZN3std2os4unix3net9ancillary15SocketAncillary3len17h1a460c07df743b22E
libstd-4e66027e5c9dd3e7.so:_ZN3std2os4unix3net9ancillary15SocketAncillary3new17h1895ab8e802d071aE
libstd-4e66027e5c9dd3e7.so:_ZN3std2os4unix3net9ancillary15SocketAncillary5clear17ha7cc73e5e429febcE
libstd-4e66027e5c9dd3e7.so:_ZN3std2os4unix3net9ancillary15SocketAncillary7add_fds17h35d3ae209b725b09E
libstd-4e66027e5c9dd3e7.so:_ZN3std2os4unix3net9ancillary15SocketAncillary8capacity17h0b51ae7e0d8b4662E
libstd-4e66027e5c9dd3e7.so:_ZN3std2os4unix3net9ancillary15SocketAncillary8is_empty17h08199b1bfeb13cf9E
libstd-4e66027e5c9dd3e7.so:_ZN3std2os4unix3net9ancillary15SocketAncillary8messages17h0b3ed29e51a0ce30E
libstd-4e66027e5c9dd3e7.so:_ZN3std2os4unix3net9ancillary15SocketAncillary9add_creds17hcee258fe7094721aE
libstd-4e66027e5c9dd3e7.so:_ZN3std2os4unix3net9ancillary15SocketAncillary9truncated17hb509a36fab2f5d7cE
libstd-4e66027e5c9dd3e7.so:_ZN3std2os4unix3net9ancillary31send_vectored_with_ancillary_to17hf97d1190c800673cE
libstd-4e66027e5c9dd3e7.so:_ZN3std2os4unix5ucred10impl_linux9peer_cred17h7a7392918fa26180E
libstd-4e66027e5c9dd3e7.so:_ZN3std2os4unix7process9parent_id17h1ee552b194cf2e9cE
libstd-4e66027e5c9dd3e7.so:_ZN3std2os5linux7process115_$LT$impl$u20$core..convert..From$LT$std..os..linux..process..PidFd$GT$$u20$for$u20$std..os..fd..owned..OwnedFd$GT$4from17h4c0f169db79d0b16E
libstd-4e66027e5c9dd3e7.so:_ZN3std2rt19lang_start_internal17he47d443c1896256aE
libstd-4e66027e5c9dd3e7.so:_ZN3std3env11_remove_var17h6ec3a373000677ffE
libstd-4e66027e5c9dd3e7.so:_ZN3std3env11current_dir17hb7f992f3fd25f817E
libstd-4e66027e5c9dd3e7.so:_ZN3std3env11current_exe17hf5dfc9701e393f73E
libstd-4e66027e5c9dd3e7.so:_ZN3std3env4_var17hec5d7f4d222cc66dE
libstd-4e66027e5c9dd3e7.so:_ZN3std3env4args17h358cc1e2612adce4E
libstd-4e66027e5c9dd3e7.so:_ZN3std3env4vars17h1fddcf326586813cE
libstd-4e66027e5c9dd3e7.so:_ZN3std3env7_var_os17h7c54198e9d20a8edE
libstd-4e66027e5c9dd3e7.so:_ZN3std3env7args_os17h3c568b404f48056dE
libstd-4e66027e5c9dd3e7.so:_ZN3std3env7vars_os17h8e4010fb755e54b3E
libstd-4e66027e5c9dd3e7.so:_ZN3std3env8_set_var17h7c57ee4b6ab37f9eE
libstd-4e66027e5c9dd3e7.so:_ZN3std3env8home_dir17he808312e7691803fE
libstd-4e66027e5c9dd3e7.so:_ZN3std3env8temp_dir17h4db32fa3c23bbc6bE
libstd-4e66027e5c9dd3e7.so:_ZN3std3ffi6os_str5OsStr14into_os_string17hdb2df8636287523fE
libstd-4e66027e5c9dd3e7.so:_ZN3std3ffi6os_str5OsStr18to_ascii_lowercase17h3102ebc748e7534bE
libstd-4e66027e5c9dd3e7.so:_ZN3std3ffi6os_str5OsStr18to_ascii_uppercase17h3f56aa293c97d569E
libstd-4e66027e5c9dd3e7.so:_ZN3std3ffi6os_str8OsString17into_boxed_os_str17h552eb3940aa66c13E
libstd-4e66027e5c9dd3e7.so:_ZN3std3net11socket_addr10SocketAddr2ip17h5cd4e8059f3c735dE
libstd-4e66027e5c9dd3e7.so:_ZN3std3net11socket_addr10SocketAddr3new17h71baee708bfbd3c0E
libstd-4e66027e5c9dd3e7.so:_ZN3std3net11socket_addr10SocketAddr4port17h3e2468c4bba4e7a5E
libstd-4e66027e5c9dd3e7.so:_ZN3std3net11socket_addr10SocketAddr6set_ip17h29ccdd7fcfd1df18E
libstd-4e66027e5c9dd3e7.so:_ZN3std3net11socket_addr10SocketAddr7is_ipv417h907ccb88bcea30a3E
libstd-4e66027e5c9dd3e7.so:_ZN3std3net11socket_addr10SocketAddr7is_ipv617h539e10f02466f881E
libstd-4e66027e5c9dd3e7.so:_ZN3std3net11socket_addr10SocketAddr8set_port17h288ad870cd8ddc03E
libstd-4e66027e5c9dd3e7.so:_ZN3std3net11socket_addr12SocketAddrV42ip17h418e299c7b9020b0E
libstd-4e66027e5c9dd3e7.so:_ZN3std3net11socket_addr12SocketAddrV43new17h68a49a8aaeea6c59E
libstd-4e66027e5c9dd3e7.so:_ZN3std3net11socket_addr12SocketAddrV44port17h3d7f6ef2c7dad13cE
libstd-4e66027e5c9dd3e7.so:_ZN3std3net11socket_addr12SocketAddrV46set_ip17h21f414e524e89ed7E
libstd-4e66027e5c9dd3e7.so:_ZN3std3net11socket_addr12SocketAddrV48set_port17h40d99c662b29a4d7E
libstd-4e66027e5c9dd3e7.so:_ZN3std3net11socket_addr12SocketAddrV612set_flowinfo17hab3ce2583806c44bE
libstd-4e66027e5c9dd3e7.so:_ZN3std3net11socket_addr12SocketAddrV612set_scope_id17h278e530f32b85ddcE
libstd-4e66027e5c9dd3e7.so:_ZN3std3net11socket_addr12SocketAddrV62ip17h975368a0b460abc0E
libstd-4e66027e5c9dd3e7.so:_ZN3std3net11socket_addr12SocketAddrV63new17hccd5c50a70e4e394E
libstd-4e66027e5c9dd3e7.so:_ZN3std3net11socket_addr12SocketAddrV64port17h3a8e62ceb549adc2E
libstd-4e66027e5c9dd3e7.so:_ZN3std3net11socket_addr12SocketAddrV66set_ip17h0d2d1ccc17f03b7aE
libstd-4e66027e5c9dd3e7.so:_ZN3std3net11socket_addr12SocketAddrV68flowinfo17h5f8c9d3a17b26b5eE
libstd-4e66027e5c9dd3e7.so:_ZN3std3net11socket_addr12SocketAddrV68scope_id17hfeb60ec4e52eaed3E
libstd-4e66027e5c9dd3e7.so:_ZN3std3net11socket_addr12SocketAddrV68set_port17h81eac532fed7d3ecE
libstd-4e66027e5c9dd3e7.so:_ZN3std3net3tcp11TcpListener10local_addr17h9f93a3ce3320919bE
libstd-4e66027e5c9dd3e7.so:_ZN3std3net3tcp11TcpListener10take_error17h11b56d6776460241E
libstd-4e66027e5c9dd3e7.so:_ZN3std3net3tcp11TcpListener11set_only_v617h44cfaac735eef26dE
libstd-4e66027e5c9dd3e7.so:_ZN3std3net3tcp11TcpListener13into_incoming17he55cef7ac6fdeaf1E
libstd-4e66027e5c9dd3e7.so:_ZN3std3net3tcp11TcpListener15set_nonblocking17hf07d7edf30988eb0E
libstd-4e66027e5c9dd3e7.so:_ZN3std3net3tcp11TcpListener3ttl17h1bc35689916be1e7E
libstd-4e66027e5c9dd3e7.so:_ZN3std3net3tcp11TcpListener6accept17h9536c0c2c4c4eae7E
libstd-4e66027e5c9dd3e7.so:_ZN3std3net3tcp11TcpListener7only_v617h8664de2c80ab3fd6E
libstd-4e66027e5c9dd3e7.so:_ZN3std3net3tcp11TcpListener7set_ttl17h86dac4d4c52b9989E
libstd-4e66027e5c9dd3e7.so:_ZN3std3net3tcp11TcpListener8incoming17h6eebe688ffdf8db5E
libstd-4e66027e5c9dd3e7.so:_ZN3std3net3tcp11TcpListener9try_clone17h4285257fff920e9fE
libstd-4e66027e5c9dd3e7.so:_ZN3std3net3tcp9TcpStream10local_addr17h564e089d990553a3E
libstd-4e66027e5c9dd3e7.so:_ZN3std3net3tcp9TcpStream10set_linger17h85ab1685ff880ac1E
libstd-4e66027e5c9dd3e7.so:_ZN3std3net3tcp9TcpStream10take_error17h54827e0055fab18fE
libstd-4e66027e5c9dd3e7.so:_ZN3std3net3tcp9TcpStream11set_nodelay17h8f9f07d7d88f7405E
libstd-4e66027e5c9dd3e7.so:_ZN3std3net3tcp9TcpStream12read_timeout17h35bbcdbae488310dE
libstd-4e66027e5c9dd3e7.so:_ZN3std3net3tcp9TcpStream13write_timeout17h084e2c21d58480bbE
libstd-4e66027e5c9dd3e7.so:_ZN3std3net3tcp9TcpStream15connect_timeout17hb2d3d4a186bb5b7eE
libstd-4e66027e5c9dd3e7.so:_ZN3std3net3tcp9TcpStream15set_nonblocking17hf352d8badb686c18E
libstd-4e66027e5c9dd3e7.so:_ZN3std3net3tcp9TcpStream16set_read_timeout17hf1a0bbd158de5e12E
libstd-4e66027e5c9dd3e7.so:_ZN3std3net3tcp9TcpStream17set_write_timeout17hb0cb467e7d219720E
libstd-4e66027e5c9dd3e7.so:_ZN3std3net3tcp9TcpStream3ttl17h622a6f45d0b7ccc9E
libstd-4e66027e5c9dd3e7.so:_ZN3std3net3tcp9TcpStream4peek17h2100c2d5bd2ae875E
libstd-4e66027e5c9dd3e7.so:_ZN3std3net3tcp9TcpStream6linger17h7648f08206767da4E
libstd-4e66027e5c9dd3e7.so:_ZN3std3net3tcp9TcpStream7nodelay17h374fad1d3c14985dE
libstd-4e66027e5c9dd3e7.so:_ZN3std3net3tcp9TcpStream7set_ttl17h80b79ca15aa5eb7fE
libstd-4e66027e5c9dd3e7.so:_ZN3std3net3tcp9TcpStream8shutdown17h942c0ac4d387932fE
libstd-4e66027e5c9dd3e7.so:_ZN3std3net3tcp9TcpStream9peer_addr17hccac0151144e5701E
libstd-4e66027e5c9dd3e7.so:_ZN3std3net3tcp9TcpStream9try_clone17h1e219c982e57a82bE
libstd-4e66027e5c9dd3e7.so:_ZN3std3net3udp9UdpSocket10local_addr17h1610e84aef24eaf6E
libstd-4e66027e5c9dd3e7.so:_ZN3std3net3udp9UdpSocket10take_error17h66f923e72505e68bE
libstd-4e66027e5c9dd3e7.so:_ZN3std3net3udp9UdpSocket12read_timeout17hfdb1c01488aef429E
libstd-4e66027e5c9dd3e7.so:_ZN3std3net3udp9UdpSocket13set_broadcast17h4492f7b62599b241E
libstd-4e66027e5c9dd3e7.so:_ZN3std3net3udp9UdpSocket13write_timeout17h6eb6f860aefb6c63E
libstd-4e66027e5c9dd3e7.so:_ZN3std3net3udp9UdpSocket15set_nonblocking17h79f467ab0c703434E
libstd-4e66027e5c9dd3e7.so:_ZN3std3net3udp9UdpSocket16multicast_ttl_v417h232deb428d22cfc0E
libstd-4e66027e5c9dd3e7.so:_ZN3std3net3udp9UdpSocket16set_read_timeout17h67121658b6b183abE
libstd-4e66027e5c9dd3e7.so:_ZN3std3net3udp9UdpSocket17join_multicast_v417hce74c38a1a8fe9c0E
libstd-4e66027e5c9dd3e7.so:_ZN3std3net3udp9UdpSocket17join_multicast_v617h9a2d0bed38386302E
libstd-4e66027e5c9dd3e7.so:_ZN3std3net3udp9UdpSocket17multicast_loop_v417hdf1e4944bdeba7b2E
libstd-4e66027e5c9dd3e7.so:_ZN3std3net3udp9UdpSocket17multicast_loop_v617hac62232400659031E
libstd-4e66027e5c9dd3e7.so:_ZN3std3net3udp9UdpSocket17set_write_timeout17h054eca7bba803147E
libstd-4e66027e5c9dd3e7.so:_ZN3std3net3udp9UdpSocket18leave_multicast_v417h6d93e224cac3e261E
libstd-4e66027e5c9dd3e7.so:_ZN3std3net3udp9UdpSocket18leave_multicast_v617h8b06b4101a4cd1bfE
libstd-4e66027e5c9dd3e7.so:_ZN3std3net3udp9UdpSocket20set_multicast_ttl_v417hd3beb07f06fd343eE
libstd-4e66027e5c9dd3e7.so:_ZN3std3net3udp9UdpSocket21set_multicast_loop_v417h8a1e227516afc7d7E
libstd-4e66027e5c9dd3e7.so:_ZN3std3net3udp9UdpSocket21set_multicast_loop_v617hf7b97c4a1c5e86b4E
libstd-4e66027e5c9dd3e7.so:_ZN3std3net3udp9UdpSocket3ttl17ha2ad05ca70a18043E
libstd-4e66027e5c9dd3e7.so:_ZN3std3net3udp9UdpSocket4peek17h7ac0ad64fc46a29fE
libstd-4e66027e5c9dd3e7.so:_ZN3std3net3udp9UdpSocket4recv17hd76804e51d3797c1E
libstd-4e66027e5c9dd3e7.so:_ZN3std3net3udp9UdpSocket4send17h0e169b28a64cb6b8E
libstd-4e66027e5c9dd3e7.so:_ZN3std3net3udp9UdpSocket7set_ttl17h6dbf0092a9746410E
libstd-4e66027e5c9dd3e7.so:_ZN3std3net3udp9UdpSocket9broadcast17h1f9129821777918aE
libstd-4e66027e5c9dd3e7.so:_ZN3std3net3udp9UdpSocket9peek_from17h298f41bd9af0b186E
libstd-4e66027e5c9dd3e7.so:_ZN3std3net3udp9UdpSocket9peer_addr17h6933d4336de473c1E
libstd-4e66027e5c9dd3e7.so:_ZN3std3net3udp9UdpSocket9recv_from17hbec7a9105182d099E
libstd-4e66027e5c9dd3e7.so:_ZN3std3net3udp9UdpSocket9try_clone17hac0b11c963295e03E
libstd-4e66027e5c9dd3e7.so:_ZN3std3net6parser43_$LT$impl$u20$std..net..ip_addr..IpAddr$GT$11parse_ascii17hc4cb5d7190d51f82E
libstd-4e66027e5c9dd3e7.so:_ZN3std3net6parser45_$LT$impl$u20$std..net..ip_addr..Ipv4Addr$GT$11parse_ascii17hacfaa64ff629c07cE
libstd-4e66027e5c9dd3e7.so:_ZN3std3net6parser45_$LT$impl$u20$std..net..ip_addr..Ipv6Addr$GT$11parse_ascii17hb49b806a8b7fe7beE
libstd-4e66027e5c9dd3e7.so:_ZN3std3net6parser51_$LT$impl$u20$std..net..socket_addr..SocketAddr$GT$11parse_ascii17h9b104f331a0dbb54E
libstd-4e66027e5c9dd3e7.so:_ZN3std3net6parser53_$LT$impl$u20$std..net..socket_addr..SocketAddrV4$GT$11parse_ascii17h473f57c3587ab01bE
libstd-4e66027e5c9dd3e7.so:_ZN3std3net6parser53_$LT$impl$u20$std..net..socket_addr..SocketAddrV6$GT$11parse_ascii17ha808f38cd7d8dbe9E
libstd-4e66027e5c9dd3e7.so:_ZN3std3net6parser82_$LT$impl$u20$core..str..traits..FromStr$u20$for$u20$std..net..ip_addr..IpAddr$GT$8from_str17h7f0c54fe302cd672E
libstd-4e66027e5c9dd3e7.so:_ZN3std3net6parser84_$LT$impl$u20$core..str..traits..FromStr$u20$for$u20$std..net..ip_addr..Ipv4Addr$GT$8from_str17h4486720ea6497b33E
libstd-4e66027e5c9dd3e7.so:_ZN3std3net6parser84_$LT$impl$u20$core..str..traits..FromStr$u20$for$u20$std..net..ip_addr..Ipv6Addr$GT$8from_str17h681e5915a015e4d5E
libstd-4e66027e5c9dd3e7.so:_ZN3std3net6parser90_$LT$impl$u20$core..str..traits..FromStr$u20$for$u20$std..net..socket_addr..SocketAddr$GT$8from_str17he11857a6a09023a5E
libstd-4e66027e5c9dd3e7.so:_ZN3std3net6parser92_$LT$impl$u20$core..str..traits..FromStr$u20$for$u20$std..net..socket_addr..SocketAddrV4$GT$8from_str17hc48c4af0ac14def7E
libstd-4e66027e5c9dd3e7.so:_ZN3std3net6parser92_$LT$impl$u20$core..str..traits..FromStr$u20$for$u20$std..net..socket_addr..SocketAddrV6$GT$8from_str17h84944b0caec5f593E
libstd-4e66027e5c9dd3e7.so:_ZN3std3sys4unix11kernel_copy15sendfile_splice17h0c728473892eedf3E
libstd-4e66027e5c9dd3e7.so:_ZN3std3sys4unix11kernel_copy18copy_regular_files17h5abfc5d0f84f9a6aE
libstd-4e66027e5c9dd3e7.so:_ZN3std3sys4unix11kernel_copy6FdMeta10maybe_fifo17hd4af2c411874b251E
libstd-4e66027e5c9dd3e7.so:_ZN3std3sys4unix11kernel_copy6FdMeta25copy_file_range_candidate17h167fd88391a9bb42E
libstd-4e66027e5c9dd3e7.so:_ZN3std3sys4unix11kernel_copy6FdMeta25potential_sendfile_source17h811f60414f252cf5E
libstd-4e66027e5c9dd3e7.so:_ZN3std3sys4unix14abort_internal17h0cc2745ece298a74E
libstd-4e66027e5c9dd3e7.so:_ZN3std3sys4unix17decode_error_kind17h6e94091048089cbaE
libstd-4e66027e5c9dd3e7.so:_ZN3std3sys4unix17thread_local_dtor13register_dtor17h791cb0e40701cae6E
libstd-4e66027e5c9dd3e7.so:_ZN3std3sys4unix2fd8FileDesc11get_cloexec17h111798e83edea638E
libstd-4e66027e5c9dd3e7.so:_ZN3std3sys4unix2fd8FileDesc11read_to_end17h7bd89b4a01b63b58E
libstd-4e66027e5c9dd3e7.so:_ZN3std3sys4unix2fd8FileDesc11set_cloexec17h54c4cbeb38a36fdfE
libstd-4e66027e5c9dd3e7.so:_ZN3std3sys4unix2fd8FileDesc13read_vectored17h186072f911455831E
libstd-4e66027e5c9dd3e7.so:_ZN3std3sys4unix2fd8FileDesc14write_vectored17hae397d2383f46037E
libstd-4e66027e5c9dd3e7.so:_ZN3std3sys4unix2fd8FileDesc15set_nonblocking17h02645037ff99d052E
libstd-4e66027e5c9dd3e7.so:_ZN3std3sys4unix2fd8FileDesc4read17h7e0d34f5a86d78a8E
libstd-4e66027e5c9dd3e7.so:_ZN3std3sys4unix2fd8FileDesc5write17h398544c3b278e14cE
libstd-4e66027e5c9dd3e7.so:_ZN3std3sys4unix2fd8FileDesc7read_at17h2e0083efb73a2982E
libstd-4e66027e5c9dd3e7.so:_ZN3std3sys4unix2fd8FileDesc8read_buf17h7c0b6f595cf9c68dE
libstd-4e66027e5c9dd3e7.so:_ZN3std3sys4unix2fd8FileDesc8write_at17h3658c368a5257281E
libstd-4e66027e5c9dd3e7.so:_ZN3std3sys4unix2fs12canonicalize17hd1349a0cb2de7f57E
libstd-4e66027e5c9dd3e7.so:_ZN3std3sys4unix2fs15remove_dir_impl14remove_dir_all17h1d4f98c28a83d977E
libstd-4e66027e5c9dd3e7.so:_ZN3std3sys4unix2fs4copy17h1bd230d410b60215E
libstd-4e66027e5c9dd3e7.so:_ZN3std3sys4unix2fs4link17h2bb6acbcbe5f09f8E
libstd-4e66027e5c9dd3e7.so:_ZN3std3sys4unix2fs4stat17h716181af11eaa98aE
libstd-4e66027e5c9dd3e7.so:_ZN3std3sys4unix2fs5chown17h54dcd03bf64e7e2bE
libstd-4e66027e5c9dd3e7.so:_ZN3std3sys4unix2fs5lstat17h8b83d31403787210E
libstd-4e66027e5c9dd3e7.so:_ZN3std3sys4unix2fs5rmdir17h5a17009e5a800b76E
libstd-4e66027e5c9dd3e7.so:_ZN3std3sys4unix2fs6chroot17h61febdced23b34fcE
libstd-4e66027e5c9dd3e7.so:_ZN3std3sys4unix2fs6fchown17hf153354f40400d99E
libstd-4e66027e5c9dd3e7.so:_ZN3std3sys4unix2fs6lchown17h73be68099c346a83E
libstd-4e66027e5c9dd3e7.so:_ZN3std3sys4unix2fs6rename17hb39e7d2bd67182ddE
libstd-4e66027e5c9dd3e7.so:_ZN3std3sys4unix2fs6unlink17h7701d0602b3122f6E
libstd-4e66027e5c9dd3e7.so:_ZN3std3sys4unix2fs7readdir17h82e69a459c814240E
libstd-4e66027e5c9dd3e7.so:_ZN3std3sys4unix2fs7symlink17h029ceefe9e8813b7E
libstd-4e66027e5c9dd3e7.so:_ZN3std3sys4unix2fs8FileType6masked17hfd40fe93917aaad8E
libstd-4e66027e5c9dd3e7.so:_ZN3std3sys4unix2fs8readlink17hd822951ec53d289eE
libstd-4e66027e5c9dd3e7.so:_ZN3std3sys4unix2fs8set_perm17h10169f00bedbbf2eE
libstd-4e66027e5c9dd3e7.so:_ZN3std3sys4unix2os11split_paths17h7fdc8953c4051eaaE
libstd-4e66027e5c9dd3e7.so:_ZN3std3sys4unix2os5chdir17h11d6ff0e7c9181bcE
libstd-4e66027e5c9dd3e7.so:_ZN3std3sys4unix2os5errno17h087c862689fbee56E
libstd-4e66027e5c9dd3e7.so:_ZN3std3sys4unix3net6Socket7new_raw17h94f30761bdd425d0E
libstd-4e66027e5c9dd3e7.so:_ZN3std3sys4unix4args3imp15ARGV_INIT_ARRAY12init_wrapper17haf7af15bb791324fE
libstd-4e66027e5c9dd3e7.so:_ZN3std3sys4unix4args3imp15ARGV_INIT_ARRAY17h7fe70c5d40a4ea3cE
libstd-4e66027e5c9dd3e7.so:_ZN3std3sys4unix4path8absolute17hffe3505813e7037dE
libstd-4e66027e5c9dd3e7.so:_ZN3std3sys4unix4rand19hashmap_random_keys17hdc18b1afc2425c92E
libstd-4e66027e5c9dd3e7.so:_ZN3std3sys4unix4time8Timespec3new17h769f91dcf36b84f8E
libstd-4e66027e5c9dd3e7.so:_ZN3std3sys4unix4time8Timespec4zero17h733837943b8d4de2E
libstd-4e66027e5c9dd3e7.so:_ZN3std3sys4unix5futex10futex_wait17hd3bd493600ea73beE
libstd-4e66027e5c9dd3e7.so:_ZN3std3sys4unix5futex10futex_wake17h098a2297584a36d9E
libstd-4e66027e5c9dd3e7.so:_ZN3std3sys4unix5locks11futex_mutex5Mutex14lock_contended17h7305f544c8424ea8E
libstd-4e66027e5c9dd3e7.so:_ZN3std3sys4unix5locks11futex_mutex5Mutex4wake17hc734ffac4c0491a9E
libstd-4e66027e5c9dd3e7.so:_ZN3std3sys4unix5locks12futex_rwlock6RwLock14read_contended17hf3fa9d31726005a0E
libstd-4e66027e5c9dd3e7.so:_ZN3std3sys4unix5locks12futex_rwlock6RwLock15write_contended17h67504c7c692b2109E
libstd-4e66027e5c9dd3e7.so:_ZN3std3sys4unix5locks12futex_rwlock6RwLock22wake_writer_or_readers17hfd570d414a328282E
libstd-4e66027e5c9dd3e7.so:_ZN3std3sys4unix5locks13futex_condvar7Condvar12wait_timeout17h736013a32a39c564E
libstd-4e66027e5c9dd3e7.so:_ZN3std3sys4unix5locks13futex_condvar7Condvar4wait17h1357654afac10e4dE
libstd-4e66027e5c9dd3e7.so:_ZN3std3sys4unix5stdio12panic_output17hf37a8f9e6c046334E
libstd-4e66027e5c9dd3e7.so:_ZN3std3sys4unix5stdio6Stderr3new17h50fe559693d3ab25E
libstd-4e66027e5c9dd3e7.so:_ZN3std3sys4unix6memchr6memchr17h6a5cce1970bef9e9E
libstd-4e66027e5c9dd3e7.so:_ZN3std3sys4unix6memchr7memrchr17h6d5cc2763c9d0c37E
libstd-4e66027e5c9dd3e7.so:_ZN3std3sys4unix6os_str3Buf10push_slice17h31dd9df47e4e26bcE
libstd-4e66027e5c9dd3e7.so:_ZN3std3sys4unix6os_str3Buf11from_string17hcfc973d4ed49c37bE
libstd-4e66027e5c9dd3e7.so:_ZN3std3sys4unix6os_str3Buf11into_string17h5146d52a4d4bb0c1E
libstd-4e66027e5c9dd3e7.so:_ZN3std3sys4unix6os_str5Slice10clone_into17heede4197b07ca6c1E
libstd-4e66027e5c9dd3e7.so:_ZN3std3sys4unix6os_str5Slice15to_string_lossy17h770578c35eca410dE
libstd-4e66027e5c9dd3e7.so:_ZN3std3sys4unix6os_str5Slice6to_str17hdeb4088811f9f100E
libstd-4e66027e5c9dd3e7.so:_ZN3std3sys4unix6os_str5Slice8to_owned17hc9a7871ad391a286E
libstd-4e66027e5c9dd3e7.so:_ZN3std3sys4unix6os_str5Slice9empty_box17ha239c272bae6d1d4E
libstd-4e66027e5c9dd3e7.so:_ZN3std3sys4unix6thread5guard7current17hfc2ab24a3e389f40E
libstd-4e66027e5c9dd3e7.so:_ZN3std3sys4unix6thread6Thread2id17h95264f8ae8bb042dE
libstd-4e66027e5c9dd3e7.so:_ZN3std3sys4unix6thread6Thread3new17h47c5528f0340ffc8E
libstd-4e66027e5c9dd3e7.so:_ZN3std3sys4unix6thread6Thread4join17h5e45574bca336bf0E
libstd-4e66027e5c9dd3e7.so:_ZN3std3sys4unix6thread6Thread7into_id17h0a90151176be9494E
libstd-4e66027e5c9dd3e7.so:_ZN3std3sys4unix6thread6Thread8set_name17h097ef2f614d9829eE
libstd-4e66027e5c9dd3e7.so:_ZN3std3sys4unix7process13process_inner83_$LT$impl$u20$std..os..linux..process..ChildExt$u20$for$u20$std..process..Child$GT$10take_pidfd17hb186f8b8bd9a9847E
libstd-4e66027e5c9dd3e7.so:_ZN3std3sys4unix7process13process_inner83_$LT$impl$u20$std..os..linux..process..ChildExt$u20$for$u20$std..process..Child$GT$5pidfd17h5af2ca6eb8cd4afbE
libstd-4e66027e5c9dd3e7.so:_ZN3std3sys4unix7process14process_common7Command3arg17h759456750bebc54fE
libstd-4e66027e5c9dd3e7.so:_ZN3std3sys4unix7process14process_common7Command3cwd17h865209435d9ca893E
libstd-4e66027e5c9dd3e7.so:_ZN3std3sys4unix7process14process_common7Command3new17h1d1f730678257e72E
libstd-4e66027e5c9dd3e7.so:_ZN3std3sys4unix7process14process_common7Command5stdin17hb5589ecdda6cf749E
libstd-4e66027e5c9dd3e7.so:_ZN3std3sys4unix7process14process_common7Command6stderr17hb1d7b2992e553c3aE
libstd-4e66027e5c9dd3e7.so:_ZN3std3sys4unix7process14process_common7Command6stdout17h8186d989158958f1E
libstd-4e66027e5c9dd3e7.so:_ZN3std3sys4unix7process14process_common7Command7env_mut17h6fa3b0f815b83e04E
libstd-4e66027e5c9dd3e7.so:_ZN3std3sys4unix7process14process_common7Command8pre_exec17h16c1b031666dd211E
libstd-4e66027e5c9dd3e7.so:_ZN3std3sys4unix7process14process_common7Command9set_arg_017h874158d73863aa7bE
libstd-4e66027e5c9dd3e7.so:_ZN3std3sys6common5alloc16realloc_fallback17h71abb106c92da4e0E
libstd-4e66027e5c9dd3e7.so:_ZN3std4path10Components7as_path17hfd8915c4820886eaE
libstd-4e66027e5c9dd3e7.so:_ZN3std4path10Components8has_root17h2a80b11d34af4f6eE
libstd-4e66027e5c9dd3e7.so:_ZN3std4path117_$LT$impl$u20$core..convert..From$LT$$RF$std..path..Path$GT$$u20$for$u20$alloc..boxed..Box$LT$std..path..Path$GT$$GT$4from17h4ebf3d30bcf2123eE
libstd-4e66027e5c9dd3e7.so:_ZN3std4path12is_separator17h89457a49750d77fdE
libstd-4e66027e5c9dd3e7.so:_ZN3std4path18compare_components17h3c212fd3837ac928E
libstd-4e66027e5c9dd3e7.so:_ZN3std4path4Path10_ends_with17hf8a3eded17e2bf1dE
libstd-4e66027e5c9dd3e7.so:_ZN3std4path4Path10components17hd382626844392c30E
libstd-4e66027e5c9dd3e7.so:_ZN3std4path4Path10is_symlink17ha9883d773980b3afE
libstd-4e66027e5c9dd3e7.so:_ZN3std4path4Path11as_u8_slice17hf5038ebc918ce8a3E
libstd-4e66027e5c9dd3e7.so:_ZN3std4path4Path11file_prefix17h1e5c92cf20c6ab33E
libstd-4e66027e5c9dd3e7.so:_ZN3std4path4Path11is_absolute17h523d72852bdf713bE
libstd-4e66027e5c9dd3e7.so:_ZN3std4path4Path11to_path_buf17h6fb8b99bf4c1d801E
libstd-4e66027e5c9dd3e7.so:_ZN3std4path4Path12_starts_with17hdb1bb689e0e8570fE
libstd-4e66027e5c9dd3e7.so:_ZN3std4path4Path13_strip_prefix17hecf76065ab1306f9E
libstd-4e66027e5c9dd3e7.so:_ZN3std4path4Path13into_path_buf17hfa3fa802f574d6bbE
libstd-4e66027e5c9dd3e7.so:_ZN3std4path4Path14from_inner_mut17h52951a216c216901E
libstd-4e66027e5c9dd3e7.so:_ZN3std4path4Path15_with_extension17hfd1a03222c77863cE
libstd-4e66027e5c9dd3e7.so:_ZN3std4path4Path15_with_file_name17h220017beaff885bcE
libstd-4e66027e5c9dd3e7.so:_ZN3std4path4Path5_join17h406655de020c6448E
libstd-4e66027e5c9dd3e7.so:_ZN3std4path4Path6is_dir17ha3e9e7f6f8d1ebbaE
libstd-4e66027e5c9dd3e7.so:_ZN3std4path4Path6parent17ha5e342721ae4aac8E
libstd-4e66027e5c9dd3e7.so:_ZN3std4path4Path7is_file17h9acf82230f39b990E
libstd-4e66027e5c9dd3e7.so:_ZN3std4path4Path9extension17h2e4cdd452e9a552aE
libstd-4e66027e5c9dd3e7.so:_ZN3std4path4Path9file_name17h720ab8c2eb079f6cE
libstd-4e66027e5c9dd3e7.so:_ZN3std4path4Path9file_stem17h5834f457dea05ca0E
libstd-4e66027e5c9dd3e7.so:_ZN3std4path6Prefix3len10os_str_len17h62c0673b6762da96E
libstd-4e66027e5c9dd3e7.so:_ZN3std4path7PathBuf14_set_extension17h67635404c62f2fcaE
libstd-4e66027e5c9dd3e7.so:_ZN3std4path7PathBuf14_set_file_name17h8cbb6f1b9d3f0eeeE
libstd-4e66027e5c9dd3e7.so:_ZN3std4path7PathBuf3pop17h2020b81e62813897E
libstd-4e66027e5c9dd3e7.so:_ZN3std4path7PathBuf5_push17h08ce88325f7bd340E
libstd-4e66027e5c9dd3e7.so:_ZN3std4path9Component9as_os_str17ha64e58bc9f4ac063E
libstd-4e66027e5c9dd3e7.so:_ZN3std4sync4mpmc5utils7Backoff3new17h03333e1ddf06b8a1E
libstd-4e66027e5c9dd3e7.so:_ZN3std4sync4mpmc5waker17current_thread_id5DUMMY7__getit5__KEY17h3090bc2435081e10E
libstd-4e66027e5c9dd3e7.so:_ZN3std4sync4mpmc7context7Context3new17h1f745e9d740b455bE
libstd-4e66027e5c9dd3e7.so:_ZN3std4sync4mpmc7context7Context4with7CONTEXT7__getit5__KEY17h32cd7828a5a59458E
libstd-4e66027e5c9dd3e7.so:_ZN3std4sync7barrier17BarrierWaitResult9is_leader17h8f94119b37090e8dE
libstd-4e66027e5c9dd3e7.so:_ZN3std4sync7barrier7Barrier3new17hddcaebdd57b0fff9E
libstd-4e66027e5c9dd3e7.so:_ZN3std4sync7barrier7Barrier4wait17hc61e7322de9e9b89E
libstd-4e66027e5c9dd3e7.so:_ZN3std4sync7condvar17WaitTimeoutResult9timed_out17h71885c478b5a6cf4E
libstd-4e66027e5c9dd3e7.so:_ZN3std4sync7condvar7Condvar10notify_all17h78c894e8963527e6E
libstd-4e66027e5c9dd3e7.so:_ZN3std4sync7condvar7Condvar10notify_one17h9fc3f40510043ad2E
libstd-4e66027e5c9dd3e7.so:_ZN3std4time10SystemTime11checked_add17h7827013bc87dcebbE
libstd-4e66027e5c9dd3e7.so:_ZN3std4time10SystemTime11checked_sub17hacd872abc24eb30cE
libstd-4e66027e5c9dd3e7.so:_ZN3std4time10SystemTime14duration_since17h16fce00bb82a8892E
libstd-4e66027e5c9dd3e7.so:_ZN3std4time10SystemTime3now17hd713ba77237644fdE
libstd-4e66027e5c9dd3e7.so:_ZN3std4time10SystemTime7elapsed17hd6b5f3ac7935e2bdE
libstd-4e66027e5c9dd3e7.so:_ZN3std4time15SystemTimeError8duration17hb6c92990d114bd9cE
libstd-4e66027e5c9dd3e7.so:_ZN3std4time7Instant11checked_add17h6f7d12b96326ec9dE
libstd-4e66027e5c9dd3e7.so:_ZN3std4time7Instant11checked_sub17h731915c231b5ae1dE
libstd-4e66027e5c9dd3e7.so:_ZN3std4time7Instant14duration_since17h61acfa1e53de0605E
libstd-4e66027e5c9dd3e7.so:_ZN3std4time7Instant22checked_duration_since17h0ff18eb052e37c8dE
libstd-4e66027e5c9dd3e7.so:_ZN3std4time7Instant25saturating_duration_since17ha251b8e49c934182E
libstd-4e66027e5c9dd3e7.so:_ZN3std4time7Instant3now17hbac7abfdfa00eb1dE
libstd-4e66027e5c9dd3e7.so:_ZN3std4time7Instant7elapsed17haf355ba067f9ca97E
libstd-4e66027e5c9dd3e7.so:_ZN3std5alloc20set_alloc_error_hook17h0b3d19dab27786ffE
libstd-4e66027e5c9dd3e7.so:_ZN3std5alloc21take_alloc_error_hook17h9465fd64c7716ab4E
libstd-4e66027e5c9dd3e7.so:_ZN3std5alloc8rust_oom17h71873f58285d3a11E
libstd-4e66027e5c9dd3e7.so:_ZN3std5panic12always_abort17h4d0ae26b0bdc2109E
libstd-4e66027e5c9dd3e7.so:_ZN3std5panic13resume_unwind17hff606fbeadedf2feE
libstd-4e66027e5c9dd3e7.so:_ZN3std5panic19get_backtrace_style17h23a0297a4139b44dE
libstd-4e66027e5c9dd3e7.so:_ZN3std5panic19set_backtrace_style17hae9ea4450f8b5b6aE
libstd-4e66027e5c9dd3e7.so:_ZN3std6thread12park_timeout17h31b5ae8798ed6835E
libstd-4e66027e5c9dd3e7.so:_ZN3std6thread15park_timeout_ms17h9b3c764ffe8d75d7E
libstd-4e66027e5c9dd3e7.so:_ZN3std6thread21available_parallelism17h69bc76e640f943beE
libstd-4e66027e5c9dd3e7.so:_ZN3std6thread4park17h9a8818a7e2aa5762E
libstd-4e66027e5c9dd3e7.so:_ZN3std6thread5Inner6parker17h98d022b1a2f89371E
libstd-4e66027e5c9dd3e7.so:_ZN3std6thread5sleep17hf57fc967e4f325f1E
libstd-4e66027e5c9dd3e7.so:_ZN3std6thread6Thread2id17h3bbfbf77db175b9eE
libstd-4e66027e5c9dd3e7.so:_ZN3std6thread6Thread3new17h16c938ea42436cf5E
libstd-4e66027e5c9dd3e7.so:_ZN3std6thread6Thread4name17hab73e2eb2f623e60E
libstd-4e66027e5c9dd3e7.so:_ZN3std6thread6Thread5cname17h80d8acc62978ea63E
libstd-4e66027e5c9dd3e7.so:_ZN3std6thread6scoped9ScopeData29decrement_num_running_threads17h46d85fe6246ea86fE
libstd-4e66027e5c9dd3e7.so:_ZN3std6thread6scoped9ScopeData29increment_num_running_threads17hb878a754350a6909E
libstd-4e66027e5c9dd3e7.so:_ZN3std6thread7Builder10stack_size17h17ffea58d8878cfdE
libstd-4e66027e5c9dd3e7.so:_ZN3std6thread7Builder3new17h827df1daa677c041E
libstd-4e66027e5c9dd3e7.so:_ZN3std6thread7Builder4name17hd09f3f76603eb48dE
libstd-4e66027e5c9dd3e7.so:_ZN3std6thread7current17h49f05961d21f2ec2E
libstd-4e66027e5c9dd3e7.so:_ZN3std6thread8ThreadId6as_u6417h537e01a97898951dE
libstd-4e66027e5c9dd3e7.so:_ZN3std6thread8sleep_ms17hc36d2c07061de701E
libstd-4e66027e5c9dd3e7.so:_ZN3std6thread9yield_now17h90cf786fce3f50d4E
libstd-4e66027e5c9dd3e7.so:_ZN3std7process10ExitStatus4code17hb799f35c518434a3E
libstd-4e66027e5c9dd3e7.so:_ZN3std7process10ExitStatus7exit_ok17hf4fde60729c525c7E
libstd-4e66027e5c9dd3e7.so:_ZN3std7process10ExitStatus7success17h147320883660fa87E
libstd-4e66027e5c9dd3e7.so:_ZN3std7process15ExitStatusError11into_status17h1ba6b326b3cd6d25E
libstd-4e66027e5c9dd3e7.so:_ZN3std7process15ExitStatusError12code_nonzero17h033a0984b4820386E
libstd-4e66027e5c9dd3e7.so:_ZN3std7process15ExitStatusError4code17h60d981799f759f2eE
libstd-4e66027e5c9dd3e7.so:_ZN3std7process2id17h6c951bca15d7c868E
libstd-4e66027e5c9dd3e7.so:_ZN3std7process4exit17h9d501610ddb40acdE
libstd-4e66027e5c9dd3e7.so:_ZN3std7process5Child16wait_with_output17hda0d0219faddfc62E
libstd-4e66027e5c9dd3e7.so:_ZN3std7process5Child2id17hf64e9fdfd92b4ab8E
libstd-4e66027e5c9dd3e7.so:_ZN3std7process5Child4kill17hf7ed8f411e24f45dE
libstd-4e66027e5c9dd3e7.so:_ZN3std7process5Child4wait17h97d1b59529fa25e4E
libstd-4e66027e5c9dd3e7.so:_ZN3std7process5Child8try_wait17h0feb366f95689ca0E
libstd-4e66027e5c9dd3e7.so:_ZN3std7process5Stdio10makes_pipe17hdeb5600bb78aa86cE
libstd-4e66027e5c9dd3e7.so:_ZN3std7process5Stdio4null17h22c1cb8f5a5f84a7E
libstd-4e66027e5c9dd3e7.so:_ZN3std7process5Stdio5piped17had075bd9ed9a92e0E
libstd-4e66027e5c9dd3e7.so:_ZN3std7process5Stdio7inherit17h4568bc9e1ff7ffd3E
libstd-4e66027e5c9dd3e7.so:_ZN3std7process5abort17h5fe47cb1ba637c16E
libstd-4e66027e5c9dd3e7.so:_ZN3std7process7Command11get_program17ha704a0cc9b59444cE
libstd-4e66027e5c9dd3e7.so:_ZN3std7process7Command15get_current_dir17h432fded2705468d0E
libstd-4e66027e5c9dd3e7.so:_ZN3std7process7Command5spawn17haaf7ed4cc8660dd0E
libstd-4e66027e5c9dd3e7.so:_ZN3std7process7Command6output17hb0de1dbd487c35cbE
libstd-4e66027e5c9dd3e7.so:_ZN3std7process7Command6status17h1fd32da0fc96c9a2E
libstd-4e66027e5c9dd3e7.so:_ZN3std7process7Command8get_args17he880989f23de54d5E
libstd-4e66027e5c9dd3e7.so:_ZN3std7process7Command8get_envs17hcc32bdb34d72aae2E
libstd-4e66027e5c9dd3e7.so:_ZN3std7process7Command9env_clear17h82dd186a90934520E
libstd-4e66027e5c9dd3e7.so:_ZN3std7process8ExitCode12exit_process17hb4015c16f4ec659dE
libstd-4e66027e5c9dd3e7.so:_ZN3std9backtrace9Backtrace13force_capture17h9261de31dbe71ed5E
libstd-4e66027e5c9dd3e7.so:_ZN3std9backtrace9Backtrace6frames17hf060e970ec58b6ebE
libstd-4e66027e5c9dd3e7.so:_ZN3std9backtrace9Backtrace6status17h812255fb4e6c5642E
libstd-4e66027e5c9dd3e7.so:_ZN3std9backtrace9Backtrace7capture17h3639f5502c9a390aE
libstd-4e66027e5c9dd3e7.so:_ZN3std9backtrace9Backtrace8disabled17h1936b11862108465E
libstd-4e66027e5c9dd3e7.so:_ZN3std9panicking11panic_count16set_always_abort17h47232f4d450f411aE
libstd-4e66027e5c9dd3e7.so:_ZN3std9panicking11panic_count17is_zero_slow_path17h01fc11a420c69c7eE
libstd-4e66027e5c9dd3e7.so:_ZN3std9panicking11panic_count18GLOBAL_PANIC_COUNT17hfb1b14facf0b9530E
libstd-4e66027e5c9dd3e7.so:_ZN3std9panicking11panic_count8decrease17hef02c714e9f2de63E
libstd-4e66027e5c9dd3e7.so:_ZN3std9panicking11panic_count8increase17hd88d95808a590e1eE
libstd-4e66027e5c9dd3e7.so:_ZN3std9panicking11panic_count9get_count17h57b6918248899f5fE
libstd-4e66027e5c9dd3e7.so:_ZN3std9panicking12default_hook17h210b7b8d55c3f9f5E
libstd-4e66027e5c9dd3e7.so:_ZN3std9panicking20rust_panic_with_hook17h25ac9528088fd076E
libstd-4e66027e5c9dd3e7.so:_ZN3std9panicking3try7cleanup17h84de480f35c7b656E
libstd-4e66027e5c9dd3e7.so:_ZN3std9panicking4HOOK17hc1dfdacac8df3845E
libstd-4e66027e5c9dd3e7.so:_ZN3std9panicking8set_hook17hddc94659aecbf999E
libstd-4e66027e5c9dd3e7.so:_ZN3std9panicking9take_hook17h29bd403224d201acE
libstd-4e66027e5c9dd3e7.so:_ZN40_$LT$str$u20$as$u20$core..fmt..Debug$GT$3fmt17h95cdfca9f9408b8bE
libstd-4e66027e5c9dd3e7.so:_ZN41_$LT$char$u20$as$u20$core..fmt..Debug$GT$3fmt17he3d40b3eeda5fbcbE
libstd-4e66027e5c9dd3e7.so:_ZN42_$LT$$u21$$u20$as$u20$core..fmt..Debug$GT$3fmt17h971c519d6a17b62bE
libstd-4e66027e5c9dd3e7.so:_ZN42_$LT$str$u20$as$u20$core..fmt..Display$GT$3fmt17h331c40258d31c7bbE
libstd-4e66027e5c9dd3e7.so:_ZN43_$LT$bool$u20$as$u20$core..fmt..Display$GT$3fmt17hba055a408d874678E
libstd-4e66027e5c9dd3e7.so:_ZN43_$LT$char$u20$as$u20$core..fmt..Display$GT$3fmt17hb84a3a183b28ac0fE
libstd-4e66027e5c9dd3e7.so:_ZN44_$LT$$u21$$u20$as$u20$core..fmt..Display$GT$3fmt17h3164986936e67b79E
libstd-4e66027e5c9dd3e7.so:_ZN47_$LT$std..fs..File$u20$as$u20$std..io..Read$GT$11read_to_end17h57bb0b487f621ff3E
libstd-4e66027e5c9dd3e7.so:_ZN47_$LT$std..fs..File$u20$as$u20$std..io..Read$GT$13read_vectored17h47c56b773541be36E
libstd-4e66027e5c9dd3e7.so:_ZN47_$LT$std..fs..File$u20$as$u20$std..io..Read$GT$14read_to_string17h33d338c378fa3417E
libstd-4e66027e5c9dd3e7.so:_ZN47_$LT$std..fs..File$u20$as$u20$std..io..Read$GT$4read17hf46d37a07b76bc0dE
libstd-4e66027e5c9dd3e7.so:_ZN47_$LT$std..fs..File$u20$as$u20$std..io..Read$GT$8read_buf17hb8e140834707ea45E
libstd-4e66027e5c9dd3e7.so:_ZN47_$LT$std..fs..File$u20$as$u20$std..io..Seek$GT$4seek17h69363dda4b5c2a76E
libstd-4e66027e5c9dd3e7.so:_ZN48_$LT$std..fs..File$u20$as$u20$std..io..Write$GT$14write_vectored17he1518bd6fa878e34E
libstd-4e66027e5c9dd3e7.so:_ZN48_$LT$std..fs..File$u20$as$u20$std..io..Write$GT$5flush17hf82af3861fbb1affE
libstd-4e66027e5c9dd3e7.so:_ZN48_$LT$std..fs..File$u20$as$u20$std..io..Write$GT$5write17h615fb3a78ae041d7E
libstd-4e66027e5c9dd3e7.so:_ZN49_$LT$i8$u20$as$u20$core..fmt..num..DisplayInt$GT$4zero17h50c74e4ec2eb1ee2E
libstd-4e66027e5c9dd3e7.so:_ZN49_$LT$i8$u20$as$u20$core..fmt..num..DisplayInt$GT$5to_u817h0fbae94cb1e8a1ffE
libstd-4e66027e5c9dd3e7.so:_ZN49_$LT$i8$u20$as$u20$core..fmt..num..DisplayInt$GT$6to_u1617hd66f3290994081fdE
libstd-4e66027e5c9dd3e7.so:_ZN49_$LT$i8$u20$as$u20$core..fmt..num..DisplayInt$GT$6to_u3217hc8b2144b82fad5a4E
libstd-4e66027e5c9dd3e7.so:_ZN49_$LT$i8$u20$as$u20$core..fmt..num..DisplayInt$GT$6to_u6417hd4875a6e1afec8e0E
libstd-4e66027e5c9dd3e7.so:_ZN49_$LT$i8$u20$as$u20$core..fmt..num..DisplayInt$GT$7from_u817h37a58fbbec95db31E
libstd-4e66027e5c9dd3e7.so:_ZN49_$LT$i8$u20$as$u20$core..fmt..num..DisplayInt$GT$7to_u12817h97cdaa4e049e5f98E
libstd-4e66027e5c9dd3e7.so:_ZN49_$LT$i8$u20$as$u20$std..sys..unix..IsMinusOne$GT$12is_minus_one17h89fa24d461109478E
libstd-4e66027e5c9dd3e7.so:_ZN49_$LT$u8$u20$as$u20$core..fmt..num..DisplayInt$GT$4zero17hef13469b2c8f40f6E
libstd-4e66027e5c9dd3e7.so:_ZN49_$LT$u8$u20$as$u20$core..fmt..num..DisplayInt$GT$5to_u817he0c6fba0c39e14c9E
libstd-4e66027e5c9dd3e7.so:_ZN49_$LT$u8$u20$as$u20$core..fmt..num..DisplayInt$GT$6to_u1617hef4591a9057fab62E
libstd-4e66027e5c9dd3e7.so:_ZN49_$LT$u8$u20$as$u20$core..fmt..num..DisplayInt$GT$6to_u3217hd05f058bd5476b71E
libstd-4e66027e5c9dd3e7.so:_ZN49_$LT$u8$u20$as$u20$core..fmt..num..DisplayInt$GT$6to_u6417hdc5aba8d981f42e3E
libstd-4e66027e5c9dd3e7.so:_ZN49_$LT$u8$u20$as$u20$core..fmt..num..DisplayInt$GT$7from_u817h9570b3aa0778a96cE
libstd-4e66027e5c9dd3e7.so:_ZN49_$LT$u8$u20$as$u20$core..fmt..num..DisplayInt$GT$7to_u12817hb4c1b83891174accE
libstd-4e66027e5c9dd3e7.so:_ZN49_$LT$u8$u20$as$u20$core..num..bignum..FullOps$GT$12full_div_rem17hb7c1e79f5af73722E
libstd-4e66027e5c9dd3e7.so:_ZN49_$LT$u8$u20$as$u20$core..num..bignum..FullOps$GT$12full_mul_add17he6b4a9cc38e6617eE
libstd-4e66027e5c9dd3e7.so:_ZN4core10intrinsics3mir11Unreachable17ha2e1a41f6563ed4fE
libstd-4e66027e5c9dd3e7.so:_ZN4core10intrinsics3mir4Goto17h405f8f2b2a6f41ecE
libstd-4e66027e5c9dd3e7.so:_ZN4core10intrinsics3mir6Return17h53493c4660ceba31E
libstd-4e66027e5c9dd3e7.so:_ZN4core3any6Demand3new17h4c541907784ac3faE
libstd-4e66027e5c9dd3e7.so:_ZN4core3cmp5impls50_$LT$impl$u20$core..cmp..Ord$u20$for$u20$$u21$$GT$3cmp17h177ec145dc80cdedE
libstd-4e66027e5c9dd3e7.so:_ZN4core3cmp5impls56_$LT$impl$u20$core..cmp..PartialEq$u20$for$u20$$u21$$GT$2eq17h65f16a73fc193102E
libstd-4e66027e5c9dd3e7.so:_ZN4core3cmp5impls57_$LT$impl$u20$core..cmp..PartialOrd$u20$for$u20$$u21$$GT$11partial_cmp17h5f5476924590ead0E
libstd-4e66027e5c9dd3e7.so:_ZN4core3f3221_$LT$impl$u20$f32$GT$13classify_bits17h2ab71573a976efc0E
libstd-4e66027e5c9dd3e7.so:_ZN4core3f3221_$LT$impl$u20$f32$GT$16partial_classify17h22d46677e3fa7256E
libstd-4e66027e5c9dd3e7.so:_ZN4core3f3221_$LT$impl$u20$f32$GT$7next_up17hfb72499cdb017b77E
libstd-4e66027e5c9dd3e7.so:_ZN4core3f3221_$LT$impl$u20$f32$GT$7to_bits13ct_f32_to_u3217hcd4fa92bfb004560E
libstd-4e66027e5c9dd3e7.so:_ZN4core3f3221_$LT$impl$u20$f32$GT$8classify17h5de45bd4c3b68bd6E
libstd-4e66027e5c9dd3e7.so:_ZN4core3f3221_$LT$impl$u20$f32$GT$9from_bits13ct_u32_to_f3217hfd14b52fd984be4dE
libstd-4e66027e5c9dd3e7.so:_ZN4core3f3221_$LT$impl$u20$f32$GT$9next_down17h3a65b9f592fc79d2E
libstd-4e66027e5c9dd3e7.so:_ZN4core3f6421_$LT$impl$u20$f64$GT$13classify_bits17h585b7547dd573ba3E
libstd-4e66027e5c9dd3e7.so:_ZN4core3f6421_$LT$impl$u20$f64$GT$16partial_classify17h8285c06ab93adecbE
libstd-4e66027e5c9dd3e7.so:_ZN4core3f6421_$LT$impl$u20$f64$GT$7next_up17h4b89c3bb6e9b8983E
libstd-4e66027e5c9dd3e7.so:_ZN4core3f6421_$LT$impl$u20$f64$GT$7to_bits13ct_f64_to_u6417hd99069245c1f05bdE
libstd-4e66027e5c9dd3e7.so:_ZN4core3f6421_$LT$impl$u20$f64$GT$8classify17h7b4bd2c13bd214d7E
libstd-4e66027e5c9dd3e7.so:_ZN4core3f6421_$LT$impl$u20$f64$GT$9from_bits13ct_u64_to_f6417h2da3756aa90110cfE
libstd-4e66027e5c9dd3e7.so:_ZN4core3f6421_$LT$impl$u20$f64$GT$9next_down17h5cc1f89d9a407c2eE
libstd-4e66027e5c9dd3e7.so:_ZN4core3ffi5c_str21FromBytesWithNulError12interior_nul17hcd6fc078a11d1631E
libstd-4e66027e5c9dd3e7.so:_ZN4core3ffi5c_str21FromBytesWithNulError13__description17hd4f9ee2c43651f9aE
libstd-4e66027e5c9dd3e7.so:_ZN4core3ffi5c_str21FromBytesWithNulError18not_nul_terminated17h6db2ca22829e65faE
libstd-4e66027e5c9dd3e7.so:_ZN4core3ffi5c_str4CStr19from_bytes_with_nul17h60814b35432d5667E
libstd-4e66027e5c9dd3e7.so:_ZN4core3ffi5c_str4CStr20from_bytes_until_nul17h14f66f7217112d00E
libstd-4e66027e5c9dd3e7.so:_ZN4core3ffi5c_str4CStr29from_bytes_with_nul_unchecked10const_impl17hb4d4200e439fef23E
libstd-4e66027e5c9dd3e7.so:_ZN4core3ffi5c_str4CStr6to_str17h1133ca13a816e106E
libstd-4e66027e5c9dd3e7.so:_ZN4core3ffi5c_str4CStr8from_ptr9strlen_ct17hb4222cbb2e0d01b8E
libstd-4e66027e5c9dd3e7.so:_ZN4core3ffi5c_str4CStr8from_ptr9strlen_rt17hf8e6b65c88317f25E
libstd-4e66027e5c9dd3e7.so:_ZN4core3fmt10ArgumentV110from_usize17h40bcb8d9136f00c2E
libstd-4e66027e5c9dd3e7.so:_ZN4core3fmt12USIZE_MARKER17h2175e01053d2f2dbE
libstd-4e66027e5c9dd3e7.so:_ZN4core3fmt17pointer_fmt_inner17h1f13a0ca519afbb1E
libstd-4e66027e5c9dd3e7.so:_ZN4core3fmt3num3imp51_$LT$impl$u20$core..fmt..Display$u20$for$u20$i8$GT$3fmt17h8d2c5180c46b4bb5E
libstd-4e66027e5c9dd3e7.so:_ZN4core3fmt3num3imp51_$LT$impl$u20$core..fmt..Display$u20$for$u20$u8$GT$3fmt17hcefc117924efb0d3E
libstd-4e66027e5c9dd3e7.so:_ZN4core3fmt3num3imp52_$LT$impl$u20$core..fmt..Display$u20$for$u20$i16$GT$3fmt17hfc3ea32c6bf46f8eE
libstd-4e66027e5c9dd3e7.so:_ZN4core3fmt3num3imp52_$LT$impl$u20$core..fmt..Display$u20$for$u20$i32$GT$3fmt17h9ff799ec5001289fE
libstd-4e66027e5c9dd3e7.so:_ZN4core3fmt3num3imp52_$LT$impl$u20$core..fmt..Display$u20$for$u20$i64$GT$3fmt17hb66bf684a009be3bE
libstd-4e66027e5c9dd3e7.so:_ZN4core3fmt3num3imp52_$LT$impl$u20$core..fmt..Display$u20$for$u20$u16$GT$3fmt17hd95935f59c0bfc52E
libstd-4e66027e5c9dd3e7.so:_ZN4core3fmt3num3imp52_$LT$impl$u20$core..fmt..Display$u20$for$u20$u32$GT$3fmt17h4e6023f138b1fae3E
libstd-4e66027e5c9dd3e7.so:_ZN4core3fmt3num3imp52_$LT$impl$u20$core..fmt..Display$u20$for$u20$u64$GT$3fmt17hd62378816fd5d2acE
libstd-4e66027e5c9dd3e7.so:_ZN4core3fmt3num3imp52_$LT$impl$u20$core..fmt..LowerExp$u20$for$u20$i8$GT$3fmt17he2f68e20a57efb92E
libstd-4e66027e5c9dd3e7.so:_ZN4core3fmt3num3imp52_$LT$impl$u20$core..fmt..LowerExp$u20$for$u20$u8$GT$3fmt17h26d01a364928735dE
libstd-4e66027e5c9dd3e7.so:_ZN4core3fmt3num3imp52_$LT$impl$u20$core..fmt..UpperExp$u20$for$u20$i8$GT$3fmt17hd7fc099970c01386E
libstd-4e66027e5c9dd3e7.so:_ZN4core3fmt3num3imp52_$LT$impl$u20$core..fmt..UpperExp$u20$for$u20$u8$GT$3fmt17ha2f74740def623baE
libstd-4e66027e5c9dd3e7.so:_ZN4core3fmt3num3imp53_$LT$impl$u20$core..fmt..LowerExp$u20$for$u20$i16$GT$3fmt17h3ca5d29ee77d5ba2E
libstd-4e66027e5c9dd3e7.so:_ZN4core3fmt3num3imp53_$LT$impl$u20$core..fmt..LowerExp$u20$for$u20$i32$GT$3fmt17hb064b5ae82d6f487E
libstd-4e66027e5c9dd3e7.so:_ZN4core3fmt3num3imp53_$LT$impl$u20$core..fmt..LowerExp$u20$for$u20$i64$GT$3fmt17h972d8900724a12d4E
libstd-4e66027e5c9dd3e7.so:_ZN4core3fmt3num3imp53_$LT$impl$u20$core..fmt..LowerExp$u20$for$u20$u16$GT$3fmt17hf208389a423ea95dE
libstd-4e66027e5c9dd3e7.so:_ZN4core3fmt3num3imp53_$LT$impl$u20$core..fmt..LowerExp$u20$for$u20$u32$GT$3fmt17h20b7f84168d1eea6E
libstd-4e66027e5c9dd3e7.so:_ZN4core3fmt3num3imp53_$LT$impl$u20$core..fmt..LowerExp$u20$for$u20$u64$GT$3fmt17hf7bc3518679b3db8E
libstd-4e66027e5c9dd3e7.so:_ZN4core3fmt3num3imp53_$LT$impl$u20$core..fmt..UpperExp$u20$for$u20$i16$GT$3fmt17hc9212ae617f62258E
libstd-4e66027e5c9dd3e7.so:_ZN4core3fmt3num3imp53_$LT$impl$u20$core..fmt..UpperExp$u20$for$u20$i32$GT$3fmt17hc0cdec7a64b1a3beE
libstd-4e66027e5c9dd3e7.so:_ZN4core3fmt3num3imp53_$LT$impl$u20$core..fmt..UpperExp$u20$for$u20$i64$GT$3fmt17ha16d5e775dc2176bE
libstd-4e66027e5c9dd3e7.so:_ZN4core3fmt3num3imp53_$LT$impl$u20$core..fmt..UpperExp$u20$for$u20$u16$GT$3fmt17h01da688c6d308a9fE
libstd-4e66027e5c9dd3e7.so:_ZN4core3fmt3num3imp53_$LT$impl$u20$core..fmt..UpperExp$u20$for$u20$u32$GT$3fmt17h79ddf5c64a861735E
libstd-4e66027e5c9dd3e7.so:_ZN4core3fmt3num3imp53_$LT$impl$u20$core..fmt..UpperExp$u20$for$u20$u64$GT$3fmt17h82ed3fd14968ed69E
libstd-4e66027e5c9dd3e7.so:_ZN4core3fmt3num3imp54_$LT$impl$u20$core..fmt..Display$u20$for$u20$isize$GT$3fmt17hb02b57357522131fE
libstd-4e66027e5c9dd3e7.so:_ZN4core3fmt3num3imp54_$LT$impl$u20$core..fmt..Display$u20$for$u20$usize$GT$3fmt17ha862ddc62e4078d2E
libstd-4e66027e5c9dd3e7.so:_ZN4core3fmt3num3imp55_$LT$impl$u20$core..fmt..LowerExp$u20$for$u20$isize$GT$3fmt17hdd7c874ff23f4c0fE
libstd-4e66027e5c9dd3e7.so:_ZN4core3fmt3num3imp55_$LT$impl$u20$core..fmt..LowerExp$u20$for$u20$usize$GT$3fmt17hd7075aa83a116d1cE
libstd-4e66027e5c9dd3e7.so:_ZN4core3fmt3num3imp55_$LT$impl$u20$core..fmt..UpperExp$u20$for$u20$isize$GT$3fmt17hec9a393144b2a0c2E
libstd-4e66027e5c9dd3e7.so:_ZN4core3fmt3num3imp55_$LT$impl$u20$core..fmt..UpperExp$u20$for$u20$usize$GT$3fmt17h4299f159a06246e1E
libstd-4e66027e5c9dd3e7.so:_ZN4core3fmt3num49_$LT$impl$u20$core..fmt..Octal$u20$for$u20$i8$GT$3fmt17h62f0e64a074da2eaE
libstd-4e66027e5c9dd3e7.so:_ZN4core3fmt3num49_$LT$impl$u20$core..fmt..Octal$u20$for$u20$u8$GT$3fmt17h81329641155bd5cbE
libstd-4e66027e5c9dd3e7.so:_ZN4core3fmt3num50_$LT$impl$u20$core..fmt..Binary$u20$for$u20$i8$GT$3fmt17h9c208d0b9554b4e6E
libstd-4e66027e5c9dd3e7.so:_ZN4core3fmt3num50_$LT$impl$u20$core..fmt..Binary$u20$for$u20$u8$GT$3fmt17hf9f977d00d330d5dE
libstd-4e66027e5c9dd3e7.so:_ZN4core3fmt3num50_$LT$impl$u20$core..fmt..Octal$u20$for$u20$i16$GT$3fmt17h72413020bb29495dE
libstd-4e66027e5c9dd3e7.so:_ZN4core3fmt3num50_$LT$impl$u20$core..fmt..Octal$u20$for$u20$i32$GT$3fmt17h43aea30fe51494cbE
libstd-4e66027e5c9dd3e7.so:_ZN4core3fmt3num50_$LT$impl$u20$core..fmt..Octal$u20$for$u20$i64$GT$3fmt17h4ba73e6135e2129bE
libstd-4e66027e5c9dd3e7.so:_ZN4core3fmt3num50_$LT$impl$u20$core..fmt..Octal$u20$for$u20$u16$GT$3fmt17h970447db9fdc699dE
libstd-4e66027e5c9dd3e7.so:_ZN4core3fmt3num50_$LT$impl$u20$core..fmt..Octal$u20$for$u20$u32$GT$3fmt17h7a448aa6b8dfbf29E
libstd-4e66027e5c9dd3e7.so:_ZN4core3fmt3num50_$LT$impl$u20$core..fmt..Octal$u20$for$u20$u64$GT$3fmt17h26324babea768fecE
libstd-4e66027e5c9dd3e7.so:_ZN4core3fmt3num51_$LT$impl$u20$core..fmt..Binary$u20$for$u20$i16$GT$3fmt17h6f196bfaf9fe93ffE
libstd-4e66027e5c9dd3e7.so:_ZN4core3fmt3num51_$LT$impl$u20$core..fmt..Binary$u20$for$u20$i32$GT$3fmt17hec0028d813b02082E
libstd-4e66027e5c9dd3e7.so:_ZN4core3fmt3num51_$LT$impl$u20$core..fmt..Binary$u20$for$u20$i64$GT$3fmt17h5ba496e66c2944b9E
libstd-4e66027e5c9dd3e7.so:_ZN4core3fmt3num51_$LT$impl$u20$core..fmt..Binary$u20$for$u20$u16$GT$3fmt17h6a484a4fedeb2811E
libstd-4e66027e5c9dd3e7.so:_ZN4core3fmt3num51_$LT$impl$u20$core..fmt..Binary$u20$for$u20$u32$GT$3fmt17he11de54435e90bf3E
libstd-4e66027e5c9dd3e7.so:_ZN4core3fmt3num51_$LT$impl$u20$core..fmt..Binary$u20$for$u20$u64$GT$3fmt17hd18f14fefdf539e7E
libstd-4e66027e5c9dd3e7.so:_ZN4core3fmt3num51_$LT$impl$u20$core..fmt..Octal$u20$for$u20$i128$GT$3fmt17ha13a876c3587c983E
libstd-4e66027e5c9dd3e7.so:_ZN4core3fmt3num51_$LT$impl$u20$core..fmt..Octal$u20$for$u20$u128$GT$3fmt17h85840762d46183dfE
libstd-4e66027e5c9dd3e7.so:_ZN4core3fmt3num52_$LT$impl$u20$core..fmt..Binary$u20$for$u20$i128$GT$3fmt17hc05c2b8f71872786E
libstd-4e66027e5c9dd3e7.so:_ZN4core3fmt3num52_$LT$impl$u20$core..fmt..Binary$u20$for$u20$u128$GT$3fmt17h9cad3393d9d3eb9eE
libstd-4e66027e5c9dd3e7.so:_ZN4core3fmt3num52_$LT$impl$u20$core..fmt..LowerHex$u20$for$u20$i8$GT$3fmt17h23d79fc7ebc34d6dE
libstd-4e66027e5c9dd3e7.so:_ZN4core3fmt3num52_$LT$impl$u20$core..fmt..LowerHex$u20$for$u20$u8$GT$3fmt17h5d744520653fe8a3E
libstd-4e66027e5c9dd3e7.so:_ZN4core3fmt3num52_$LT$impl$u20$core..fmt..Octal$u20$for$u20$isize$GT$3fmt17hfa5258f6bed10570E
libstd-4e66027e5c9dd3e7.so:_ZN4core3fmt3num52_$LT$impl$u20$core..fmt..Octal$u20$for$u20$usize$GT$3fmt17hb1db0d8b7f6353caE
libstd-4e66027e5c9dd3e7.so:_ZN4core3fmt3num52_$LT$impl$u20$core..fmt..UpperHex$u20$for$u20$i8$GT$3fmt17h6168f5b83f0b5d1cE
libstd-4e66027e5c9dd3e7.so:_ZN4core3fmt3num52_$LT$impl$u20$core..fmt..UpperHex$u20$for$u20$u8$GT$3fmt17hbfe10bcb1a6dc5a8E
libstd-4e66027e5c9dd3e7.so:_ZN4core3fmt3num53_$LT$impl$u20$core..fmt..Binary$u20$for$u20$isize$GT$3fmt17h519984be023b863fE
libstd-4e66027e5c9dd3e7.so:_ZN4core3fmt3num53_$LT$impl$u20$core..fmt..Binary$u20$for$u20$usize$GT$3fmt17h8ea274797b3c3d5eE
libstd-4e66027e5c9dd3e7.so:_ZN4core3fmt3num53_$LT$impl$u20$core..fmt..Display$u20$for$u20$i128$GT$3fmt17h42caf3e0f9c7cf4eE
libstd-4e66027e5c9dd3e7.so:_ZN4core3fmt3num53_$LT$impl$u20$core..fmt..Display$u20$for$u20$u128$GT$3fmt17h08b4ac28fe7f6bc0E
libstd-4e66027e5c9dd3e7.so:_ZN4core3fmt3num53_$LT$impl$u20$core..fmt..LowerHex$u20$for$u20$i16$GT$3fmt17h4913bef68067c654E
libstd-4e66027e5c9dd3e7.so:_ZN4core3fmt3num53_$LT$impl$u20$core..fmt..LowerHex$u20$for$u20$i32$GT$3fmt17h4f1c444e6d907908E
libstd-4e66027e5c9dd3e7.so:_ZN4core3fmt3num53_$LT$impl$u20$core..fmt..LowerHex$u20$for$u20$i64$GT$3fmt17h6c811dffa0e5806dE
libstd-4e66027e5c9dd3e7.so:_ZN4core3fmt3num53_$LT$impl$u20$core..fmt..LowerHex$u20$for$u20$u16$GT$3fmt17h470af655c8b7d295E
libstd-4e66027e5c9dd3e7.so:_ZN4core3fmt3num53_$LT$impl$u20$core..fmt..LowerHex$u20$for$u20$u32$GT$3fmt17h0b027ff6ed144224E
libstd-4e66027e5c9dd3e7.so:_ZN4core3fmt3num53_$LT$impl$u20$core..fmt..LowerHex$u20$for$u20$u64$GT$3fmt17h160f060019ac93c8E
libstd-4e66027e5c9dd3e7.so:_ZN4core3fmt3num53_$LT$impl$u20$core..fmt..UpperHex$u20$for$u20$i16$GT$3fmt17h3de4893a0612c856E
libstd-4e66027e5c9dd3e7.so:_ZN4core3fmt3num53_$LT$impl$u20$core..fmt..UpperHex$u20$for$u20$i32$GT$3fmt17h7e2dd9c11b8fb7deE
libstd-4e66027e5c9dd3e7.so:_ZN4core3fmt3num53_$LT$impl$u20$core..fmt..UpperHex$u20$for$u20$i64$GT$3fmt17h055ea095a7e87138E
libstd-4e66027e5c9dd3e7.so:_ZN4core3fmt3num53_$LT$impl$u20$core..fmt..UpperHex$u20$for$u20$u16$GT$3fmt17hb2a90a4af143021dE
libstd-4e66027e5c9dd3e7.so:_ZN4core3fmt3num53_$LT$impl$u20$core..fmt..UpperHex$u20$for$u20$u32$GT$3fmt17h17b022310476f8f5E
libstd-4e66027e5c9dd3e7.so:_ZN4core3fmt3num53_$LT$impl$u20$core..fmt..UpperHex$u20$for$u20$u64$GT$3fmt17ha4f5a4d60588a01eE
libstd-4e66027e5c9dd3e7.so:_ZN4core3fmt3num54_$LT$impl$u20$core..fmt..LowerExp$u20$for$u20$i128$GT$3fmt17h250f60874684649cE
libstd-4e66027e5c9dd3e7.so:_ZN4core3fmt3num54_$LT$impl$u20$core..fmt..LowerExp$u20$for$u20$u128$GT$3fmt17hc88da2c87bb9ec1eE
libstd-4e66027e5c9dd3e7.so:_ZN4core3fmt3num54_$LT$impl$u20$core..fmt..LowerHex$u20$for$u20$i128$GT$3fmt17ha381add2ecbb7fd9E
libstd-4e66027e5c9dd3e7.so:_ZN4core3fmt3num54_$LT$impl$u20$core..fmt..LowerHex$u20$for$u20$u128$GT$3fmt17hcf0463bd999bc6dfE
libstd-4e66027e5c9dd3e7.so:_ZN4core3fmt3num54_$LT$impl$u20$core..fmt..UpperExp$u20$for$u20$i128$GT$3fmt17h1eeef2bca31e1ae4E
libstd-4e66027e5c9dd3e7.so:_ZN4core3fmt3num54_$LT$impl$u20$core..fmt..UpperExp$u20$for$u20$u128$GT$3fmt17h0a5ee56a2d1f611eE
libstd-4e66027e5c9dd3e7.so:_ZN4core3fmt3num54_$LT$impl$u20$core..fmt..UpperHex$u20$for$u20$i128$GT$3fmt17h5e1f760915a0f7d3E
libstd-4e66027e5c9dd3e7.so:_ZN4core3fmt3num54_$LT$impl$u20$core..fmt..UpperHex$u20$for$u20$u128$GT$3fmt17h6edea36043578ca5E
libstd-4e66027e5c9dd3e7.so:_ZN4core3fmt3num55_$LT$impl$u20$core..fmt..LowerHex$u20$for$u20$isize$GT$3fmt17h59171424d158ac41E
libstd-4e66027e5c9dd3e7.so:_ZN4core3fmt3num55_$LT$impl$u20$core..fmt..LowerHex$u20$for$u20$usize$GT$3fmt17hb63af6876249a846E
libstd-4e66027e5c9dd3e7.so:_ZN4core3fmt3num55_$LT$impl$u20$core..fmt..UpperHex$u20$for$u20$isize$GT$3fmt17h58337e614575f40fE
libstd-4e66027e5c9dd3e7.so:_ZN4core3fmt3num55_$LT$impl$u20$core..fmt..UpperHex$u20$for$u20$usize$GT$3fmt17hb3bdc75e0e5aa061E
libstd-4e66027e5c9dd3e7.so:_ZN4core3fmt5float50_$LT$impl$u20$core..fmt..Debug$u20$for$u20$f32$GT$3fmt17h5b71b7650e8b11dfE
libstd-4e66027e5c9dd3e7.so:_ZN4core3fmt5float50_$LT$impl$u20$core..fmt..Debug$u20$for$u20$f64$GT$3fmt17h252c1126bfdde534E
libstd-4e66027e5c9dd3e7.so:_ZN4core3fmt5float52_$LT$impl$u20$core..fmt..Display$u20$for$u20$f32$GT$3fmt17h114e41e8070a6dd5E
libstd-4e66027e5c9dd3e7.so:_ZN4core3fmt5float52_$LT$impl$u20$core..fmt..Display$u20$for$u20$f64$GT$3fmt17hc2296ad1d747971dE
libstd-4e66027e5c9dd3e7.so:_ZN4core3fmt5float53_$LT$impl$u20$core..fmt..LowerExp$u20$for$u20$f32$GT$3fmt17hcd708fe5d80c2f3dE
libstd-4e66027e5c9dd3e7.so:_ZN4core3fmt5float53_$LT$impl$u20$core..fmt..LowerExp$u20$for$u20$f64$GT$3fmt17h3afee0ff287e5dcaE
libstd-4e66027e5c9dd3e7.so:_ZN4core3fmt5float53_$LT$impl$u20$core..fmt..UpperExp$u20$for$u20$f32$GT$3fmt17h9526a7dc36bc5c1aE
libstd-4e66027e5c9dd3e7.so:_ZN4core3fmt5float53_$LT$impl$u20$core..fmt..UpperExp$u20$for$u20$f64$GT$3fmt17hce53581322e5c442E
libstd-4e66027e5c9dd3e7.so:_ZN4core3fmt5write17hf82854b3617bfd21E
libstd-4e66027e5c9dd3e7.so:_ZN4core3fmt8builders10DebugTuple5field17h548795f7d583088bE
libstd-4e66027e5c9dd3e7.so:_ZN4core3fmt8builders10DebugTuple6finish17hbe8027663cee1671E
libstd-4e66027e5c9dd3e7.so:_ZN4core3fmt8builders11DebugStruct21finish_non_exhaustive17ha945526d616c2916E
libstd-4e66027e5c9dd3e7.so:_ZN4core3fmt8builders11DebugStruct5field17hb281d4001f4071ccE
libstd-4e66027e5c9dd3e7.so:_ZN4core3fmt8builders11DebugStruct6finish17h20d7f8752f9a4c2cE
libstd-4e66027e5c9dd3e7.so:_ZN4core3fmt8builders8DebugMap3key17hb2f6de176b696372E
libstd-4e66027e5c9dd3e7.so:_ZN4core3fmt8builders8DebugMap5entry17hfa99fcd7d7b7ffbcE
libstd-4e66027e5c9dd3e7.so:_ZN4core3fmt8builders8DebugMap5value17hac68e662d3cc7988E
libstd-4e66027e5c9dd3e7.so:_ZN4core3fmt8builders8DebugMap6finish17h496e32d887a698b6E
libstd-4e66027e5c9dd3e7.so:_ZN4core3fmt8builders8DebugSet5entry17h2967d5a925d7135eE
libstd-4e66027e5c9dd3e7.so:_ZN4core3fmt8builders8DebugSet6finish17h6d485b3971abf1e1E
libstd-4e66027e5c9dd3e7.so:_ZN4core3fmt8builders9DebugList5entry17h8e8dae68bef02148E
libstd-4e66027e5c9dd3e7.so:_ZN4core3fmt8builders9DebugList6finish17h963ada1d281a0c27E
libstd-4e66027e5c9dd3e7.so:_ZN4core3fmt9Formatter10debug_list17hb0cb150ea28d1da4E
libstd-4e66027e5c9dd3e7.so:_ZN4core3fmt9Formatter10sign_minus17h0cdf97762b8e0668E
libstd-4e66027e5c9dd3e7.so:_ZN4core3fmt9Formatter11debug_tuple17hb4c144cb24418266E
libstd-4e66027e5c9dd3e7.so:_ZN4core3fmt9Formatter12debug_struct17h48d125a998468891E
libstd-4e66027e5c9dd3e7.so:_ZN4core3fmt9Formatter12pad_integral17h6a210b7455ede775E
libstd-4e66027e5c9dd3e7.so:_ZN4core3fmt9Formatter15debug_lower_hex17hdb75c5f2dc2f0195E
libstd-4e66027e5c9dd3e7.so:_ZN4core3fmt9Formatter15debug_upper_hex17h205353f84fc52ec9E
libstd-4e66027e5c9dd3e7.so:_ZN4core3fmt9Formatter19sign_aware_zero_pad17h21fa971f14f344e1E
libstd-4e66027e5c9dd3e7.so:_ZN4core3fmt9Formatter25debug_tuple_field1_finish17hadb5c15e3094df50E
libstd-4e66027e5c9dd3e7.so:_ZN4core3fmt9Formatter25debug_tuple_field2_finish17hb179f970cb3a8a07E
libstd-4e66027e5c9dd3e7.so:_ZN4core3fmt9Formatter25debug_tuple_field3_finish17h059015f6a649916aE
libstd-4e66027e5c9dd3e7.so:_ZN4core3fmt9Formatter25debug_tuple_field4_finish17he210fff212160ebeE
libstd-4e66027e5c9dd3e7.so:_ZN4core3fmt9Formatter25debug_tuple_field5_finish17hb429ecf837cece34E
libstd-4e66027e5c9dd3e7.so:_ZN4core3fmt9Formatter25debug_tuple_fields_finish17hcb9eba3baa426d27E
libstd-4e66027e5c9dd3e7.so:_ZN4core3fmt9Formatter26debug_struct_field1_finish17h304372ff38ffd9caE
libstd-4e66027e5c9dd3e7.so:_ZN4core3fmt9Formatter26debug_struct_field2_finish17h51f154aafb2076bfE
libstd-4e66027e5c9dd3e7.so:_ZN4core3fmt9Formatter26debug_struct_field3_finish17hd6312614f78d3cacE
libstd-4e66027e5c9dd3e7.so:_ZN4core3fmt9Formatter26debug_struct_field4_finish17h9e830ba1664d6cd8E
libstd-4e66027e5c9dd3e7.so:_ZN4core3fmt9Formatter26debug_struct_field5_finish17he05e08ee5983c972E
libstd-4e66027e5c9dd3e7.so:_ZN4core3fmt9Formatter26debug_struct_fields_finish17hb4389a4fea44f96eE
libstd-4e66027e5c9dd3e7.so:_ZN4core3fmt9Formatter3new17h07128e6c78528d71E
libstd-4e66027e5c9dd3e7.so:_ZN4core3fmt9Formatter3pad17h1c5d38b9b9739914E
libstd-4e66027e5c9dd3e7.so:_ZN4core3fmt9Formatter4fill17hd6629a18018af735E
libstd-4e66027e5c9dd3e7.so:_ZN4core3fmt9Formatter5align17h796267ede9811e47E
libstd-4e66027e5c9dd3e7.so:_ZN4core3fmt9Formatter5flags17h641e93288d817b34E
libstd-4e66027e5c9dd3e7.so:_ZN4core3fmt9Formatter5width17hbb1db01bff04fe12E
libstd-4e66027e5c9dd3e7.so:_ZN4core3fmt9Formatter9alternate17h9a720fcf50a05feaE
libstd-4e66027e5c9dd3e7.so:_ZN4core3fmt9Formatter9debug_map17h5a8e1b8bdba4ad70E
libstd-4e66027e5c9dd3e7.so:_ZN4core3fmt9Formatter9debug_set17he5806794eb2bd12fE
libstd-4e66027e5c9dd3e7.so:_ZN4core3fmt9Formatter9precision17hae32956c3c6651baE
libstd-4e66027e5c9dd3e7.so:_ZN4core3fmt9Formatter9sign_plus17h7ea3d28163d261c3E
libstd-4e66027e5c9dd3e7.so:_ZN4core3fmt9Formatter9write_fmt17h5824ba6a3dc8e908E
libstd-4e66027e5c9dd3e7.so:_ZN4core3fmt9Formatter9write_str17hf7b1c8b786fd2f9fE
libstd-4e66027e5c9dd3e7.so:_ZN4core3mem15transmutability6Assume3and17hafd964b79ac5b291E
libstd-4e66027e5c9dd3e7.so:_ZN4core3mem15transmutability6Assume7but_not17ha6adfbc91dd97648E
libstd-4e66027e5c9dd3e7.so:_ZN4core3num20_$LT$impl$u20$i8$GT$14from_str_radix17he6bc9f9a42a198d4E
libstd-4e66027e5c9dd3e7.so:_ZN4core3num20_$LT$impl$u20$u8$GT$14from_str_radix17h06ef042e77554b23E
libstd-4e66027e5c9dd3e7.so:_ZN4core3num21_$LT$impl$u20$i16$GT$14from_str_radix17h4a22cf520b64b0a1E
libstd-4e66027e5c9dd3e7.so:_ZN4core3num21_$LT$impl$u20$i32$GT$14from_str_radix17hc8d16da5d8b55cd4E
libstd-4e66027e5c9dd3e7.so:_ZN4core3num21_$LT$impl$u20$i64$GT$14from_str_radix17h47382eb2b76babcfE
libstd-4e66027e5c9dd3e7.so:_ZN4core3num21_$LT$impl$u20$u16$GT$14from_str_radix17hb1edb0d0d85cb34fE
libstd-4e66027e5c9dd3e7.so:_ZN4core3num21_$LT$impl$u20$u32$GT$14from_str_radix17h9986d38bf5c9fedcE
libstd-4e66027e5c9dd3e7.so:_ZN4core3num21_$LT$impl$u20$u64$GT$14from_str_radix17he8c6cf281d8719acE
libstd-4e66027e5c9dd3e7.so:_ZN4core3num22_$LT$impl$u20$i128$GT$14from_str_radix17h7dedc8f1c235ec18E
libstd-4e66027e5c9dd3e7.so:_ZN4core3num22_$LT$impl$u20$u128$GT$14from_str_radix17hf6c9fe73f3a4d50fE
libstd-4e66027e5c9dd3e7.so:_ZN4core3num23_$LT$impl$u20$isize$GT$14from_str_radix17hc39cd8b5dd75de26E
libstd-4e66027e5c9dd3e7.so:_ZN4core3num23_$LT$impl$u20$usize$GT$14from_str_radix17h785254fa91181250E
libstd-4e66027e5c9dd3e7.so:_ZN4core3num3fmt4Part3len17h8de3e28ca2b7886dE
libstd-4e66027e5c9dd3e7.so:_ZN4core3num3fmt4Part5write17h6e647e044e5848a7E
libstd-4e66027e5c9dd3e7.so:_ZN4core3num3fmt9Formatted3len17h9a7ed3a1e9c115a4E
libstd-4e66027e5c9dd3e7.so:_ZN4core3num3fmt9Formatted5write17h5bfccf3bdc913d6bE
libstd-4e66027e5c9dd3e7.so:_ZN4core3num59_$LT$impl$u20$core..str..traits..FromStr$u20$for$u20$i8$GT$8from_str17h783253eff65db4f9E
libstd-4e66027e5c9dd3e7.so:_ZN4core3num59_$LT$impl$u20$core..str..traits..FromStr$u20$for$u20$u8$GT$8from_str17hbe860716f46980d8E
libstd-4e66027e5c9dd3e7.so:_ZN4core3num5error13ParseIntError13__description17h790cf92d4910ea2cE
libstd-4e66027e5c9dd3e7.so:_ZN4core3num5error13ParseIntError4kind17h46496c47ffb0e75aE
libstd-4e66027e5c9dd3e7.so:_ZN4core3num5error15TryFromIntError13__description17h8320476470ce7544E
libstd-4e66027e5c9dd3e7.so:_ZN4core3num60_$LT$impl$u20$core..str..traits..FromStr$u20$for$u20$i16$GT$8from_str17h00a9659a31ea778cE
libstd-4e66027e5c9dd3e7.so:_ZN4core3num60_$LT$impl$u20$core..str..traits..FromStr$u20$for$u20$i32$GT$8from_str17h954b75a6406cfc10E
libstd-4e66027e5c9dd3e7.so:_ZN4core3num60_$LT$impl$u20$core..str..traits..FromStr$u20$for$u20$i64$GT$8from_str17h9b7d50fed10c9b3dE
libstd-4e66027e5c9dd3e7.so:_ZN4core3num60_$LT$impl$u20$core..str..traits..FromStr$u20$for$u20$u16$GT$8from_str17ha04bb97305222739E
libstd-4e66027e5c9dd3e7.so:_ZN4core3num60_$LT$impl$u20$core..str..traits..FromStr$u20$for$u20$u32$GT$8from_str17hf4033e890a4d8ee2E
libstd-4e66027e5c9dd3e7.so:_ZN4core3num60_$LT$impl$u20$core..str..traits..FromStr$u20$for$u20$u64$GT$8from_str17h972c89db4cce3a3fE
libstd-4e66027e5c9dd3e7.so:_ZN4core3num61_$LT$impl$u20$core..str..traits..FromStr$u20$for$u20$i128$GT$8from_str17h823684babbb4e417E
libstd-4e66027e5c9dd3e7.so:_ZN4core3num61_$LT$impl$u20$core..str..traits..FromStr$u20$for$u20$u128$GT$8from_str17h9e276919e71ae3feE
libstd-4e66027e5c9dd3e7.so:_ZN4core3num62_$LT$impl$u20$core..str..traits..FromStr$u20$for$u20$isize$GT$8from_str17hbf58af62dd654e7dE
libstd-4e66027e5c9dd3e7.so:_ZN4core3num62_$LT$impl$u20$core..str..traits..FromStr$u20$for$u20$usize$GT$8from_str17h991ff1fd30b7c46cE
libstd-4e66027e5c9dd3e7.so:_ZN4core3num6bignum5tests6Big8x310bit_length17h7e4ac431fc0522a4E
libstd-4e66027e5c9dd3e7.so:_ZN4core3num6bignum5tests6Big8x310from_small17h14cac7de319edab3E
libstd-4e66027e5c9dd3e7.so:_ZN4core3num6bignum5tests6Big8x310mul_digits17heef04002bd92a3ebE
libstd-4e66027e5c9dd3e7.so:_ZN4core3num6bignum5tests6Big8x313div_rem_small17ha238cf73380f0343E
libstd-4e66027e5c9dd3e7.so:_ZN4core3num6bignum5tests6Big8x33add17h61b46f5912e4eb9aE
libstd-4e66027e5c9dd3e7.so:_ZN4core3num6bignum5tests6Big8x33sub17h0f67e3024617c327E
libstd-4e66027e5c9dd3e7.so:_ZN4core3num6bignum5tests6Big8x36digits17h14ed5a9d9e6ecbdaE
libstd-4e66027e5c9dd3e7.so:_ZN4core3num6bignum5tests6Big8x37div_rem17h13beb41ced745efeE
libstd-4e66027e5c9dd3e7.so:_ZN4core3num6bignum5tests6Big8x37get_bit17h9bd4220dd8070e1dE
libstd-4e66027e5c9dd3e7.so:_ZN4core3num6bignum5tests6Big8x37is_zero17ha775500b23a95397E
libstd-4e66027e5c9dd3e7.so:_ZN4core3num6bignum5tests6Big8x38from_u6417h7a28f6a04e65400fE
libstd-4e66027e5c9dd3e7.so:_ZN4core3num6bignum5tests6Big8x38mul_pow217h90acdd0ca603dff0E
libstd-4e66027e5c9dd3e7.so:_ZN4core3num6bignum5tests6Big8x38mul_pow517ha517202b36b09d70E
libstd-4e66027e5c9dd3e7.so:_ZN4core3num6bignum5tests6Big8x39add_small17h74c8b3f2fe6a7120E
libstd-4e66027e5c9dd3e7.so:_ZN4core3num6bignum5tests6Big8x39mul_small17hcb9a1188f9a33b15E
libstd-4e66027e5c9dd3e7.so:_ZN4core3num6bignum8Big32x4010bit_length17h656429bf34760069E
libstd-4e66027e5c9dd3e7.so:_ZN4core3num6bignum8Big32x4010from_small17hff48cb06392efa2fE
libstd-4e66027e5c9dd3e7.so:_ZN4core3num6bignum8Big32x4010mul_digits17h6120cf137890e885E
libstd-4e66027e5c9dd3e7.so:_ZN4core3num6bignum8Big32x4013div_rem_small17h890080f0004c9443E
libstd-4e66027e5c9dd3e7.so:_ZN4core3num6bignum8Big32x403add17hed1eb139f509e369E
libstd-4e66027e5c9dd3e7.so:_ZN4core3num6bignum8Big32x403sub17h256f858d9c1ae0d6E
libstd-4e66027e5c9dd3e7.so:_ZN4core3num6bignum8Big32x406digits17h9c58cee7a637e6e0E
libstd-4e66027e5c9dd3e7.so:_ZN4core3num6bignum8Big32x407div_rem17h006531f6772357c2E
libstd-4e66027e5c9dd3e7.so:_ZN4core3num6bignum8Big32x407get_bit17h20960fcac9a7db38E
libstd-4e66027e5c9dd3e7.so:_ZN4core3num6bignum8Big32x407is_zero17hd709585c9e5fd6bfE
libstd-4e66027e5c9dd3e7.so:_ZN4core3num6bignum8Big32x408from_u6417h017ab4603082709bE
libstd-4e66027e5c9dd3e7.so:_ZN4core3num6bignum8Big32x408mul_pow217h69346eeb9d012dffE
libstd-4e66027e5c9dd3e7.so:_ZN4core3num6bignum8Big32x408mul_pow517h2bdc8352e27351e4E
libstd-4e66027e5c9dd3e7.so:_ZN4core3num6bignum8Big32x409add_small17h1db40004fcfab4d7E
libstd-4e66027e5c9dd3e7.so:_ZN4core3num6bignum8Big32x409mul_small17hcf63f44f66138013E
libstd-4e66027e5c9dd3e7.so:_ZN4core3num7dec2flt11pfe_invalid17hefd5844a6c7cb468E
libstd-4e66027e5c9dd3e7.so:_ZN4core3num7dec2flt15ParseFloatError13__description17h35703b2e31053235E
libstd-4e66027e5c9dd3e7.so:_ZN4core3num7dec2flt5parse12parse_number17h13ad18fbada4e7f8E
libstd-4e66027e5c9dd3e7.so:_ZN4core3num7dec2flt5parse21parse_partial_inf_nan14parse_inf_rest17hfa006c4425165cd8E
libstd-4e66027e5c9dd3e7.so:_ZN4core3num7dec2flt6common8BiasedFp9zero_pow217h729e52cf756fb9baE
libstd-4e66027e5c9dd3e7.so:_ZN4core3num7dec2flt6lemire22compute_product_approx17h2eefa1173619a419E
libstd-4e66027e5c9dd3e7.so:_ZN4core3num7dec2flt6lemire5power17hecf0e493f1b7742cE
libstd-4e66027e5c9dd3e7.so:_ZN4core3num7dec2flt7decimal13parse_decimal17hd8eb951ac44db11dE
libstd-4e66027e5c9dd3e7.so:_ZN4core3num7dec2flt7decimal7Decimal10left_shift17h197d6da276291e85E
libstd-4e66027e5c9dd3e7.so:_ZN4core3num7dec2flt7decimal7Decimal11right_shift17hcfc8a1d75b01dcc6E
libstd-4e66027e5c9dd3e7.so:_ZN4core3num7dec2flt7decimal7Decimal5round17h1feee3b6bc6b02aaE
libstd-4e66027e5c9dd3e7.so:_ZN4core3num7dec2flt9pfe_empty17h80c8373ddfd8ad32E
libstd-4e66027e5c9dd3e7.so:_ZN4core3num7flt2dec14determine_sign17h428ec0d9c85ccc0cE
libstd-4e66027e5c9dd3e7.so:_ZN4core3num7flt2dec17digits_to_dec_str17h753b720f8f806a54E
libstd-4e66027e5c9dd3e7.so:_ZN4core3num7flt2dec17digits_to_exp_str17h38b07d774e1296acE
libstd-4e66027e5c9dd3e7.so:_ZN4core3num7flt2dec20estimate_max_buf_len17h8827006013db2d50E
libstd-4e66027e5c9dd3e7.so:_ZN4core3num7flt2dec8round_up17h6adfa643e92d4a72E
libstd-4e66027e5c9dd3e7.so:_ZN4core3num7flt2dec8strategy5grisu12CACHED_POW1017h5b4d34ba340d843bE
libstd-4e66027e5c9dd3e7.so:_ZN4core3num7flt2dec8strategy5grisu12cached_power17h6c04b8b6157e0d8bE
libstd-4e66027e5c9dd3e7.so:_ZN4core3num7flt2dec8strategy5grisu12format_exact17hca4b6c85a3162219E
libstd-4e66027e5c9dd3e7.so:_ZN4core3num7flt2dec8strategy5grisu15format_shortest17he58caee5118e1b4fE
libstd-4e66027e5c9dd3e7.so:_ZN4core3num7flt2dec8strategy5grisu16format_exact_opt17h2ca3f308459c8016E
libstd-4e66027e5c9dd3e7.so:_ZN4core3num7flt2dec8strategy5grisu19format_shortest_opt17hc5d67e9fd371149cE
libstd-4e66027e5c9dd3e7.so:_ZN4core3num7flt2dec8strategy5grisu22max_pow10_no_more_than17hcf0c221389b10bf2E
libstd-4e66027e5c9dd3e7.so:_ZN4core3num7flt2dec8strategy6dragon12format_exact17h595b57350b0bee69E
libstd-4e66027e5c9dd3e7.so:_ZN4core3num7flt2dec8strategy6dragon15format_shortest17heeee56d11e97e1fbE
libstd-4e66027e5c9dd3e7.so:_ZN4core3num7flt2dec8strategy6dragon9mul_pow1017hf2de221cd634f4f7E
libstd-4e66027e5c9dd3e7.so:_ZN4core3num7flt2dec9estimator23estimate_scaling_factor17h66725729b40e18baE
libstd-4e66027e5c9dd3e7.so:_ZN4core3num7nonzero10NonZeroI1613new_unchecked8comptime17h9ef6efd42d07bb50E
libstd-4e66027e5c9dd3e7.so:_ZN4core3num7nonzero10NonZeroI3213new_unchecked8comptime17h144f4b31871fefefE
libstd-4e66027e5c9dd3e7.so:_ZN4core3num7nonzero10NonZeroI6413new_unchecked8comptime17he7f41e11d1ff310bE
libstd-4e66027e5c9dd3e7.so:_ZN4core3num7nonzero10NonZeroU1613new_unchecked8comptime17h1348b61d5cbbae7fE
libstd-4e66027e5c9dd3e7.so:_ZN4core3num7nonzero10NonZeroU3213new_unchecked8comptime17h28e68417c3d19bd5E
libstd-4e66027e5c9dd3e7.so:_ZN4core3num7nonzero10NonZeroU6413new_unchecked8comptime17h556f8195cadf7ea5E
libstd-4e66027e5c9dd3e7.so:_ZN4core3num7nonzero11NonZeroI12813new_unchecked8comptime17h107e8f808fc0f568E
libstd-4e66027e5c9dd3e7.so:_ZN4core3num7nonzero11NonZeroU12813new_unchecked8comptime17hd531a9b9ac61abd8E
libstd-4e66027e5c9dd3e7.so:_ZN4core3num7nonzero12NonZeroIsize13new_unchecked8comptime17he83bc203081fd138E
libstd-4e66027e5c9dd3e7.so:_ZN4core3num7nonzero12NonZeroUsize13new_unchecked8comptime17h19382dc2f19d56f3E
libstd-4e66027e5c9dd3e7.so:_ZN4core3num7nonzero9NonZeroI813new_unchecked8comptime17h4412b046506980a4E
libstd-4e66027e5c9dd3e7.so:_ZN4core3num7nonzero9NonZeroU813new_unchecked8comptime17h69debd997e232286E
libstd-4e66027e5c9dd3e7.so:_ZN4core3num84_$LT$impl$u20$core..error..Error$u20$for$u20$core..num..dec2flt..ParseFloatError$GT$11description17h21776e480c0e7fb3E
libstd-4e66027e5c9dd3e7.so:_ZN4core3num9diy_float2Fp12normalize_to17hb5142b929a4a5ecfE
libstd-4e66027e5c9dd3e7.so:_ZN4core3num9diy_float2Fp3mul17hf4977a31746a8633E
libstd-4e66027e5c9dd3e7.so:_ZN4core3num9diy_float2Fp9normalize17hb156ca4ecab49d3fE
libstd-4e66027e5c9dd3e7.so:_ZN4core3ops11index_range10IndexRange13new_unchecked8comptime17h255183c880520398E
libstd-4e66027e5c9dd3e7.so:_ZN4core3ptr9alignment9Alignment13new_unchecked8comptime17hd3439cb338051102E
libstd-4e66027e5c9dd3e7.so:_ZN4core3str16slice_error_fail17hb8f47d00e3d50902E
libstd-4e66027e5c9dd3e7.so:_ZN4core3str19slice_error_fail_ct17h999206d9eed208adE
libstd-4e66027e5c9dd3e7.so:_ZN4core3str19slice_error_fail_rt17h67ba36367b150545E
libstd-4e66027e5c9dd3e7.so:_ZN4core3str21_$LT$impl$u20$str$GT$12encode_utf1617ha91640b2e8e47f67E
libstd-4e66027e5c9dd3e7.so:_ZN4core3str21_$LT$impl$u20$str$GT$12escape_debug17h8d21620b80f80903E
libstd-4e66027e5c9dd3e7.so:_ZN4core3str21_$LT$impl$u20$str$GT$14escape_default17h6b4434aca0b7ea1bE
libstd-4e66027e5c9dd3e7.so:_ZN4core3str21_$LT$impl$u20$str$GT$14escape_unicode17h8bc905e9593bf898E
libstd-4e66027e5c9dd3e7.so:_ZN4core3str5count14do_count_chars17h24bdfe85c53207edE
libstd-4e66027e5c9dd3e7.so:_ZN4core3str5count23char_count_general_case17h749be65bc73c89b5E
libstd-4e66027e5c9dd3e7.so:_ZN4core3str5lossy10Utf8Chunks3new17h7a0181468790960bE
libstd-4e66027e5c9dd3e7.so:_ZN4core3str5lossy10Utf8Chunks5debug17h6bb8acb43c049930E
libstd-4e66027e5c9dd3e7.so:_ZN4core3str5lossy9Utf8Chunk5valid17heba8965256fd7026E
libstd-4e66027e5c9dd3e7.so:_ZN4core3str5lossy9Utf8Chunk7invalid17h88b1b1672610474aE
libstd-4e66027e5c9dd3e7.so:_ZN4core3str6traits23str_index_overflow_fail17h073a393c916b05ffE
libstd-4e66027e5c9dd3e7.so:_ZN4core3str7pattern11StrSearcher3new17h2c854ff49f329e1bE
libstd-4e66027e5c9dd3e7.so:_ZN4core3str8converts13from_utf8_mut17h25bd8c3540c814c5E
libstd-4e66027e5c9dd3e7.so:_ZN4core3str8converts9from_utf817heb2c390fcdda2fd0E
libstd-4e66027e5c9dd3e7.so:_ZN4core4char15CaseMappingIter3new17h673d9541d0416123E
libstd-4e66027e5c9dd3e7.so:_ZN4core4char6decode16DecodeUtf16Error18unpaired_surrogate17h52d57965a42d42b1E
libstd-4e66027e5c9dd3e7.so:_ZN4core4char7convert14ParseCharError13__description17h285899b9063fbc29E
libstd-4e66027e5c9dd3e7.so:_ZN4core4hint21unreachable_unchecked8comptime17h95a2e03a4a7d3cdfE
libstd-4e66027e5c9dd3e7.so:_ZN4core4task4wake14RawWakerVTable3new17h7ca483b93f17f599E
libstd-4e66027e5c9dd3e7.so:_ZN4core4time21TryFromFloatSecsError11description17h9f7fabf3109d2aadE
libstd-4e66027e5c9dd3e7.so:_ZN4core4time83_$LT$impl$u20$core..ops..arith..Mul$LT$core..time..Duration$GT$$u20$for$u20$u32$GT$3mul17h48b43f193cfeac98E
libstd-4e66027e5c9dd3e7.so:_ZN4core5ascii14escape_default17h57dabf7ebef3b3cdE
libstd-4e66027e5c9dd3e7.so:_ZN4core5panic10panic_info9PanicInfo10can_unwind17h67183c4c4d6b0279E
libstd-4e66027e5c9dd3e7.so:_ZN4core5panic10panic_info9PanicInfo7message17hc0c67bd56bfea037E
libstd-4e66027e5c9dd3e7.so:_ZN4core5panic10panic_info9PanicInfo7payload17h419051496d83ebe4E
libstd-4e66027e5c9dd3e7.so:_ZN4core5panic10panic_info9PanicInfo8location17hb6f7ad2beda652faE
libstd-4e66027e5c9dd3e7.so:_ZN4core5panic8location8Location20internal_constructor17hc8c2767ded2aa0ceE
libstd-4e66027e5c9dd3e7.so:_ZN4core5slice29_$LT$impl$u20$$u5b$T$u5d$$GT$15copy_from_slice17len_mismatch_fail17ha8aadf76b342a407E
libstd-4e66027e5c9dd3e7.so:_ZN4core5slice29_$LT$impl$u20$$u5b$T$u5d$$GT$22split_at_mut_unchecked8comptime17hc10587dd455206d8E
libstd-4e66027e5c9dd3e7.so:_ZN4core5slice5ascii30_$LT$impl$u20$$u5b$u8$u5d$$GT$10trim_ascii17h9f4d8cfd5e8aad49E
libstd-4e66027e5c9dd3e7.so:_ZN4core5slice5ascii30_$LT$impl$u20$$u5b$u8$u5d$$GT$12escape_ascii17hff80aaa963159542E
libstd-4e66027e5c9dd3e7.so:_ZN4core5slice5ascii30_$LT$impl$u20$$u5b$u8$u5d$$GT$14trim_ascii_end17h120a3266f3d5d4ffE
libstd-4e66027e5c9dd3e7.so:_ZN4core5slice5ascii30_$LT$impl$u20$$u5b$u8$u5d$$GT$16trim_ascii_start17hacb304070fcb0ba4E
libstd-4e66027e5c9dd3e7.so:_ZN4core5slice5index10into_range17h3ca06f1339849a49E
libstd-4e66027e5c9dd3e7.so:_ZN4core5slice5index16into_slice_range17h937c7e4ec99a8416E
libstd-4e66027e5c9dd3e7.so:_ZN4core5slice5index20into_range_unchecked17haf9926df7030f3bdE
libstd-4e66027e5c9dd3e7.so:_ZN4core5slice5index22slice_index_order_fail17ha38cf1391608ff1cE
libstd-4e66027e5c9dd3e7.so:_ZN4core5slice5index24slice_end_index_len_fail17h30c390ad00b85e25E
libstd-4e66027e5c9dd3e7.so:_ZN4core5slice5index26slice_start_index_len_fail17h9bd5a3070b7c935aE
libstd-4e66027e5c9dd3e7.so:_ZN4core5slice5index29slice_end_index_overflow_fail17h2a112bf224c97b78E
libstd-4e66027e5c9dd3e7.so:_ZN4core5slice5index31slice_start_index_overflow_fail17h971875cecacc7b52E
libstd-4e66027e5c9dd3e7.so:_ZN4core5slice6memchr14memchr_aligned17hed07f34efe4ae5dbE
libstd-4e66027e5c9dd3e7.so:_ZN4core5slice6memchr7memrchr17h955156b5433cf20eE
libstd-4e66027e5c9dd3e7.so:_ZN4core6option13expect_failed17hf3bbacf2eb445ce1E
libstd-4e66027e5c9dd3e7.so:_ZN4core6result13unwrap_failed17hf5f1329ab8645903E
libstd-4e66027e5c9dd3e7.so:_ZN4core7unicode12unicode_data10alphabetic6lookup17hcd414f71192112f5E
libstd-4e66027e5c9dd3e7.so:_ZN4core7unicode12unicode_data11conversions8to_lower17hcee63a552b9d801bE
libstd-4e66027e5c9dd3e7.so:_ZN4core7unicode12unicode_data11conversions8to_upper17heb03894cb1474532E
libstd-4e66027e5c9dd3e7.so:_ZN4core7unicode12unicode_data11white_space14WHITESPACE_MAP17h31c52daf2fe24a84E
libstd-4e66027e5c9dd3e7.so:_ZN4core7unicode12unicode_data14case_ignorable6lookup17ha37b547d44dcfa47E
libstd-4e66027e5c9dd3e7.so:_ZN4core7unicode12unicode_data15grapheme_extend6lookup17h011fe2ef193da2d3E
libstd-4e66027e5c9dd3e7.so:_ZN4core7unicode12unicode_data1n6lookup17h8ba94c152c8e0293E
libstd-4e66027e5c9dd3e7.so:_ZN4core7unicode12unicode_data2cc6lookup17h074ec943cb3c100eE
libstd-4e66027e5c9dd3e7.so:_ZN4core7unicode12unicode_data5cased6lookup17h7614210818745e9aE
libstd-4e66027e5c9dd3e7.so:_ZN4core7unicode12unicode_data9lowercase6lookup17h711e48cb7381f2a9E
libstd-4e66027e5c9dd3e7.so:_ZN4core7unicode12unicode_data9uppercase6lookup17h763d6bac68356f68E
libstd-4e66027e5c9dd3e7.so:_ZN4core7unicode9printable12is_printable17h5023125088b511bdE
libstd-4e66027e5c9dd3e7.so:_ZN4core9core_arch3x864avx219_mm256_bslli_epi1284mask17hb7476dc7ec4acca8E
libstd-4e66027e5c9dd3e7.so:_ZN4core9core_arch3x864sse219_mm_slli_si128_impl4mask17he3c7698a42060069E
libstd-4e66027e5c9dd3e7.so:_ZN4core9core_arch3x864sse219_mm_srli_si128_impl4mask17hd89dd3056e843f34E
libstd-4e66027e5c9dd3e7.so:_ZN4core9core_arch3x865ssse315_mm_alignr_epi84mask17hbbcc7c5ace2b659cE
libstd-4e66027e5c9dd3e7.so:_ZN4core9core_arch3x868avx512bw19_mm512_bslli_epi1284mask17hb85f8c02618d86f7E
libstd-4e66027e5c9dd3e7.so:_ZN4core9core_simd5masks71_$LT$impl$u20$core..core_simd..masks..sealed..Sealed$u20$for$u20$i8$GT$2eq17h5e246b764d0217acE
libstd-4e66027e5c9dd3e7.so:_ZN4core9core_simd5masks72_$LT$impl$u20$core..core_simd..masks..sealed..Sealed$u20$for$u20$i16$GT$2eq17h68e8e96a1ac8351cE
libstd-4e66027e5c9dd3e7.so:_ZN4core9core_simd5masks72_$LT$impl$u20$core..core_simd..masks..sealed..Sealed$u20$for$u20$i32$GT$2eq17hf6e77454e8fb14d7E
libstd-4e66027e5c9dd3e7.so:_ZN4core9core_simd5masks72_$LT$impl$u20$core..core_simd..masks..sealed..Sealed$u20$for$u20$i64$GT$2eq17hdbea1438675c6fd5E
libstd-4e66027e5c9dd3e7.so:_ZN4core9core_simd5masks74_$LT$impl$u20$core..core_simd..masks..sealed..Sealed$u20$for$u20$isize$GT$2eq17h36645cbd81cef5c7E
libstd-4e66027e5c9dd3e7.so:_ZN4core9panicking14panic_nounwind17haa98b7d7fa999f45E
libstd-4e66027e5c9dd3e7.so:_ZN4core9panicking15const_panic_fmt17h2e697899acc3a0e8E
libstd-4e66027e5c9dd3e7.so:_ZN4core9panicking18panic_bounds_check17h5c6921fe07eb0a05E
libstd-4e66027e5c9dd3e7.so:_ZN4core9panicking18panic_nounwind_fmt17hd2722adb4ea37ca5E
libstd-4e66027e5c9dd3e7.so:_ZN4core9panicking19assert_failed_inner17h6af380df583cae54E
libstd-4e66027e5c9dd3e7.so:_ZN4core9panicking19panic_cannot_unwind17h948b68319f2e85e4E
libstd-4e66027e5c9dd3e7.so:_ZN4core9panicking5panic17h9dea8372cacf873cE
libstd-4e66027e5c9dd3e7.so:_ZN4core9panicking9panic_fmt17hddd8e779886475f6E
libstd-4e66027e5c9dd3e7.so:_ZN4libc4unix10linux_like5linux3gnu73_$LT$impl$u20$libc..unix..linux_like..linux..gnu..b32..x86..siginfo_t$GT$6si_pid17h8ed4718d9b097638E
libstd-4e66027e5c9dd3e7.so:_ZN4libc4unix10linux_like5linux3gnu73_$LT$impl$u20$libc..unix..linux_like..linux..gnu..b32..x86..siginfo_t$GT$6si_uid17he41112c0edffd58fE
libstd-4e66027e5c9dd3e7.so:_ZN4libc4unix10linux_like5linux3gnu73_$LT$impl$u20$libc..unix..linux_like..linux..gnu..b32..x86..siginfo_t$GT$7si_addr17h55788f3a1bd53c4cE
libstd-4e66027e5c9dd3e7.so:_ZN4libc4unix10linux_like5linux3gnu73_$LT$impl$u20$libc..unix..linux_like..linux..gnu..b32..x86..siginfo_t$GT$8si_stime17h954552470ef79656E
libstd-4e66027e5c9dd3e7.so:_ZN4libc4unix10linux_like5linux3gnu73_$LT$impl$u20$libc..unix..linux_like..linux..gnu..b32..x86..siginfo_t$GT$8si_utime17hcf1ed7ce31a4b8dfE
libstd-4e66027e5c9dd3e7.so:_ZN4libc4unix10linux_like5linux3gnu73_$LT$impl$u20$libc..unix..linux_like..linux..gnu..b32..x86..siginfo_t$GT$8si_value17hdb2a1ce488303533E
libstd-4e66027e5c9dd3e7.so:_ZN4libc4unix10linux_like5linux3gnu73_$LT$impl$u20$libc..unix..linux_like..linux..gnu..b32..x86..siginfo_t$GT$9si_status17h51c2096993b5592fE
libstd-4e66027e5c9dd3e7.so:_ZN50_$LT$i16$u20$as$u20$core..fmt..num..DisplayInt$GT$4zero17haae9c65e71b5a426E
libstd-4e66027e5c9dd3e7.so:_ZN50_$LT$i16$u20$as$u20$core..fmt..num..DisplayInt$GT$5to_u817h1aaecb7d52681381E
libstd-4e66027e5c9dd3e7.so:_ZN50_$LT$i16$u20$as$u20$core..fmt..num..DisplayInt$GT$6to_u1617h7bb9d3e69f8fe35dE
libstd-4e66027e5c9dd3e7.so:_ZN50_$LT$i16$u20$as$u20$core..fmt..num..DisplayInt$GT$6to_u3217hbee4a258f60d232cE
libstd-4e66027e5c9dd3e7.so:_ZN50_$LT$i16$u20$as$u20$core..fmt..num..DisplayInt$GT$6to_u6417h1e720b7b2b795a75E
libstd-4e66027e5c9dd3e7.so:_ZN50_$LT$i16$u20$as$u20$core..fmt..num..DisplayInt$GT$7from_u817hca8df5a0543ee290E
libstd-4e66027e5c9dd3e7.so:_ZN50_$LT$i16$u20$as$u20$core..fmt..num..DisplayInt$GT$7to_u12817h4077c6e323f4bf49E
libstd-4e66027e5c9dd3e7.so:_ZN50_$LT$i16$u20$as$u20$std..sys..unix..IsMinusOne$GT$12is_minus_one17h2450b4db93a83007E
libstd-4e66027e5c9dd3e7.so:_ZN50_$LT$i32$u20$as$u20$core..fmt..num..DisplayInt$GT$4zero17h5ae07258e51c7b21E
libstd-4e66027e5c9dd3e7.so:_ZN50_$LT$i32$u20$as$u20$core..fmt..num..DisplayInt$GT$5to_u817hdce3f6fe830138e9E
libstd-4e66027e5c9dd3e7.so:_ZN50_$LT$i32$u20$as$u20$core..fmt..num..DisplayInt$GT$6to_u1617hb5acd08c0b66f6fcE
libstd-4e66027e5c9dd3e7.so:_ZN50_$LT$i32$u20$as$u20$core..fmt..num..DisplayInt$GT$6to_u3217hc2ddcc81467ba975E
libstd-4e66027e5c9dd3e7.so:_ZN50_$LT$i32$u20$as$u20$core..fmt..num..DisplayInt$GT$6to_u6417h80b1a3f11920abfcE
libstd-4e66027e5c9dd3e7.so:_ZN50_$LT$i32$u20$as$u20$core..fmt..num..DisplayInt$GT$7from_u817h5db9dd2056d35a8aE
libstd-4e66027e5c9dd3e7.so:_ZN50_$LT$i32$u20$as$u20$core..fmt..num..DisplayInt$GT$7to_u12817h9c33e7865a80a308E
libstd-4e66027e5c9dd3e7.so:_ZN50_$LT$i32$u20$as$u20$std..sys..unix..IsMinusOne$GT$12is_minus_one17hd9cfc31ab05eb69aE
libstd-4e66027e5c9dd3e7.so:_ZN50_$LT$i64$u20$as$u20$core..fmt..num..DisplayInt$GT$4zero17hb6a652039e368880E
libstd-4e66027e5c9dd3e7.so:_ZN50_$LT$i64$u20$as$u20$core..fmt..num..DisplayInt$GT$5to_u817h767c7e655ce136e3E
libstd-4e66027e5c9dd3e7.so:_ZN50_$LT$i64$u20$as$u20$core..fmt..num..DisplayInt$GT$6to_u1617h482483f50b5510c4E
libstd-4e66027e5c9dd3e7.so:_ZN50_$LT$i64$u20$as$u20$core..fmt..num..DisplayInt$GT$6to_u3217h87d94e21baf23a48E
libstd-4e66027e5c9dd3e7.so:_ZN50_$LT$i64$u20$as$u20$core..fmt..num..DisplayInt$GT$6to_u6417hd421a08a5bf67b5aE
libstd-4e66027e5c9dd3e7.so:_ZN50_$LT$i64$u20$as$u20$core..fmt..num..DisplayInt$GT$7from_u817he943b088d865a928E
libstd-4e66027e5c9dd3e7.so:_ZN50_$LT$i64$u20$as$u20$core..fmt..num..DisplayInt$GT$7to_u12817hb02112d9f9a4e0f8E
libstd-4e66027e5c9dd3e7.so:_ZN50_$LT$i64$u20$as$u20$std..sys..unix..IsMinusOne$GT$12is_minus_one17hef15ac58b8032cfaE
libstd-4e66027e5c9dd3e7.so:_ZN50_$LT$std..fs..File$u20$as$u20$core..fmt..Debug$GT$3fmt17h576137539745e7a5E
libstd-4e66027e5c9dd3e7.so:_ZN50_$LT$u16$u20$as$u20$core..fmt..num..DisplayInt$GT$4zero17h80fba2e1ab83f1b1E
libstd-4e66027e5c9dd3e7.so:_ZN50_$LT$u16$u20$as$u20$core..fmt..num..DisplayInt$GT$5to_u817hfe3613cf44d1647aE
libstd-4e66027e5c9dd3e7.so:_ZN50_$LT$u16$u20$as$u20$core..fmt..num..DisplayInt$GT$6to_u1617h1953c94f6c74bde4E
libstd-4e66027e5c9dd3e7.so:_ZN50_$LT$u16$u20$as$u20$core..fmt..num..DisplayInt$GT$6to_u3217hfbb315dd11491667E
libstd-4e66027e5c9dd3e7.so:_ZN50_$LT$u16$u20$as$u20$core..fmt..num..DisplayInt$GT$6to_u6417hab6ca56139d483c3E
libstd-4e66027e5c9dd3e7.so:_ZN50_$LT$u16$u20$as$u20$core..fmt..num..DisplayInt$GT$7from_u817h7d313df5b75d62caE
libstd-4e66027e5c9dd3e7.so:_ZN50_$LT$u16$u20$as$u20$core..fmt..num..DisplayInt$GT$7to_u12817hc7f6abed59305b97E
libstd-4e66027e5c9dd3e7.so:_ZN50_$LT$u16$u20$as$u20$core..num..bignum..FullOps$GT$12full_div_rem17hdc4747a3eed43c99E
libstd-4e66027e5c9dd3e7.so:_ZN50_$LT$u16$u20$as$u20$core..num..bignum..FullOps$GT$12full_mul_add17h48af5bedfc558a37E
libstd-4e66027e5c9dd3e7.so:_ZN50_$LT$u32$u20$as$u20$core..fmt..num..DisplayInt$GT$4zero17h19c1f138d83cfdf1E
libstd-4e66027e5c9dd3e7.so:_ZN50_$LT$u32$u20$as$u20$core..fmt..num..DisplayInt$GT$5to_u817h7248df9e4b99ea3dE
libstd-4e66027e5c9dd3e7.so:_ZN50_$LT$u32$u20$as$u20$core..fmt..num..DisplayInt$GT$6to_u1617h1d22bcf1e974cacfE
libstd-4e66027e5c9dd3e7.so:_ZN50_$LT$u32$u20$as$u20$core..fmt..num..DisplayInt$GT$6to_u3217h9f96b0d88bb4e20fE
libstd-4e66027e5c9dd3e7.so:_ZN50_$LT$u32$u20$as$u20$core..fmt..num..DisplayInt$GT$6to_u6417hb9ec7e0788343f58E
libstd-4e66027e5c9dd3e7.so:_ZN50_$LT$u32$u20$as$u20$core..fmt..num..DisplayInt$GT$7from_u817hb279d25e95a4fa08E
libstd-4e66027e5c9dd3e7.so:_ZN50_$LT$u32$u20$as$u20$core..fmt..num..DisplayInt$GT$7to_u12817h3b9d27c1c6df31afE
libstd-4e66027e5c9dd3e7.so:_ZN50_$LT$u32$u20$as$u20$core..num..bignum..FullOps$GT$12full_div_rem17h3091cd0f434bf572E
libstd-4e66027e5c9dd3e7.so:_ZN50_$LT$u32$u20$as$u20$core..num..bignum..FullOps$GT$12full_mul_add17h6c957d1e7b2f38fbE
libstd-4e66027e5c9dd3e7.so:_ZN50_$LT$u64$u20$as$u20$core..fmt..num..DisplayInt$GT$4zero17h27172b136368ce6eE
libstd-4e66027e5c9dd3e7.so:_ZN50_$LT$u64$u20$as$u20$core..fmt..num..DisplayInt$GT$5to_u817hf645866aa8cddc40E
libstd-4e66027e5c9dd3e7.so:_ZN50_$LT$u64$u20$as$u20$core..fmt..num..DisplayInt$GT$6to_u1617h55992a35024388a0E
libstd-4e66027e5c9dd3e7.so:_ZN50_$LT$u64$u20$as$u20$core..fmt..num..DisplayInt$GT$6to_u3217h0120b558ea13210eE
libstd-4e66027e5c9dd3e7.so:_ZN50_$LT$u64$u20$as$u20$core..fmt..num..DisplayInt$GT$6to_u6417h4af5e6a412e269c4E
libstd-4e66027e5c9dd3e7.so:_ZN50_$LT$u64$u20$as$u20$core..fmt..num..DisplayInt$GT$7from_u817h6f90294449e7f818E
libstd-4e66027e5c9dd3e7.so:_ZN50_$LT$u64$u20$as$u20$core..fmt..num..DisplayInt$GT$7to_u12817h7edc78a5d21dde92E
libstd-4e66027e5c9dd3e7.so:_ZN51_$LT$$RF$std..fs..File$u20$as$u20$std..io..Read$GT$11read_to_end17hd38879794ba1f8c3E
libstd-4e66027e5c9dd3e7.so:_ZN51_$LT$$RF$std..fs..File$u20$as$u20$std..io..Read$GT$13read_vectored17h3a4b1d43b1a56f96E
libstd-4e66027e5c9dd3e7.so:_ZN51_$LT$$RF$std..fs..File$u20$as$u20$std..io..Read$GT$14read_to_string17h9cc398fbf80bac63E
libstd-4e66027e5c9dd3e7.so:_ZN51_$LT$$RF$std..fs..File$u20$as$u20$std..io..Read$GT$4read17h04048936a19e2b04E
libstd-4e66027e5c9dd3e7.so:_ZN51_$LT$$RF$std..fs..File$u20$as$u20$std..io..Read$GT$8read_buf17h213e39233a0decb8E
libstd-4e66027e5c9dd3e7.so:_ZN51_$LT$$RF$std..fs..File$u20$as$u20$std..io..Seek$GT$4seek17h6af52d9a341f4503E
libstd-4e66027e5c9dd3e7.so:_ZN51_$LT$$u21$$u20$as$u20$std..process..Termination$GT$6report17had5c1f6b009d2ebeE
libstd-4e66027e5c9dd3e7.so:_ZN51_$LT$adler..Adler32$u20$as$u20$core..fmt..Debug$GT$3fmt17h865175daa8ff2a11E
libstd-4e66027e5c9dd3e7.so:_ZN51_$LT$i128$u20$as$u20$core..fmt..num..DisplayInt$GT$4zero17hbe022d5c69376330E
libstd-4e66027e5c9dd3e7.so:_ZN51_$LT$i128$u20$as$u20$core..fmt..num..DisplayInt$GT$5to_u817hfa8a69abb38522f0E
libstd-4e66027e5c9dd3e7.so:_ZN51_$LT$i128$u20$as$u20$core..fmt..num..DisplayInt$GT$6to_u1617h8d108dec9bf37237E
libstd-4e66027e5c9dd3e7.so:_ZN51_$LT$i128$u20$as$u20$core..fmt..num..DisplayInt$GT$6to_u3217h08ffd962912a45f8E
libstd-4e66027e5c9dd3e7.so:_ZN51_$LT$i128$u20$as$u20$core..fmt..num..DisplayInt$GT$6to_u6417h9e3f8aed304cabbdE
libstd-4e66027e5c9dd3e7.so:_ZN51_$LT$i128$u20$as$u20$core..fmt..num..DisplayInt$GT$7from_u817hbe40b5b46d1ad891E
libstd-4e66027e5c9dd3e7.so:_ZN51_$LT$i128$u20$as$u20$core..fmt..num..DisplayInt$GT$7to_u12817h26994e3c382ba5aeE
libstd-4e66027e5c9dd3e7.so:_ZN51_$LT$std..env..Args$u20$as$u20$core..fmt..Debug$GT$3fmt17h78f942b8631db9d6E
libstd-4e66027e5c9dd3e7.so:_ZN51_$LT$std..env..Vars$u20$as$u20$core..fmt..Debug$GT$3fmt17hdcf238e4bdd34b62E
libstd-4e66027e5c9dd3e7.so:_ZN51_$LT$u128$u20$as$u20$core..fmt..num..DisplayInt$GT$4zero17h8c861b08cb900e33E
libstd-4e66027e5c9dd3e7.so:_ZN51_$LT$u128$u20$as$u20$core..fmt..num..DisplayInt$GT$5to_u817h01a40f23954ac2e0E
libstd-4e66027e5c9dd3e7.so:_ZN51_$LT$u128$u20$as$u20$core..fmt..num..DisplayInt$GT$6to_u1617h05f151a60bcd879cE
libstd-4e66027e5c9dd3e7.so:_ZN51_$LT$u128$u20$as$u20$core..fmt..num..DisplayInt$GT$6to_u3217hcb0cb0c2a5818b94E
libstd-4e66027e5c9dd3e7.so:_ZN51_$LT$u128$u20$as$u20$core..fmt..num..DisplayInt$GT$6to_u6417hac1983a21f32b34dE
libstd-4e66027e5c9dd3e7.so:_ZN51_$LT$u128$u20$as$u20$core..fmt..num..DisplayInt$GT$7from_u817h6cf2661544f01a9eE
libstd-4e66027e5c9dd3e7.so:_ZN51_$LT$u128$u20$as$u20$core..fmt..num..DisplayInt$GT$7to_u12817hbf0f8d0c9f60e923E
libstd-4e66027e5c9dd3e7.so:_ZN52_$LT$$RF$std..fs..File$u20$as$u20$std..io..Write$GT$14write_vectored17h4dab515116547828E
libstd-4e66027e5c9dd3e7.so:_ZN52_$LT$$RF$std..fs..File$u20$as$u20$std..io..Write$GT$5flush17hc5370b0fd83ce7edE
libstd-4e66027e5c9dd3e7.so:_ZN52_$LT$$RF$std..fs..File$u20$as$u20$std..io..Write$GT$5write17h5bc26eee8ead379aE
libstd-4e66027e5c9dd3e7.so:_ZN52_$LT$isize$u20$as$u20$core..fmt..num..DisplayInt$GT$4zero17h27df1f3f32b626bdE
libstd-4e66027e5c9dd3e7.so:_ZN52_$LT$isize$u20$as$u20$core..fmt..num..DisplayInt$GT$5to_u817h8edc3477c14ab83dE
libstd-4e66027e5c9dd3e7.so:_ZN52_$LT$isize$u20$as$u20$core..fmt..num..DisplayInt$GT$6to_u1617hbbd3603c39c60b51E
libstd-4e66027e5c9dd3e7.so:_ZN52_$LT$isize$u20$as$u20$core..fmt..num..DisplayInt$GT$6to_u3217hfe8e3fc2e513d763E
libstd-4e66027e5c9dd3e7.so:_ZN52_$LT$isize$u20$as$u20$core..fmt..num..DisplayInt$GT$6to_u6417heab966dae5d6c470E
libstd-4e66027e5c9dd3e7.so:_ZN52_$LT$isize$u20$as$u20$core..fmt..num..DisplayInt$GT$7from_u817h411d7c32939d7c94E
libstd-4e66027e5c9dd3e7.so:_ZN52_$LT$isize$u20$as$u20$core..fmt..num..DisplayInt$GT$7to_u12817h46d3a1a3ef5d34a2E
libstd-4e66027e5c9dd3e7.so:_ZN52_$LT$isize$u20$as$u20$std..sys..unix..IsMinusOne$GT$12is_minus_one17hdda7041c6fe4d5beE
libstd-4e66027e5c9dd3e7.so:_ZN52_$LT$std..path..Iter$u20$as$u20$core..fmt..Debug$GT$3fmt17hc2343364f4f5e2cdE
libstd-4e66027e5c9dd3e7.so:_ZN52_$LT$std..path..Path$u20$as$u20$core..fmt..Debug$GT$3fmt17h87e9e5eff04d4a7dE
libstd-4e66027e5c9dd3e7.so:_ZN52_$LT$usize$u20$as$u20$core..fmt..num..DisplayInt$GT$4zero17h92169d0610f27bc4E
libstd-4e66027e5c9dd3e7.so:_ZN52_$LT$usize$u20$as$u20$core..fmt..num..DisplayInt$GT$5to_u817h963cbae829fef709E
libstd-4e66027e5c9dd3e7.so:_ZN52_$LT$usize$u20$as$u20$core..fmt..num..DisplayInt$GT$6to_u1617h70c67726db07c87dE
libstd-4e66027e5c9dd3e7.so:_ZN52_$LT$usize$u20$as$u20$core..fmt..num..DisplayInt$GT$6to_u3217he745a69a85ea2dcfE
libstd-4e66027e5c9dd3e7.so:_ZN52_$LT$usize$u20$as$u20$core..fmt..num..DisplayInt$GT$6to_u6417h63fc5c9cf52e2d8eE
libstd-4e66027e5c9dd3e7.so:_ZN52_$LT$usize$u20$as$u20$core..fmt..num..DisplayInt$GT$7from_u817h0fae85b52124c5e0E
libstd-4e66027e5c9dd3e7.so:_ZN52_$LT$usize$u20$as$u20$core..fmt..num..DisplayInt$GT$7to_u12817h5f987ad89c0ba22aE
libstd-4e66027e5c9dd3e7.so:_ZN53_$LT$adler..Adler32$u20$as$u20$core..hash..Hasher$GT$5write17h280fb062c2e454d7E
libstd-4e66027e5c9dd3e7.so:_ZN53_$LT$core..fmt..Error$u20$as$u20$core..fmt..Debug$GT$3fmt17hf28feef642f166ddE
libstd-4e66027e5c9dd3e7.so:_ZN53_$LT$gimli..arch..Arm$u20$as$u20$core..fmt..Debug$GT$3fmt17h99230d9520b82920E
libstd-4e66027e5c9dd3e7.so:_ZN53_$LT$gimli..arch..X86$u20$as$u20$core..fmt..Debug$GT$3fmt17h8a33f1e95c7ede7fE
libstd-4e66027e5c9dd3e7.so:_ZN53_$LT$memchr..cow..Imp$u20$as$u20$core..fmt..Debug$GT$3fmt17hf0ea46ce25a55da2E
libstd-4e66027e5c9dd3e7.so:_ZN53_$LT$object..pe..Guid$u20$as$u20$core..fmt..Debug$GT$3fmt17h1c3c925c82454ef7E
libstd-4e66027e5c9dd3e7.so:_ZN53_$LT$std..env..ArgsOs$u20$as$u20$core..fmt..Debug$GT$3fmt17hfae8924c0154cbaaE
libstd-4e66027e5c9dd3e7.so:_ZN53_$LT$std..env..VarsOs$u20$as$u20$core..fmt..Debug$GT$3fmt17hfc733ef78acca86dE
libstd-4e66027e5c9dd3e7.so:_ZN53_$LT$std..fs..ReadDir$u20$as$u20$core..fmt..Debug$GT$3fmt17h04cecec0df709326E
libstd-4e66027e5c9dd3e7.so:_ZN53_$LT$std..io..IoSlice$u20$as$u20$core..fmt..Debug$GT$3fmt17hae404efd36dc9325E
libstd-4e66027e5c9dd3e7.so:_ZN53_$LT$std..path..State$u20$as$u20$core..fmt..Debug$GT$3fmt17hb861280cc00c9271E
libstd-4e66027e5c9dd3e7.so:_ZN54_$LT$core..any..Demand$u20$as$u20$core..fmt..Debug$GT$3fmt17hfbde29823eb3fb64E
libstd-4e66027e5c9dd3e7.so:_ZN54_$LT$core..any..TypeId$u20$as$u20$core..fmt..Debug$GT$3fmt17h71dfd0b41688d2b3E
libstd-4e66027e5c9dd3e7.so:_ZN54_$LT$core..ffi..VaList$u20$as$u20$core..fmt..Debug$GT$3fmt17h9f99190b94493efcE
libstd-4e66027e5c9dd3e7.so:_ZN54_$LT$core..ffi..c_void$u20$as$u20$core..fmt..Debug$GT$3fmt17h79b87e9ad5bda5d1E
libstd-4e66027e5c9dd3e7.so:_ZN54_$LT$libc..unix..DIR$u20$as$u20$core..clone..Clone$GT$5clone17h6b6cc67612efe87eE
libstd-4e66027e5c9dd3e7.so:_ZN54_$LT$libc..unix..tms$u20$as$u20$core..clone..Clone$GT$5clone17h1d0ef406052eedb0E
libstd-4e66027e5c9dd3e7.so:_ZN54_$LT$std..fs..DirEntry$u20$as$u20$core..fmt..Debug$GT$3fmt17h27d4b935d5f10e46E
libstd-4e66027e5c9dd3e7.so:_ZN54_$LT$std..fs..FileType$u20$as$u20$core..fmt..Debug$GT$3fmt17hba478cea4bfd9488E
libstd-4e66027e5c9dd3e7.so:_ZN54_$LT$std..fs..Metadata$u20$as$u20$core..fmt..Debug$GT$3fmt17hcdba7a5ab9ed4903E
libstd-4e66027e5c9dd3e7.so:_ZN54_$LT$std..io..SeekFrom$u20$as$u20$core..fmt..Debug$GT$3fmt17hf0c54e600829c828E
libstd-4e66027e5c9dd3e7.so:_ZN54_$LT$std..io..util..Empty$u20$as$u20$std..io..Seek$GT$10stream_len17hef9e1a59cb8ac977E
libstd-4e66027e5c9dd3e7.so:_ZN54_$LT$std..io..util..Empty$u20$as$u20$std..io..Seek$GT$15stream_position17h04b879ad3678fa29E
libstd-4e66027e5c9dd3e7.so:_ZN54_$LT$std..io..util..Empty$u20$as$u20$std..io..Seek$GT$4seek17h0361a953c3813598E
libstd-4e66027e5c9dd3e7.so:_ZN54_$LT$std..path..Prefix$u20$as$u20$core..fmt..Debug$GT$3fmt17haa55725af95a12d7E
libstd-4e66027e5c9dd3e7.so:_ZN55_$LT$core..fmt..Error$u20$as$u20$core..error..Error$GT$11description17hd2862164890bf59eE
libstd-4e66027e5c9dd3e7.so:_ZN55_$LT$core..fmt..Error$u20$as$u20$core..fmt..Display$GT$3fmt17he5d7c30033ad20b8E
libstd-4e66027e5c9dd3e7.so:_ZN55_$LT$f32$u20$as$u20$core..fmt..float..GeneralFormat$GT$44already_rounded_value_should_use_exponential17h20e0c41d6372977fE
libstd-4e66027e5c9dd3e7.so:_ZN55_$LT$f64$u20$as$u20$core..fmt..float..GeneralFormat$GT$44already_rounded_value_should_use_exponential17h93aea0714c920dd0E
libstd-4e66027e5c9dd3e7.so:_ZN55_$LT$gimli..arch..RiscV$u20$as$u20$core..fmt..Debug$GT$3fmt17hef5a8750c318c395E
libstd-4e66027e5c9dd3e7.so:_ZN55_$LT$gimli..read..Error$u20$as$u20$core..fmt..Debug$GT$3fmt17h1f05d8283e49d78cE
libstd-4e66027e5c9dd3e7.so:_ZN55_$LT$libc..unix..FILE$u20$as$u20$core..clone..Clone$GT$5clone17ha9a1c6ec5a760f1aE
libstd-4e66027e5c9dd3e7.so:_ZN55_$LT$object..elf..Ident$u20$as$u20$core..fmt..Debug$GT$3fmt17hb9c8ae2dfdb6c2b2E
libstd-4e66027e5c9dd3e7.so:_ZN55_$LT$std..alloc..System$u20$as$u20$core..fmt..Debug$GT$3fmt17h9db434c7090beb4cE
libstd-4e66027e5c9dd3e7.so:_ZN55_$LT$std..env..VarError$u20$as$u20$core..fmt..Debug$GT$3fmt17h59a57b8a5e29d7a8E
libstd-4e66027e5c9dd3e7.so:_ZN55_$LT$std..fs..FileTimes$u20$as$u20$core..fmt..Debug$GT$3fmt17h38312a0c173fec80E
libstd-4e66027e5c9dd3e7.so:_ZN55_$LT$std..io..stdio..Stdin$u20$as$u20$std..io..Read$GT$10read_exact17h8062b783b9ec4167E
libstd-4e66027e5c9dd3e7.so:_ZN55_$LT$std..io..stdio..Stdin$u20$as$u20$std..io..Read$GT$11read_to_end17hd7c1aa8111030d81E
libstd-4e66027e5c9dd3e7.so:_ZN55_$LT$std..io..stdio..Stdin$u20$as$u20$std..io..Read$GT$13read_vectored17h751a5be970478240E
libstd-4e66027e5c9dd3e7.so:_ZN55_$LT$std..io..stdio..Stdin$u20$as$u20$std..io..Read$GT$14read_to_string17hd5be9064542a3d2cE
libstd-4e66027e5c9dd3e7.so:_ZN55_$LT$std..io..stdio..Stdin$u20$as$u20$std..io..Read$GT$4read17h029dbf2198fbdf6bE
libstd-4e66027e5c9dd3e7.so:_ZN55_$LT$std..io..util..Repeat$u20$as$u20$std..io..Read$GT$8read_buf17h8b9fed63e97676d5E
libstd-4e66027e5c9dd3e7.so:_ZN55_$LT$std..net..Shutdown$u20$as$u20$core..fmt..Debug$GT$3fmt17h61126fc3ca816c9cE
libstd-4e66027e5c9dd3e7.so:_ZN55_$LT$std..path..Display$u20$as$u20$core..fmt..Debug$GT$3fmt17h4f96977cb9491b65E
libstd-4e66027e5c9dd3e7.so:_ZN55_$LT$std..path..PathBuf$u20$as$u20$core..fmt..Debug$GT$3fmt17h4fc86c643eb175ccE
libstd-4e66027e5c9dd3e7.so:_ZN55_$LT$std..time..Instant$u20$as$u20$core..fmt..Debug$GT$3fmt17hfad333e842ae97b9E
libstd-4e66027e5c9dd3e7.so:_ZN56_$LT$core..cmp..Ordering$u20$as$u20$core..fmt..Debug$GT$3fmt17h3a3c5a81bc1b329eE
libstd-4e66027e5c9dd3e7.so:_ZN56_$LT$core..error..Source$u20$as$u20$core..fmt..Debug$GT$3fmt17h11f1305c45e15996E
libstd-4e66027e5c9dd3e7.so:_ZN56_$LT$gimli..arch..X86_64$u20$as$u20$core..fmt..Debug$GT$3fmt17h93c7e63530dbbfd5E
libstd-4e66027e5c9dd3e7.so:_ZN56_$LT$libc..unix..group$u20$as$u20$core..clone..Clone$GT$5clone17h10b4d8364442a4d2E
libstd-4e66027e5c9dd3e7.so:_ZN56_$LT$libc..unix..iovec$u20$as$u20$core..clone..Clone$GT$5clone17hc4116ada51fd2723E
libstd-4e66027e5c9dd3e7.so:_ZN56_$LT$object..read..Error$u20$as$u20$core..fmt..Debug$GT$3fmt17h1f60020a6c419adbE
libstd-4e66027e5c9dd3e7.so:_ZN56_$LT$std..fs..DirBuilder$u20$as$u20$core..fmt..Debug$GT$3fmt17ha245f0bba36ce0ffE
libstd-4e66027e5c9dd3e7.so:_ZN56_$LT$std..io..Guard$u20$as$u20$core..ops..drop..Drop$GT$4drop17hb87fd01ecda46dd4E
libstd-4e66027e5c9dd3e7.so:_ZN56_$LT$std..io..IoSliceMut$u20$as$u20$core..fmt..Debug$GT$3fmt17h79d1bc50c7b5df99E
libstd-4e66027e5c9dd3e7.so:_ZN56_$LT$std..io..util..Sink$u20$as$u20$core..fmt..Debug$GT$3fmt17hedf768eba5d12725E
libstd-4e66027e5c9dd3e7.so:_ZN56_$LT$std..process..Child$u20$as$u20$core..fmt..Debug$GT$3fmt17h7e646372e00a2f25E
libstd-4e66027e5c9dd3e7.so:_ZN56_$LT$std..process..Stdio$u20$as$u20$core..fmt..Debug$GT$3fmt17h31cec4d19bfe4494E
libstd-4e66027e5c9dd3e7.so:_ZN56_$LT$std..thread..Thread$u20$as$u20$core..fmt..Debug$GT$3fmt17hfcbca9df9f0c9d02E
libstd-4e66027e5c9dd3e7.so:_ZN57_$LT$alloc..alloc..Global$u20$as$u20$core..fmt..Debug$GT$3fmt17he50ae91645b6de06E
libstd-4e66027e5c9dd3e7.so:_ZN57_$LT$alloc..string..Drain$u20$as$u20$core..fmt..Debug$GT$3fmt17h2ebed5e1dc390020E
libstd-4e66027e5c9dd3e7.so:_ZN57_$LT$core..ffi..c_str..CStr$u20$as$u20$core..cmp..Ord$GT$3cmp17h583992ff6b573b13E
libstd-4e66027e5c9dd3e7.so:_ZN57_$LT$core..fmt..Alignment$u20$as$u20$core..fmt..Debug$GT$3fmt17h6c9917550339abd2E
libstd-4e66027e5c9dd3e7.so:_ZN57_$LT$core..fmt..Arguments$u20$as$u20$core..fmt..Debug$GT$3fmt17hdc57491b5366055fE
libstd-4e66027e5c9dd3e7.so:_ZN57_$LT$core..fmt..Formatter$u20$as$u20$core..fmt..Write$GT$10write_char17he59e214b06ad3e9fE
libstd-4e66027e5c9dd3e7.so:_ZN57_$LT$core..fmt..Formatter$u20$as$u20$core..fmt..Write$GT$9write_fmt17h4037ae436eb8a3c1E
libstd-4e66027e5c9dd3e7.so:_ZN57_$LT$core..fmt..Formatter$u20$as$u20$core..fmt..Write$GT$9write_str17h38274517ca2a1087E
libstd-4e66027e5c9dd3e7.so:_ZN57_$LT$core..num..fmt..Part$u20$as$u20$core..fmt..Debug$GT$3fmt17hc162b5f73698d02fE
libstd-4e66027e5c9dd3e7.so:_ZN57_$LT$core..time..Duration$u20$as$u20$core..fmt..Debug$GT$3fmt17hf1ef07aa85ca0bdaE
libstd-4e66027e5c9dd3e7.so:_ZN57_$LT$gimli..arch..AArch64$u20$as$u20$core..fmt..Debug$GT$3fmt17h90ddea68ce4b06adE
libstd-4e66027e5c9dd3e7.so:_ZN57_$LT$gimli..common..DwoId$u20$as$u20$core..fmt..Debug$GT$3fmt17haf94cc7d1464c56aE
libstd-4e66027e5c9dd3e7.so:_ZN57_$LT$libc..unix..fpos_t$u20$as$u20$core..clone..Clone$GT$5clone17hc54029f45cc54b8fE
libstd-4e66027e5c9dd3e7.so:_ZN57_$LT$libc..unix..linger$u20$as$u20$core..clone..Clone$GT$5clone17hb66d78698db774f2E
libstd-4e66027e5c9dd3e7.so:_ZN57_$LT$libc..unix..pollfd$u20$as$u20$core..clone..Clone$GT$5clone17h63b73b7d5e3bb457E
libstd-4e66027e5c9dd3e7.so:_ZN57_$LT$libc..unix..rlimit$u20$as$u20$core..clone..Clone$GT$5clone17h27cf80374688a4ddE
libstd-4e66027e5c9dd3e7.so:_ZN57_$LT$libc..unix..rusage$u20$as$u20$core..clone..Clone$GT$5clone17hcb0b16836a2a2ba6E
libstd-4e66027e5c9dd3e7.so:_ZN57_$LT$libc..unix..sigval$u20$as$u20$core..clone..Clone$GT$5clone17hdf5c47aaecae3e43E
libstd-4e66027e5c9dd3e7.so:_ZN57_$LT$miniz_oxide..MZError$u20$as$u20$core..fmt..Debug$GT$3fmt17h08ca28d91880672dE
libstd-4e66027e5c9dd3e7.so:_ZN57_$LT$miniz_oxide..MZFlush$u20$as$u20$core..fmt..Debug$GT$3fmt17h566e6805c7f836e4E
libstd-4e66027e5c9dd3e7.so:_ZN57_$LT$object..read..Export$u20$as$u20$core..fmt..Debug$GT$3fmt17h0d769d2a08638921E
libstd-4e66027e5c9dd3e7.so:_ZN57_$LT$object..read..Import$u20$as$u20$core..fmt..Debug$GT$3fmt17ha86d461b6ba20cb6E
libstd-4e66027e5c9dd3e7.so:_ZN57_$LT$std..env..SplitPaths$u20$as$u20$core..fmt..Debug$GT$3fmt17h323e707f9be023fdE
libstd-4e66027e5c9dd3e7.so:_ZN57_$LT$std..env..VarError$u20$as$u20$core..error..Error$GT$11description17h5a7a1bd5b6af12a2E
libstd-4e66027e5c9dd3e7.so:_ZN57_$LT$std..env..VarError$u20$as$u20$core..fmt..Display$GT$3fmt17h62a0116e1310febbE
libstd-4e66027e5c9dd3e7.so:_ZN57_$LT$std..fs..OpenOptions$u20$as$u20$core..fmt..Debug$GT$3fmt17h172fc0920b04ca94E
libstd-4e66027e5c9dd3e7.so:_ZN57_$LT$std..fs..Permissions$u20$as$u20$core..fmt..Debug$GT$3fmt17h9f75e55eb782d6aaE
libstd-4e66027e5c9dd3e7.so:_ZN57_$LT$std..io..stdio..Stderr$u20$as$u20$std..io..Write$GT$14write_vectored17h64d495bee101e9deE
libstd-4e66027e5c9dd3e7.so:_ZN57_$LT$std..io..stdio..Stderr$u20$as$u20$std..io..Write$GT$18write_all_vectored17h570ed02e9db57f46E
libstd-4e66027e5c9dd3e7.so:_ZN57_$LT$std..io..stdio..Stderr$u20$as$u20$std..io..Write$GT$5flush17hb24214e0253cc019E
libstd-4e66027e5c9dd3e7.so:_ZN57_$LT$std..io..stdio..Stderr$u20$as$u20$std..io..Write$GT$5write17h05326de334da96afE
libstd-4e66027e5c9dd3e7.so:_ZN57_$LT$std..io..stdio..Stderr$u20$as$u20$std..io..Write$GT$9write_all17hcd307a23ff5356c7E
libstd-4e66027e5c9dd3e7.so:_ZN57_$LT$std..io..stdio..Stderr$u20$as$u20$std..io..Write$GT$9write_fmt17hc94407c6e52192c5E
libstd-4e66027e5c9dd3e7.so:_ZN57_$LT$std..io..stdio..Stdout$u20$as$u20$std..io..Write$GT$14write_vectored17hcbd528733616ee6eE
libstd-4e66027e5c9dd3e7.so:_ZN57_$LT$std..io..stdio..Stdout$u20$as$u20$std..io..Write$GT$18write_all_vectored17haf5506423d417cddE
libstd-4e66027e5c9dd3e7.so:_ZN57_$LT$std..io..stdio..Stdout$u20$as$u20$std..io..Write$GT$5flush17h07a75aef25548ed1E
libstd-4e66027e5c9dd3e7.so:_ZN57_$LT$std..io..stdio..Stdout$u20$as$u20$std..io..Write$GT$5write17h6b63efa58dc9affeE
libstd-4e66027e5c9dd3e7.so:_ZN57_$LT$std..io..stdio..Stdout$u20$as$u20$std..io..Write$GT$9write_all17h1641498fca32c616E
libstd-4e66027e5c9dd3e7.so:_ZN57_$LT$std..io..stdio..Stdout$u20$as$u20$std..io..Write$GT$9write_fmt17h9522555605343a5cE
libstd-4e66027e5c9dd3e7.so:_ZN57_$LT$std..io..util..Empty$u20$as$u20$core..fmt..Debug$GT$3fmt17h2f891a52955314b8E
libstd-4e66027e5c9dd3e7.so:_ZN57_$LT$std..path..Ancestors$u20$as$u20$core..fmt..Debug$GT$3fmt17hd774c917305b489aE
libstd-4e66027e5c9dd3e7.so:_ZN57_$LT$std..path..Component$u20$as$u20$core..fmt..Debug$GT$3fmt17h7d52294ee93d5fdcE
libstd-4e66027e5c9dd3e7.so:_ZN57_$LT$std..path..Display$u20$as$u20$core..fmt..Display$GT$3fmt17hf648a3df4af85c64E
libstd-4e66027e5c9dd3e7.so:_ZN57_$LT$std..process..Output$u20$as$u20$core..fmt..Debug$GT$3fmt17h41f4660f796a257cE
libstd-4e66027e5c9dd3e7.so:_ZN57_$LT$std..thread..Builder$u20$as$u20$core..fmt..Debug$GT$3fmt17h55b7271351ddd6ffE
libstd-4e66027e5c9dd3e7.so:_ZN58_$LT$core..ffi..VaListImpl$u20$as$u20$core..fmt..Debug$GT$3fmt17hb0e45d9cef4e058fE
libstd-4e66027e5c9dd3e7.so:_ZN58_$LT$core..num..FpCategory$u20$as$u20$core..fmt..Debug$GT$3fmt17h7a1fe4936c50d9cfE
libstd-4e66027e5c9dd3e7.so:_ZN58_$LT$gimli..common..Format$u20$as$u20$core..fmt..Debug$GT$3fmt17he585194a96d95ae4E
libstd-4e66027e5c9dd3e7.so:_ZN58_$LT$libc..unix..hostent$u20$as$u20$core..clone..Clone$GT$5clone17hb0909eb87a225e7cE
libstd-4e66027e5c9dd3e7.so:_ZN58_$LT$libc..unix..servent$u20$as$u20$core..clone..Clone$GT$5clone17h4db5c61340c81b51E
libstd-4e66027e5c9dd3e7.so:_ZN58_$LT$libc..unix..timeval$u20$as$u20$core..clone..Clone$GT$5clone17ha1c3e82f0912e2dbE
libstd-4e66027e5c9dd3e7.so:_ZN58_$LT$libc..unix..utimbuf$u20$as$u20$core..clone..Clone$GT$5clone17he9fb382900bbd187E
libstd-4e66027e5c9dd3e7.so:_ZN58_$LT$libc..unix..winsize$u20$as$u20$core..clone..Clone$GT$5clone17h39c2ec3313024057E
libstd-4e66027e5c9dd3e7.so:_ZN58_$LT$memchr..cow..CowBytes$u20$as$u20$core..fmt..Debug$GT$3fmt17h270b2243492701a1E
libstd-4e66027e5c9dd3e7.so:_ZN58_$LT$miniz_oxide..MZStatus$u20$as$u20$core..fmt..Debug$GT$3fmt17h574ecefce483e0e2E
libstd-4e66027e5c9dd3e7.so:_ZN58_$LT$std..io..error..Error$u20$as$u20$core..fmt..Debug$GT$3fmt17ha78f71e1dcda3d9dE
libstd-4e66027e5c9dd3e7.so:_ZN58_$LT$std..io..stdio..Stdin$u20$as$u20$core..fmt..Debug$GT$3fmt17hd8a2e04a9963e247E
libstd-4e66027e5c9dd3e7.so:_ZN58_$LT$std..io..stdio..StdinRaw$u20$as$u20$std..io..Read$GT$11read_to_end17h0959a823f097e975E
libstd-4e66027e5c9dd3e7.so:_ZN58_$LT$std..io..stdio..StdinRaw$u20$as$u20$std..io..Read$GT$13read_vectored17h3498383433fd39d5E
libstd-4e66027e5c9dd3e7.so:_ZN58_$LT$std..io..stdio..StdinRaw$u20$as$u20$std..io..Read$GT$14read_to_string17hd9c3531cfdebcbe2E
libstd-4e66027e5c9dd3e7.so:_ZN58_$LT$std..io..stdio..StdinRaw$u20$as$u20$std..io..Read$GT$4read17h16d5355d7c2c5790E
libstd-4e66027e5c9dd3e7.so:_ZN58_$LT$std..io..util..Repeat$u20$as$u20$core..fmt..Debug$GT$3fmt17h787a0f938a4b9323E
libstd-4e66027e5c9dd3e7.so:_ZN58_$LT$std..net..tcp..TcpStream$u20$as$u20$std..io..Read$GT$13read_vectored17hc1456b7f9c3dd811E
libstd-4e66027e5c9dd3e7.so:_ZN58_$LT$std..net..tcp..TcpStream$u20$as$u20$std..io..Read$GT$4read17h3179561d5e6c20dfE
libstd-4e66027e5c9dd3e7.so:_ZN58_$LT$std..path..Components$u20$as$u20$core..fmt..Debug$GT$3fmt17h17e223c6ac49500aE
libstd-4e66027e5c9dd3e7.so:_ZN58_$LT$std..process..Command$u20$as$u20$core..fmt..Debug$GT$3fmt17hace10ae87bd83fedE
libstd-4e66027e5c9dd3e7.so:_ZN58_$LT$std..sync..once..Once$u20$as$u20$core..fmt..Debug$GT$3fmt17hc190b723ef564967E
libstd-4e66027e5c9dd3e7.so:_ZN58_$LT$std..thread..ThreadId$u20$as$u20$core..fmt..Debug$GT$3fmt17hb3d64ddfd4118884E
libstd-4e66027e5c9dd3e7.so:_ZN58_$LT$std..time..SystemTime$u20$as$u20$core..fmt..Debug$GT$3fmt17h37bd6963e431a797E
libstd-4e66027e5c9dd3e7.so:_ZN59_$LT$core..ffi..c_str..CStr$u20$as$u20$core..fmt..Debug$GT$3fmt17h3a2b9f684797aff8E
libstd-4e66027e5c9dd3e7.so:_ZN59_$LT$core..fmt..Arguments$u20$as$u20$core..fmt..Display$GT$3fmt17hff49c3d34308d7d3E
libstd-4e66027e5c9dd3e7.so:_ZN59_$LT$core..future..ResumeTy$u20$as$u20$core..fmt..Debug$GT$3fmt17h9c7b4808edb2375eE
libstd-4e66027e5c9dd3e7.so:_ZN59_$LT$core..hash..sip..State$u20$as$u20$core..fmt..Debug$GT$3fmt17h64d8c5161aa279d2E
libstd-4e66027e5c9dd3e7.so:_ZN59_$LT$core..str..iter..Bytes$u20$as$u20$core..fmt..Debug$GT$3fmt17hba1a3d0b3dbaac1fE
libstd-4e66027e5c9dd3e7.so:_ZN59_$LT$core..str..iter..Chars$u20$as$u20$core..fmt..Debug$GT$3fmt17h53aacca1c500d954E
libstd-4e66027e5c9dd3e7.so:_ZN59_$LT$core..str..iter..Lines$u20$as$u20$core..fmt..Debug$GT$3fmt17h86bf38f532a74e3fE
libstd-4e66027e5c9dd3e7.so:_ZN59_$LT$dyn$u20$core..any..Any$u20$as$u20$core..fmt..Debug$GT$3fmt17h2c87ebd5e776f6c2E
libstd-4e66027e5c9dd3e7.so:_ZN59_$LT$f32$u20$as$u20$core..num..dec2flt..float..RawFloat$GT$13from_u64_bits17hd2dccfb65a3e7cf5E
libstd-4e66027e5c9dd3e7.so:_ZN59_$LT$f32$u20$as$u20$core..num..dec2flt..float..RawFloat$GT$14integer_decode17h3f8c1e6b527c27e7E
libstd-4e66027e5c9dd3e7.so:_ZN59_$LT$f32$u20$as$u20$core..num..dec2flt..float..RawFloat$GT$15pow10_fast_path17hf4bba59fb7690b1bE
libstd-4e66027e5c9dd3e7.so:_ZN59_$LT$f32$u20$as$u20$core..num..dec2flt..float..RawFloat$GT$8classify17haa425b1d49025d07E
libstd-4e66027e5c9dd3e7.so:_ZN59_$LT$f32$u20$as$u20$core..num..dec2flt..float..RawFloat$GT$8from_u6417h9e3ee6570e8a8cfeE
libstd-4e66027e5c9dd3e7.so:_ZN59_$LT$f64$u20$as$u20$core..num..dec2flt..float..RawFloat$GT$13from_u64_bits17h3448158d28284906E
libstd-4e66027e5c9dd3e7.so:_ZN59_$LT$f64$u20$as$u20$core..num..dec2flt..float..RawFloat$GT$14integer_decode17h09b2ae7e605f8591E
libstd-4e66027e5c9dd3e7.so:_ZN59_$LT$f64$u20$as$u20$core..num..dec2flt..float..RawFloat$GT$15pow10_fast_path17hba3377664f3ab6a6E
libstd-4e66027e5c9dd3e7.so:_ZN59_$LT$f64$u20$as$u20$core..num..dec2flt..float..RawFloat$GT$8classify17heeee710c635e859bE
libstd-4e66027e5c9dd3e7.so:_ZN59_$LT$f64$u20$as$u20$core..num..dec2flt..float..RawFloat$GT$8from_u6417hb66989ae48feae70E
libstd-4e66027e5c9dd3e7.so:_ZN59_$LT$gimli..constants..DwAt$u20$as$u20$core..fmt..Debug$GT$3fmt17h310fa7418ffd2a14E
libstd-4e66027e5c9dd3e7.so:_ZN59_$LT$gimli..constants..DwCc$u20$as$u20$core..fmt..Debug$GT$3fmt17h02f676adcd1e3a89E
libstd-4e66027e5c9dd3e7.so:_ZN59_$LT$gimli..constants..DwDs$u20$as$u20$core..fmt..Debug$GT$3fmt17h4611065ef8120dc5E
libstd-4e66027e5c9dd3e7.so:_ZN59_$LT$gimli..constants..DwId$u20$as$u20$core..fmt..Debug$GT$3fmt17hebe55bc90f72a8f3E
libstd-4e66027e5c9dd3e7.so:_ZN59_$LT$gimli..constants..DwOp$u20$as$u20$core..fmt..Debug$GT$3fmt17h7081dbe851393576E
libstd-4e66027e5c9dd3e7.so:_ZN59_$LT$gimli..constants..DwUt$u20$as$u20$core..fmt..Debug$GT$3fmt17hbf6af8381b0b529dE
libstd-4e66027e5c9dd3e7.so:_ZN59_$LT$libc..unix..protoent$u20$as$u20$core..clone..Clone$GT$5clone17hcbe66311c9051322E
libstd-4e66027e5c9dd3e7.so:_ZN59_$LT$libc..unix..timespec$u20$as$u20$core..clone..Clone$GT$5clone17h58907b1f2c8d4785E
libstd-4e66027e5c9dd3e7.so:_ZN59_$LT$memchr..memmem..Finder$u20$as$u20$core..fmt..Debug$GT$3fmt17h42915f7ebfa30fd5E
libstd-4e66027e5c9dd3e7.so:_ZN59_$LT$object..read..CodeView$u20$as$u20$core..fmt..Debug$GT$3fmt17hda54ed3f433caee4E
libstd-4e66027e5c9dd3e7.so:_ZN59_$LT$object..read..FileKind$u20$as$u20$core..fmt..Debug$GT$3fmt17h6787cea8fdc7adfbE
libstd-4e66027e5c9dd3e7.so:_ZN59_$LT$std..io..error..Custom$u20$as$u20$core..fmt..Debug$GT$3fmt17hc4b605f18b6b0af2E
libstd-4e66027e5c9dd3e7.so:_ZN59_$LT$std..io..stdio..Stderr$u20$as$u20$core..fmt..Debug$GT$3fmt17h6560078915929e69E
libstd-4e66027e5c9dd3e7.so:_ZN59_$LT$std..io..stdio..StdinLock$u20$as$u20$std..io..Read$GT$10read_exact17h6540aee5e6b657d1E
libstd-4e66027e5c9dd3e7.so:_ZN59_$LT$std..io..stdio..StdinLock$u20$as$u20$std..io..Read$GT$11read_to_end17h5151c3e47cd91e94E
libstd-4e66027e5c9dd3e7.so:_ZN59_$LT$std..io..stdio..StdinLock$u20$as$u20$std..io..Read$GT$13read_vectored17h34c2cab28e4b2265E
libstd-4e66027e5c9dd3e7.so:_ZN59_$LT$std..io..stdio..StdinLock$u20$as$u20$std..io..Read$GT$14read_to_string17h358e72af8938b416E
libstd-4e66027e5c9dd3e7.so:_ZN59_$LT$std..io..stdio..StdinLock$u20$as$u20$std..io..Read$GT$4read17h7f121e61c0ee754fE
libstd-4e66027e5c9dd3e7.so:_ZN59_$LT$std..io..stdio..Stdout$u20$as$u20$core..fmt..Debug$GT$3fmt17h855591e51d392326E
libstd-4e66027e5c9dd3e7.so:_ZN59_$LT$std..net..tcp..TcpStream$u20$as$u20$std..io..Write$GT$14write_vectored17h42efbd996b3329dcE
libstd-4e66027e5c9dd3e7.so:_ZN59_$LT$std..net..tcp..TcpStream$u20$as$u20$std..io..Write$GT$5flush17h4028881c00b0180bE
libstd-4e66027e5c9dd3e7.so:_ZN59_$LT$std..net..tcp..TcpStream$u20$as$u20$std..io..Write$GT$5write17h0353171a46fc1229E
libstd-4e66027e5c9dd3e7.so:_ZN59_$LT$std..process..ChildStderr$u20$as$u20$std..io..Read$GT$13read_vectored17h6313e09dbe7b9117E
libstd-4e66027e5c9dd3e7.so:_ZN59_$LT$std..process..ChildStderr$u20$as$u20$std..io..Read$GT$4read17hdaa4bc8dc092bafeE
libstd-4e66027e5c9dd3e7.so:_ZN59_$LT$std..process..ChildStdin$u20$as$u20$std..io..Write$GT$14write_vectored17h1c2eb5492f63b298E
libstd-4e66027e5c9dd3e7.so:_ZN59_$LT$std..process..ChildStdin$u20$as$u20$std..io..Write$GT$17is_write_vectored17h9a10c9a56df3f4d8E
libstd-4e66027e5c9dd3e7.so:_ZN59_$LT$std..process..ChildStdin$u20$as$u20$std..io..Write$GT$5flush17h03125639120bc7d0E
libstd-4e66027e5c9dd3e7.so:_ZN59_$LT$std..process..ChildStdin$u20$as$u20$std..io..Write$GT$5write17hb8175676c03b4d09E
libstd-4e66027e5c9dd3e7.so:_ZN59_$LT$std..process..ChildStdout$u20$as$u20$std..io..Read$GT$11read_to_end17h6a59655161919e0cE
libstd-4e66027e5c9dd3e7.so:_ZN59_$LT$std..process..ChildStdout$u20$as$u20$std..io..Read$GT$13read_vectored17hc234368f5841ef6fE
libstd-4e66027e5c9dd3e7.so:_ZN59_$LT$std..process..ChildStdout$u20$as$u20$std..io..Read$GT$4read17h319c99061a5a4695E
libstd-4e66027e5c9dd3e7.so:_ZN59_$LT$std..process..ExitCode$u20$as$u20$core..fmt..Debug$GT$3fmt17h4f9f7e49339bcc22E
libstd-4e66027e5c9dd3e7.so:_ZN5adler13adler32_slice17h91396661d0ae367cE
libstd-4e66027e5c9dd3e7.so:_ZN5adler7Adler3211write_slice17h228ed33c3b7192aeE
libstd-4e66027e5c9dd3e7.so:_ZN5alloc11collections5btree4node10splitpoint17h925676909e412892E
libstd-4e66027e5c9dd3e7.so:_ZN5alloc2rc29rcbox_layout_for_value_layout17he6030c428f923696E
libstd-4e66027e5c9dd3e7.so:_ZN5alloc3ffi5c_str100_$LT$impl$u20$core..default..Default$u20$for$u20$alloc..boxed..Box$LT$core..ffi..c_str..CStr$GT$$GT$7default17h3079273fbc1e7c86E
libstd-4e66027e5c9dd3e7.so:_ZN5alloc3ffi5c_str131_$LT$impl$u20$core..convert..From$LT$$RF$core..ffi..c_str..CStr$GT$$u20$for$u20$alloc..boxed..Box$LT$core..ffi..c_str..CStr$GT$$GT$4from17ha8ce547942c138feE
libstd-4e66027e5c9dd3e7.so:_ZN5alloc3ffi5c_str15IntoStringError10utf8_error17h08132ee1d238b796E
libstd-4e66027e5c9dd3e7.so:_ZN5alloc3ffi5c_str15IntoStringError12into_cstring17h61e69beaed6711b8E
libstd-4e66027e5c9dd3e7.so:_ZN5alloc3ffi5c_str15IntoStringError8__source17h6bcf4faf42169849E
libstd-4e66027e5c9dd3e7.so:_ZN5alloc3ffi5c_str19FromVecWithNulError10into_bytes17h67efeb5a49cf1fa0E
libstd-4e66027e5c9dd3e7.so:_ZN5alloc3ffi5c_str19FromVecWithNulError8as_bytes17h50c4b9aab07d8efdE
libstd-4e66027e5c9dd3e7.so:_ZN5alloc3ffi5c_str40_$LT$impl$u20$core..ffi..c_str..CStr$GT$13into_c_string17hdc7835ea249cf565E
libstd-4e66027e5c9dd3e7.so:_ZN5alloc3ffi5c_str40_$LT$impl$u20$core..ffi..c_str..CStr$GT$15to_string_lossy17h9381fbd5679bba9bE
libstd-4e66027e5c9dd3e7.so:_ZN5alloc3ffi5c_str75_$LT$impl$u20$alloc..borrow..ToOwned$u20$for$u20$core..ffi..c_str..CStr$GT$10clone_into17h876f8be3241c0452E
libstd-4e66027e5c9dd3e7.so:_ZN5alloc3ffi5c_str75_$LT$impl$u20$alloc..borrow..ToOwned$u20$for$u20$core..ffi..c_str..CStr$GT$8to_owned17h00c7b2d6ed95b3ccE
libstd-4e66027e5c9dd3e7.so:_ZN5alloc3ffi5c_str7CString10into_bytes17h3008f1cb541d3988E
libstd-4e66027e5c9dd3e7.so:_ZN5alloc3ffi5c_str7CString11into_string17h93e95df4873d83e2E
libstd-4e66027e5c9dd3e7.so:_ZN5alloc3ffi5c_str7CString16into_boxed_c_str17ha22062db1b876d7eE
libstd-4e66027e5c9dd3e7.so:_ZN5alloc3ffi5c_str7CString17from_vec_with_nul17h5019fc63c4869298E
libstd-4e66027e5c9dd3e7.so:_ZN5alloc3ffi5c_str7CString18from_vec_unchecked17h5f9b9179dd1f76e2E
libstd-4e66027e5c9dd3e7.so:_ZN5alloc3ffi5c_str7CString19_from_vec_unchecked17h8d05997699c67bcdE
libstd-4e66027e5c9dd3e7.so:_ZN5alloc3ffi5c_str7CString19into_bytes_with_nul17h582b2f2a05e030dcE
libstd-4e66027e5c9dd3e7.so:_ZN5alloc3ffi5c_str7CString27from_vec_with_nul_unchecked17hae92b7b94b6a135aE
libstd-4e66027e5c9dd3e7.so:_ZN5alloc3ffi5c_str7CString8from_raw17h8f4ced25f2d8b4d5E
libstd-4e66027e5c9dd3e7.so:_ZN5alloc3ffi5c_str8NulError12nul_position17h236c7bfd7cc00d0aE
libstd-4e66027e5c9dd3e7.so:_ZN5alloc3ffi5c_str8NulError8into_vec17h6e62b9bf40f4bcccE
libstd-4e66027e5c9dd3e7.so:_ZN5alloc3fmt6format12format_inner17h46b23a9200bb4727E
libstd-4e66027e5c9dd3e7.so:_ZN5alloc3str21_$LT$impl$u20$str$GT$12to_lowercase17ha4ca68887236679dE
libstd-4e66027e5c9dd3e7.so:_ZN5alloc3str21_$LT$impl$u20$str$GT$12to_uppercase17hdc4e85aa7c4cfd1aE
libstd-4e66027e5c9dd3e7.so:_ZN5alloc3str21_$LT$impl$u20$str$GT$6repeat17hb5fc1c8847aa97ebE
libstd-4e66027e5c9dd3e7.so:_ZN5alloc3str56_$LT$impl$u20$alloc..borrow..ToOwned$u20$for$u20$str$GT$10clone_into17hc3e02e5878325b5bE
libstd-4e66027e5c9dd3e7.so:_ZN5alloc3vec16Vec$LT$T$C$A$GT$11swap_remove13assert_failed17hb2cbb36969126165E
libstd-4e66027e5c9dd3e7.so:_ZN5alloc3vec16Vec$LT$T$C$A$GT$6insert13assert_failed17hce8cedfd979cd659E
libstd-4e66027e5c9dd3e7.so:_ZN5alloc3vec16Vec$LT$T$C$A$GT$6remove13assert_failed17hc48c8ae1de5cd299E
libstd-4e66027e5c9dd3e7.so:_ZN5alloc3vec16Vec$LT$T$C$A$GT$9split_off13assert_failed17h8f9239d6ca3a43a5E
libstd-4e66027e5c9dd3e7.so:_ZN5alloc4sync32arcinner_layout_for_value_layout17h961d3374a172dc1dE
libstd-4e66027e5c9dd3e7.so:_ZN5alloc5alloc18handle_alloc_error17h66fa703071d466ffE
libstd-4e66027e5c9dd3e7.so:_ZN5alloc5alloc18handle_alloc_error8ct_error17hbedb7ab9a76fa2c4E
libstd-4e66027e5c9dd3e7.so:_ZN5alloc5alloc18handle_alloc_error8rt_error17hbfbef7da840bec5aE
libstd-4e66027e5c9dd3e7.so:_ZN5alloc6string104_$LT$impl$u20$core..convert..From$LT$alloc..string..String$GT$$u20$for$u20$alloc..vec..Vec$LT$u8$GT$$GT$4from17hbc511e9d64da5b0bE
libstd-4e66027e5c9dd3e7.so:_ZN5alloc6string107_$LT$impl$u20$core..convert..From$LT$alloc..string..String$GT$$u20$for$u20$alloc..boxed..Box$LT$str$GT$$GT$4from17h423df3d08c3d3b45E
libstd-4e66027e5c9dd3e7.so:_ZN5alloc6string13FromUtf8Error10into_bytes17h278ce1695430f892E
libstd-4e66027e5c9dd3e7.so:_ZN5alloc6string13FromUtf8Error10utf8_error17h1d1adc84c5a4c149E
libstd-4e66027e5c9dd3e7.so:_ZN5alloc6string13FromUtf8Error8as_bytes17h6696d9c90def655cE
libstd-4e66027e5c9dd3e7.so:_ZN5alloc6string5Drain6as_str17ha2f70a95c4dfef94E
libstd-4e66027e5c9dd3e7.so:_ZN5alloc6string6String10from_utf1617h34783e4e5491a5ecE
libstd-4e66027e5c9dd3e7.so:_ZN5alloc6string6String11try_reserve17h539d6eda7a001d1eE
libstd-4e66027e5c9dd3e7.so:_ZN5alloc6string6String12insert_bytes17h2fa7b405cf4076beE
libstd-4e66027e5c9dd3e7.so:_ZN5alloc6string6String14into_raw_parts17hd3afcb203d9325f0E
libstd-4e66027e5c9dd3e7.so:_ZN5alloc6string6String15from_utf8_lossy17h2c1376727323c776E
libstd-4e66027e5c9dd3e7.so:_ZN5alloc6string6String17try_reserve_exact17h3d9fd7f20cb9f831E
libstd-4e66027e5c9dd3e7.so:_ZN5alloc7raw_vec17capacity_overflow17h69903416ad8b9fafE
libstd-4e66027e5c9dd3e7.so:_ZN5gimli4arch3Arm13register_name17he1caf19c0415c2b8E
libstd-4e66027e5c9dd3e7.so:_ZN5gimli4arch3Arm16name_to_register17h83d36a4a7de527d5E
libstd-4e66027e5c9dd3e7.so:_ZN5gimli4arch3X8613register_name17h4f64117b64e3df48E
libstd-4e66027e5c9dd3e7.so:_ZN5gimli4arch3X8616name_to_register17h61d2f71a83b1a047E
libstd-4e66027e5c9dd3e7.so:_ZN5gimli4arch5RiscV13register_name17hf79e4e7e36dcbab2E
libstd-4e66027e5c9dd3e7.so:_ZN5gimli4arch5RiscV16name_to_register17h41d32838d0b8e44eE
libstd-4e66027e5c9dd3e7.so:_ZN5gimli4arch6X86_6413register_name17hcd6e87b9cc8d9a44E
libstd-4e66027e5c9dd3e7.so:_ZN5gimli4arch6X86_6416name_to_register17h119e2a381aa509acE
libstd-4e66027e5c9dd3e7.so:_ZN5gimli4arch7AArch6413register_name17he5038cdb9442a831E
libstd-4e66027e5c9dd3e7.so:_ZN5gimli4arch7AArch6416name_to_register17h4867ca21f686a400E
libstd-4e66027e5c9dd3e7.so:_ZN5gimli4read41_$LT$impl$u20$gimli..common..Register$GT$8from_u6417h81bd6b684c03c8a9E
libstd-4e66027e5c9dd3e7.so:_ZN5gimli4read4line7LineRow18apply_line_advance17hcfc136af9620fe8cE
libstd-4e66027e5c9dd3e7.so:_ZN5gimli4read4unit20allow_section_offset17h880e57ce56c6be4eE
libstd-4e66027e5c9dd3e7.so:_ZN5gimli4read5Error11description17h3797f0d22e0e9157E
libstd-4e66027e5c9dd3e7.so:_ZN5gimli4read5value5Value10value_type17h93012ac00a0daa20E
libstd-4e66027e5c9dd3e7.so:_ZN5gimli4read5value5Value11reinterpret17h0b3aae57745462dbE
libstd-4e66027e5c9dd3e7.so:_ZN5gimli4read5value5Value2eq17hcf376c6109f6ebf7E
libstd-4e66027e5c9dd3e7.so:_ZN5gimli4read5value5Value2ge17h79d29c4315cd1098E
libstd-4e66027e5c9dd3e7.so:_ZN5gimli4read5value5Value2gt17h4b4faf034d3c4b0cE
libstd-4e66027e5c9dd3e7.so:_ZN5gimli4read5value5Value2le17had8cd0f2165516caE
libstd-4e66027e5c9dd3e7.so:_ZN5gimli4read5value5Value2lt17hf301ab09fd8d6048E
libstd-4e66027e5c9dd3e7.so:_ZN5gimli4read5value5Value2ne17hdfe0b51720b52833E
libstd-4e66027e5c9dd3e7.so:_ZN5gimli4read5value5Value2or17h87354b7c1216f5bcE
libstd-4e66027e5c9dd3e7.so:_ZN5gimli4read5value5Value3abs17hfe402549f418bd96E
libstd-4e66027e5c9dd3e7.so:_ZN5gimli4read5value5Value3add17hb074ec5050e68363E
libstd-4e66027e5c9dd3e7.so:_ZN5gimli4read5value5Value3and17h69f136e6ccfa5c4fE
libstd-4e66027e5c9dd3e7.so:_ZN5gimli4read5value5Value3div17h109747c172d38cc2E
libstd-4e66027e5c9dd3e7.so:_ZN5gimli4read5value5Value3mul17hc9d3efee7788dc4aE
libstd-4e66027e5c9dd3e7.so:_ZN5gimli4read5value5Value3neg17hdbf86129be18295dE
libstd-4e66027e5c9dd3e7.so:_ZN5gimli4read5value5Value3not17h7cb34570b86a355eE
libstd-4e66027e5c9dd3e7.so:_ZN5gimli4read5value5Value3rem17h4e81fe300cf1e100E
libstd-4e66027e5c9dd3e7.so:_ZN5gimli4read5value5Value3shl17heaac5fa3064e0004E
libstd-4e66027e5c9dd3e7.so:_ZN5gimli4read5value5Value3shr17hd98eb83917b0d580E
libstd-4e66027e5c9dd3e7.so:_ZN5gimli4read5value5Value3sub17h593a0c05ac8127e8E
libstd-4e66027e5c9dd3e7.so:_ZN5gimli4read5value5Value3xor17h3e1db16019017186E
libstd-4e66027e5c9dd3e7.so:_ZN5gimli4read5value5Value4shra17hd6cab108d9a9cb1cE
libstd-4e66027e5c9dd3e7.so:_ZN5gimli4read5value5Value6to_u6417h946c9325dc5a627bE
libstd-4e66027e5c9dd3e7.so:_ZN5gimli4read5value5Value7convert17hc0d4eeb35a197700E
libstd-4e66027e5c9dd3e7.so:_ZN5gimli4read5value5Value8from_u6417h81f480fc6a90a569E
libstd-4e66027e5c9dd3e7.so:_ZN5gimli4read5value9ValueType13from_encoding17hc6a586e48e0751d1E
libstd-4e66027e5c9dd3e7.so:_ZN5gimli4read5value9ValueType8bit_size17h8e173162f4d2d038E
libstd-4e66027e5c9dd3e7.so:_ZN5gimli4read6abbrev10Attributes3new17h6f38eff4073e510dE
libstd-4e66027e5c9dd3e7.so:_ZN5gimli4read6abbrev10Attributes4push17h264b9239ba961fd4E
libstd-4e66027e5c9dd3e7.so:_ZN5gimli4read6abbrev12Abbreviation3new17h414f4fd704068c5eE
libstd-4e66027e5c9dd3e7.so:_ZN5gimli4read6abbrev13Abbreviations5empty17h8d40a43c452eab87E
libstd-4e66027e5c9dd3e7.so:_ZN5gimli4read6abbrev13Abbreviations6insert17h7dbf5555d8527f2fE
libstd-4e66027e5c9dd3e7.so:_ZN5gimli6common9SectionId4name17hb8e1207a9d0a911bE
libstd-4e66027e5c9dd3e7.so:_ZN5gimli6common9SectionId8dwo_name17h0de76dfdbff98c5aE
libstd-4e66027e5c9dd3e7.so:_ZN5gimli9constants10DwChildren13static_string17h399c30b3c921a104E
libstd-4e66027e5c9dd3e7.so:_ZN5gimli9constants11DwDefaulted13static_string17hf5a0f6e8b4b3673eE
libstd-4e66027e5c9dd3e7.so:_ZN5gimli9constants12DwVirtuality13static_string17hc31ce080940879b7E
libstd-4e66027e5c9dd3e7.so:_ZN5gimli9constants4DwAt13static_string17h52503ea6b47b7930E
libstd-4e66027e5c9dd3e7.so:_ZN5gimli9constants4DwCc13static_string17h320d03bd0c7e1195E
libstd-4e66027e5c9dd3e7.so:_ZN5gimli9constants4DwDs13static_string17h448c3702041a735dE
libstd-4e66027e5c9dd3e7.so:_ZN5gimli9constants4DwId13static_string17h250b8eb6d3b7f7baE
libstd-4e66027e5c9dd3e7.so:_ZN5gimli9constants4DwOp13static_string17h687fb53dc4e25931E
libstd-4e66027e5c9dd3e7.so:_ZN5gimli9constants4DwUt13static_string17hfbde197f5a9289feE
libstd-4e66027e5c9dd3e7.so:_ZN5gimli9constants5DwAte13static_string17hb88459af678b5effE
libstd-4e66027e5c9dd3e7.so:_ZN5gimli9constants5DwCfa13static_string17h120711162b1f235dE
libstd-4e66027e5c9dd3e7.so:_ZN5gimli9constants5DwDsc13static_string17h2a828cd15f2f9c4eE
libstd-4e66027e5c9dd3e7.so:_ZN5gimli9constants5DwEnd13static_string17h0b297eb0b7c649a0E
libstd-4e66027e5c9dd3e7.so:_ZN5gimli9constants5DwIdx13static_string17h308fa48ccd3a8741E
libstd-4e66027e5c9dd3e7.so:_ZN5gimli9constants5DwInl13static_string17ha507a79b2ec89b67E
libstd-4e66027e5c9dd3e7.so:_ZN5gimli9constants5DwLle13static_string17hf2eef96a0354560bE
libstd-4e66027e5c9dd3e7.so:_ZN5gimli9constants5DwLne13static_string17h7a89b049569ea075E
libstd-4e66027e5c9dd3e7.so:_ZN5gimli9constants5DwLns13static_string17h473ddb0a10fb7907E
libstd-4e66027e5c9dd3e7.so:_ZN5gimli9constants5DwOrd13static_string17hbdc1dfbbbd402e26E
libstd-4e66027e5c9dd3e7.so:_ZN5gimli9constants5DwRle13static_string17h4a11776faa0bbe7fE
libstd-4e66027e5c9dd3e7.so:_ZN5gimli9constants5DwTag13static_string17hee60862ae114bf01E
libstd-4e66027e5c9dd3e7.so:_ZN5gimli9constants5DwVis13static_string17h6c4329265bb1ad6cE
libstd-4e66027e5c9dd3e7.so:_ZN5gimli9constants6DwAddr13static_string17h96ab81640b04eb89E
libstd-4e66027e5c9dd3e7.so:_ZN5gimli9constants6DwEhPe13static_string17h7ef05f37ee5b9f60E
libstd-4e66027e5c9dd3e7.so:_ZN5gimli9constants6DwEhPe17is_valid_encoding17h8d3ffc032c0c5c11E
libstd-4e66027e5c9dd3e7.so:_ZN5gimli9constants6DwForm13static_string17h17c7b1c6a89bdc49E
libstd-4e66027e5c9dd3e7.so:_ZN5gimli9constants6DwLang13static_string17hdd81ef37066f7802E
libstd-4e66027e5c9dd3e7.so:_ZN5gimli9constants6DwLang19default_lower_bound17h7d5348ec6964f396E
libstd-4e66027e5c9dd3e7.so:_ZN5gimli9constants6DwLnct13static_string17h25c4b91ac1f49972E
libstd-4e66027e5c9dd3e7.so:_ZN5gimli9constants6DwSect13static_string17h4c85149e8f221e0cE
libstd-4e66027e5c9dd3e7.so:_ZN5gimli9constants7DwMacro13static_string17h23f5394ad40bff62E
libstd-4e66027e5c9dd3e7.so:_ZN5gimli9constants8DwAccess13static_string17h6be27137b643c7ebE
libstd-4e66027e5c9dd3e7.so:_ZN5gimli9constants8DwSectV213static_string17h43b0891304a9f205E
libstd-4e66027e5c9dd3e7.so:_ZN60_$LT$alloc..string..String$u20$as$u20$core..clone..Clone$GT$10clone_from17h4baada0634365ab3E
libstd-4e66027e5c9dd3e7.so:_ZN60_$LT$alloc..string..String$u20$as$u20$core..clone..Clone$GT$5clone17h30f95efd2d8d4ba5E
libstd-4e66027e5c9dd3e7.so:_ZN60_$LT$core..alloc..AllocError$u20$as$u20$core..fmt..Debug$GT$3fmt17hc34ca1459207bd7fE
libstd-4e66027e5c9dd3e7.so:_ZN60_$LT$core..cell..BorrowError$u20$as$u20$core..fmt..Debug$GT$3fmt17hafd8b3ad27e1cf9dE
libstd-4e66027e5c9dd3e7.so:_ZN60_$LT$core..char..EscapeDebug$u20$as$u20$core..fmt..Debug$GT$3fmt17ha1834022ac19a7abE
libstd-4e66027e5c9dd3e7.so:_ZN60_$LT$core..char..ToLowercase$u20$as$u20$core..fmt..Debug$GT$3fmt17h90a0d814b74ac791E
libstd-4e66027e5c9dd3e7.so:_ZN60_$LT$core..char..ToUppercase$u20$as$u20$core..fmt..Debug$GT$3fmt17h5bbde1fba4e21986E
libstd-4e66027e5c9dd3e7.so:_ZN60_$LT$core..convert..Infallible$u20$as$u20$core..cmp..Ord$GT$3cmp17h3dace09ed0b2dc8aE
libstd-4e66027e5c9dd3e7.so:_ZN60_$LT$core..str..lossy..Debug$u20$as$u20$core..fmt..Debug$GT$3fmt17h2a2fdb36e825dd7dE
libstd-4e66027e5c9dd3e7.so:_ZN60_$LT$core..task..wake..Waker$u20$as$u20$core..fmt..Debug$GT$3fmt17hf329af18291423d1E
libstd-4e66027e5c9dd3e7.so:_ZN60_$LT$gimli..common..Encoding$u20$as$u20$core..fmt..Debug$GT$3fmt17hbf998814a95efb49E
libstd-4e66027e5c9dd3e7.so:_ZN60_$LT$gimli..common..Register$u20$as$u20$core..fmt..Debug$GT$3fmt17hd08d6e5122f64604E
libstd-4e66027e5c9dd3e7.so:_ZN60_$LT$gimli..constants..DwAte$u20$as$u20$core..fmt..Debug$GT$3fmt17h5d064293c3af5493E
libstd-4e66027e5c9dd3e7.so:_ZN60_$LT$gimli..constants..DwCfa$u20$as$u20$core..fmt..Debug$GT$3fmt17h1466e5445dc7acadE
libstd-4e66027e5c9dd3e7.so:_ZN60_$LT$gimli..constants..DwDsc$u20$as$u20$core..fmt..Debug$GT$3fmt17h15ec88647152ed42E
libstd-4e66027e5c9dd3e7.so:_ZN60_$LT$gimli..constants..DwEnd$u20$as$u20$core..fmt..Debug$GT$3fmt17hc001ccdb5c428714E
libstd-4e66027e5c9dd3e7.so:_ZN60_$LT$gimli..constants..DwIdx$u20$as$u20$core..fmt..Debug$GT$3fmt17hff92a84907be0760E
libstd-4e66027e5c9dd3e7.so:_ZN60_$LT$gimli..constants..DwInl$u20$as$u20$core..fmt..Debug$GT$3fmt17h16840dc8569f1feeE
libstd-4e66027e5c9dd3e7.so:_ZN60_$LT$gimli..constants..DwLle$u20$as$u20$core..fmt..Debug$GT$3fmt17hfa2cdcea61423b40E
libstd-4e66027e5c9dd3e7.so:_ZN60_$LT$gimli..constants..DwLne$u20$as$u20$core..fmt..Debug$GT$3fmt17h113192161b6622d8E
libstd-4e66027e5c9dd3e7.so:_ZN60_$LT$gimli..constants..DwLns$u20$as$u20$core..fmt..Debug$GT$3fmt17hab337b9f16e4e64fE
libstd-4e66027e5c9dd3e7.so:_ZN60_$LT$gimli..constants..DwOrd$u20$as$u20$core..fmt..Debug$GT$3fmt17h1e021089002232e3E
libstd-4e66027e5c9dd3e7.so:_ZN60_$LT$gimli..constants..DwRle$u20$as$u20$core..fmt..Debug$GT$3fmt17h7e204c240def9730E
libstd-4e66027e5c9dd3e7.so:_ZN60_$LT$gimli..constants..DwTag$u20$as$u20$core..fmt..Debug$GT$3fmt17h1f7da17e92d4513fE
libstd-4e66027e5c9dd3e7.so:_ZN60_$LT$gimli..constants..DwVis$u20$as$u20$core..fmt..Debug$GT$3fmt17h1fdb8eb642af2fcaE
libstd-4e66027e5c9dd3e7.so:_ZN60_$LT$libc..unix..ipv6_mreq$u20$as$u20$core..clone..Clone$GT$5clone17h28e85af8fc462343E
libstd-4e66027e5c9dd3e7.so:_ZN60_$LT$libc..unix..itimerval$u20$as$u20$core..clone..Clone$GT$5clone17h1db441cb8a7044d1E
libstd-4e66027e5c9dd3e7.so:_ZN60_$LT$miniz_oxide..DataFormat$u20$as$u20$core..fmt..Debug$GT$3fmt17he308148823189872E
libstd-4e66027e5c9dd3e7.so:_ZN60_$LT$object..archive..Header$u20$as$u20$core..fmt..Debug$GT$3fmt17h5102936b90be525fE
libstd-4e66027e5c9dd3e7.so:_ZN60_$LT$object..pe..ImageSymbol$u20$as$u20$core..fmt..Debug$GT$3fmt17h205934b3c8d54046E
libstd-4e66027e5c9dd3e7.so:_ZN60_$LT$object..read..ObjectMap$u20$as$u20$core..fmt..Debug$GT$3fmt17h721f68c45a1ac43bE
libstd-4e66027e5c9dd3e7.so:_ZN60_$LT$std..ffi..os_str..OsStr$u20$as$u20$core..fmt..Debug$GT$3fmt17he17430afb806df93E
libstd-4e66027e5c9dd3e7.so:_ZN60_$LT$std..fs..File$u20$as$u20$std..os..unix..fs..FileExt$GT$7read_at17hb046ede981c1ebe5E
libstd-4e66027e5c9dd3e7.so:_ZN60_$LT$std..fs..File$u20$as$u20$std..os..unix..fs..FileExt$GT$8write_at17hce4855bcb04bafbfE
libstd-4e66027e5c9dd3e7.so:_ZN60_$LT$std..io..error..Error$u20$as$u20$core..error..Error$GT$11description17ha33953f5421f2400E
libstd-4e66027e5c9dd3e7.so:_ZN60_$LT$std..io..error..Error$u20$as$u20$core..error..Error$GT$5cause17hcf2ee1b10a93ff94E
libstd-4e66027e5c9dd3e7.so:_ZN60_$LT$std..io..error..Error$u20$as$u20$core..error..Error$GT$6source17hdb3e0a73d286fb25E
libstd-4e66027e5c9dd3e7.so:_ZN60_$LT$std..io..error..Error$u20$as$u20$core..fmt..Display$GT$3fmt17h63776642acd1d905E
libstd-4e66027e5c9dd3e7.so:_ZN60_$LT$std..io..stdio..StderrRaw$u20$as$u20$std..io..Write$GT$14write_vectored17h25033ecd231fb620E
libstd-4e66027e5c9dd3e7.so:_ZN60_$LT$std..io..stdio..StderrRaw$u20$as$u20$std..io..Write$GT$18write_all_vectored17h4a06f80b256768bcE
libstd-4e66027e5c9dd3e7.so:_ZN60_$LT$std..io..stdio..StderrRaw$u20$as$u20$std..io..Write$GT$5flush17h1e5982c8644d9247E
libstd-4e66027e5c9dd3e7.so:_ZN60_$LT$std..io..stdio..StderrRaw$u20$as$u20$std..io..Write$GT$5write17hac588696f659ce1eE
libstd-4e66027e5c9dd3e7.so:_ZN60_$LT$std..io..stdio..StderrRaw$u20$as$u20$std..io..Write$GT$9write_all17h6b2ab6b8688bac51E
libstd-4e66027e5c9dd3e7.so:_ZN60_$LT$std..io..stdio..StderrRaw$u20$as$u20$std..io..Write$GT$9write_fmt17hff63fff0e1af56c4E
libstd-4e66027e5c9dd3e7.so:_ZN60_$LT$std..io..stdio..StdoutRaw$u20$as$u20$std..io..Write$GT$14write_vectored17hff34f07cef0150b5E
libstd-4e66027e5c9dd3e7.so:_ZN60_$LT$std..io..stdio..StdoutRaw$u20$as$u20$std..io..Write$GT$18write_all_vectored17hcfc289469645a465E
libstd-4e66027e5c9dd3e7.so:_ZN60_$LT$std..io..stdio..StdoutRaw$u20$as$u20$std..io..Write$GT$5flush17hd1a58278fdf652deE
libstd-4e66027e5c9dd3e7.so:_ZN60_$LT$std..io..stdio..StdoutRaw$u20$as$u20$std..io..Write$GT$5write17hd48f0d2307372596E
libstd-4e66027e5c9dd3e7.so:_ZN60_$LT$std..io..stdio..StdoutRaw$u20$as$u20$std..io..Write$GT$9write_all17h0b7d74f35aba4ff4E
libstd-4e66027e5c9dd3e7.so:_ZN60_$LT$std..io..stdio..StdoutRaw$u20$as$u20$std..io..Write$GT$9write_fmt17hd8198780af8a076dE
libstd-4e66027e5c9dd3e7.so:_ZN60_$LT$std..net..tcp..Incoming$u20$as$u20$core..fmt..Debug$GT$3fmt17h81bf6efa4d94842fE
libstd-4e66027e5c9dd3e7.so:_ZN60_$LT$std..time..Instant$u20$as$u20$core..ops..arith..Sub$GT$3sub17hb40508011314c868E
libstd-4e66027e5c9dd3e7.so:_ZN60_$LT$str$u20$as$u20$std..net..socket_addr..ToSocketAddrs$GT$15to_socket_addrs17hb0109f880372c259E
libstd-4e66027e5c9dd3e7.so:_ZN61_$LT$$RF$std..io..stdio..Stderr$u20$as$u20$std..io..Write$GT$14write_vectored17ha7eb4122cbc2ecf6E
libstd-4e66027e5c9dd3e7.so:_ZN61_$LT$$RF$std..io..stdio..Stderr$u20$as$u20$std..io..Write$GT$18write_all_vectored17h3097477cb3990927E
libstd-4e66027e5c9dd3e7.so:_ZN61_$LT$$RF$std..io..stdio..Stderr$u20$as$u20$std..io..Write$GT$5flush17h9427eb910c643257E
libstd-4e66027e5c9dd3e7.so:_ZN61_$LT$$RF$std..io..stdio..Stderr$u20$as$u20$std..io..Write$GT$5write17he248de6eb186f815E
libstd-4e66027e5c9dd3e7.so:_ZN61_$LT$$RF$std..io..stdio..Stderr$u20$as$u20$std..io..Write$GT$9write_all17h3b344e34fe8b3092E
libstd-4e66027e5c9dd3e7.so:_ZN61_$LT$$RF$std..io..stdio..Stderr$u20$as$u20$std..io..Write$GT$9write_fmt17h4da2fb2572c66170E
libstd-4e66027e5c9dd3e7.so:_ZN61_$LT$$RF$std..io..stdio..Stdout$u20$as$u20$std..io..Write$GT$14write_vectored17h2da9789ab03c4008E
libstd-4e66027e5c9dd3e7.so:_ZN61_$LT$$RF$std..io..stdio..Stdout$u20$as$u20$std..io..Write$GT$18write_all_vectored17h7a6d63c4dad16350E
libstd-4e66027e5c9dd3e7.so:_ZN61_$LT$$RF$std..io..stdio..Stdout$u20$as$u20$std..io..Write$GT$5flush17h53ed4d740928bf93E
libstd-4e66027e5c9dd3e7.so:_ZN61_$LT$$RF$std..io..stdio..Stdout$u20$as$u20$std..io..Write$GT$5write17h7a0674bc4a287ef7E
libstd-4e66027e5c9dd3e7.so:_ZN61_$LT$$RF$std..io..stdio..Stdout$u20$as$u20$std..io..Write$GT$9write_all17hc53eab7f975d2407E
libstd-4e66027e5c9dd3e7.so:_ZN61_$LT$$RF$std..io..stdio..Stdout$u20$as$u20$std..io..Write$GT$9write_fmt17hf6afca175cc61a73E
libstd-4e66027e5c9dd3e7.so:_ZN61_$LT$core..num..diy_float..Fp$u20$as$u20$core..fmt..Debug$GT$3fmt17h39b91d5cd9f2103bE
libstd-4e66027e5c9dd3e7.so:_ZN61_$LT$core..num..flt2dec..Sign$u20$as$u20$core..fmt..Debug$GT$3fmt17h72bd2d39de784376E
libstd-4e66027e5c9dd3e7.so:_ZN61_$LT$gimli..common..SectionId$u20$as$u20$core..fmt..Debug$GT$3fmt17h62b54e0b58a328b5E
libstd-4e66027e5c9dd3e7.so:_ZN61_$LT$gimli..constants..DwAddr$u20$as$u20$core..fmt..Debug$GT$3fmt17h1671210c9f54f893E
libstd-4e66027e5c9dd3e7.so:_ZN61_$LT$gimli..constants..DwAt$u20$as$u20$core..fmt..Display$GT$3fmt17hbdf5a9a319c9e668E
libstd-4e66027e5c9dd3e7.so:_ZN61_$LT$gimli..constants..DwCc$u20$as$u20$core..fmt..Display$GT$3fmt17hd4117f3cd1a96269E
libstd-4e66027e5c9dd3e7.so:_ZN61_$LT$gimli..constants..DwDs$u20$as$u20$core..fmt..Display$GT$3fmt17hbcf9d878be1b4304E
libstd-4e66027e5c9dd3e7.so:_ZN61_$LT$gimli..constants..DwEhPe$u20$as$u20$core..fmt..Debug$GT$3fmt17he7a94d573c715d8cE
libstd-4e66027e5c9dd3e7.so:_ZN61_$LT$gimli..constants..DwForm$u20$as$u20$core..fmt..Debug$GT$3fmt17h2c950119554b5f85E
libstd-4e66027e5c9dd3e7.so:_ZN61_$LT$gimli..constants..DwId$u20$as$u20$core..fmt..Display$GT$3fmt17heb5c67def9a8bb90E
libstd-4e66027e5c9dd3e7.so:_ZN61_$LT$gimli..constants..DwLang$u20$as$u20$core..fmt..Debug$GT$3fmt17h0ad7b848386430c9E
libstd-4e66027e5c9dd3e7.so:_ZN61_$LT$gimli..constants..DwLnct$u20$as$u20$core..fmt..Debug$GT$3fmt17h4b55504a4313628cE
libstd-4e66027e5c9dd3e7.so:_ZN61_$LT$gimli..constants..DwOp$u20$as$u20$core..fmt..Display$GT$3fmt17h96e22b375c14fa82E
libstd-4e66027e5c9dd3e7.so:_ZN61_$LT$gimli..constants..DwSect$u20$as$u20$core..fmt..Debug$GT$3fmt17h134d049e161f9188E
libstd-4e66027e5c9dd3e7.so:_ZN61_$LT$gimli..constants..DwUt$u20$as$u20$core..fmt..Display$GT$3fmt17he7541d174196f21dE
libstd-4e66027e5c9dd3e7.so:_ZN61_$LT$gimli..read..StoreOnHeap$u20$as$u20$core..fmt..Debug$GT$3fmt17hf4aa079a5018ddb6E
libstd-4e66027e5c9dd3e7.so:_ZN61_$LT$memchr..memmem..FindIter$u20$as$u20$core..fmt..Debug$GT$3fmt17h83a8675880816c61E
libstd-4e66027e5c9dd3e7.so:_ZN61_$LT$memchr..memmem..Searcher$u20$as$u20$core..fmt..Debug$GT$3fmt17h3efde237bd2cea04E
libstd-4e66027e5c9dd3e7.so:_ZN61_$LT$object..macho..FatArch32$u20$as$u20$core..fmt..Debug$GT$3fmt17h17aa036de6e265e8E
libstd-4e66027e5c9dd3e7.so:_ZN61_$LT$object..macho..FatArch64$u20$as$u20$core..fmt..Debug$GT$3fmt17h793336d5958ba95cE
libstd-4e66027e5c9dd3e7.so:_ZN61_$LT$object..macho..FatHeader$u20$as$u20$core..fmt..Debug$GT$3fmt17h4945451b0d1c3c9eE
libstd-4e66027e5c9dd3e7.so:_ZN61_$LT$object..read..ObjectKind$u20$as$u20$core..fmt..Debug$GT$3fmt17hea7d7b630fa3e7baE
libstd-4e66027e5c9dd3e7.so:_ZN61_$LT$object..read..Relocation$u20$as$u20$core..fmt..Debug$GT$3fmt17he5c8fea15a30beebE
libstd-4e66027e5c9dd3e7.so:_ZN61_$LT$rustc_demangle..Demangle$u20$as$u20$core..fmt..Debug$GT$3fmt17hf8d7343e4e137997E
libstd-4e66027e5c9dd3e7.so:_ZN61_$LT$std..backtrace..RawFrame$u20$as$u20$core..fmt..Debug$GT$3fmt17h7cbc88ad3a80c49bE
libstd-4e66027e5c9dd3e7.so:_ZN61_$LT$std..env..JoinPathsError$u20$as$u20$core..fmt..Debug$GT$3fmt17h6e10751bcdc4d06aE
libstd-4e66027e5c9dd3e7.so:_ZN61_$LT$std..io..stdio..StderrLock$u20$as$u20$std..io..Write$GT$14write_vectored17hf8b6daaca29d63dcE
libstd-4e66027e5c9dd3e7.so:_ZN61_$LT$std..io..stdio..StderrLock$u20$as$u20$std..io..Write$GT$18write_all_vectored17hb6ba2a02fd202bb7E
libstd-4e66027e5c9dd3e7.so:_ZN61_$LT$std..io..stdio..StderrLock$u20$as$u20$std..io..Write$GT$5flush17h17b35f0c5c1ab2daE
libstd-4e66027e5c9dd3e7.so:_ZN61_$LT$std..io..stdio..StderrLock$u20$as$u20$std..io..Write$GT$5write17h4281c8b3138d748cE
libstd-4e66027e5c9dd3e7.so:_ZN61_$LT$std..io..stdio..StderrLock$u20$as$u20$std..io..Write$GT$9write_all17he6d151470d0e2409E
libstd-4e66027e5c9dd3e7.so:_ZN61_$LT$std..io..stdio..StdoutLock$u20$as$u20$std..io..Write$GT$14write_vectored17hd2002aa668c66f76E
libstd-4e66027e5c9dd3e7.so:_ZN61_$LT$std..io..stdio..StdoutLock$u20$as$u20$std..io..Write$GT$18write_all_vectored17hd8f741eb2e11c571E
libstd-4e66027e5c9dd3e7.so:_ZN61_$LT$std..io..stdio..StdoutLock$u20$as$u20$std..io..Write$GT$5flush17h580d8379f82b9d58E
libstd-4e66027e5c9dd3e7.so:_ZN61_$LT$std..io..stdio..StdoutLock$u20$as$u20$std..io..Write$GT$5write17hddd317f4402acd3dE
libstd-4e66027e5c9dd3e7.so:_ZN61_$LT$std..io..stdio..StdoutLock$u20$as$u20$std..io..Write$GT$9write_all17h11ae71fc2da1276fE
libstd-4e66027e5c9dd3e7.so:_ZN61_$LT$std..net..tcp..TcpStream$u20$as$u20$core..fmt..Debug$GT$3fmt17hbb6b1d0d8dd149e4E
libstd-4e66027e5c9dd3e7.so:_ZN61_$LT$std..net..udp..UdpSocket$u20$as$u20$core..fmt..Debug$GT$3fmt17h343789ad441f005aE
libstd-4e66027e5c9dd3e7.so:_ZN61_$LT$std..process..ChildStdin$u20$as$u20$core..fmt..Debug$GT$3fmt17h48336ff8ea419651E
libstd-4e66027e5c9dd3e7.so:_ZN61_$LT$std..process..ExitStatus$u20$as$u20$core..fmt..Debug$GT$3fmt17h1398e037b13b8752E
libstd-4e66027e5c9dd3e7.so:_ZN61_$LT$std..sys..unix..fs..File$u20$as$u20$core..fmt..Debug$GT$3fmt17hd057058214a4094dE
libstd-4e66027e5c9dd3e7.so:_ZN62_$LT$$RF$std..net..tcp..TcpStream$u20$as$u20$std..io..Read$GT$13read_vectored17h0ee36bdf7519deb0E
libstd-4e66027e5c9dd3e7.so:_ZN62_$LT$$RF$std..net..tcp..TcpStream$u20$as$u20$std..io..Read$GT$4read17hcd2d33657df6e5aeE
libstd-4e66027e5c9dd3e7.so:_ZN62_$LT$alloc..string..Drain$u20$as$u20$core..ops..drop..Drop$GT$4drop17h4b0d8002f3facf29E
libstd-4e66027e5c9dd3e7.so:_ZN62_$LT$core..alloc..AllocError$u20$as$u20$core..fmt..Display$GT$3fmt17h44094a2a6befca14E
libstd-4e66027e5c9dd3e7.so:_ZN62_$LT$core..cell..BorrowError$u20$as$u20$core..error..Error$GT$11description17h375940db32f5aaf4E
libstd-4e66027e5c9dd3e7.so:_ZN62_$LT$core..cell..BorrowError$u20$as$u20$core..fmt..Display$GT$3fmt17h7d657c8e0eb45251E
libstd-4e66027e5c9dd3e7.so:_ZN62_$LT$core..char..EscapeDebug$u20$as$u20$core..fmt..Display$GT$3fmt17h46e0f66be43b4fb4E
libstd-4e66027e5c9dd3e7.so:_ZN62_$LT$core..char..EscapeDefault$u20$as$u20$core..fmt..Debug$GT$3fmt17hd3f0b6683a5f0d27E
libstd-4e66027e5c9dd3e7.so:_ZN62_$LT$core..char..EscapeUnicode$u20$as$u20$core..fmt..Debug$GT$3fmt17h5debeefb3071a3bdE
libstd-4e66027e5c9dd3e7.so:_ZN62_$LT$core..char..ToLowercase$u20$as$u20$core..fmt..Display$GT$3fmt17h27b33e3992f9f160E
libstd-4e66027e5c9dd3e7.so:_ZN62_$LT$core..char..ToUppercase$u20$as$u20$core..fmt..Display$GT$3fmt17h8fb66ef7be70d9f0E
libstd-4e66027e5c9dd3e7.so:_ZN62_$LT$core..convert..Infallible$u20$as$u20$core..fmt..Debug$GT$3fmt17h5a63db7ec97a261eE
libstd-4e66027e5c9dd3e7.so:_ZN62_$LT$core..num..bignum..Big32x40$u20$as$u20$core..cmp..Ord$GT$3cmp17hfe1856ea6b1a4537E
libstd-4e66027e5c9dd3e7.so:_ZN62_$LT$core..str..iter..LinesAny$u20$as$u20$core..fmt..Debug$GT$3fmt17hce39300d4307895eE
libstd-4e66027e5c9dd3e7.so:_ZN62_$LT$core..task..wake..Context$u20$as$u20$core..fmt..Debug$GT$3fmt17h0a85c0c953c75ef7E
libstd-4e66027e5c9dd3e7.so:_ZN62_$LT$core..time..Duration$u20$as$u20$core..ops..arith..Add$GT$3add17hdfa85f96c706ec90E
libstd-4e66027e5c9dd3e7.so:_ZN62_$LT$core..time..Duration$u20$as$u20$core..ops..arith..Sub$GT$3sub17h48a53161668eba00E
libstd-4e66027e5c9dd3e7.so:_ZN62_$LT$gimli..constants..DwAte$u20$as$u20$core..fmt..Display$GT$3fmt17hc55979a00f3abd59E
libstd-4e66027e5c9dd3e7.so:_ZN62_$LT$gimli..constants..DwCfa$u20$as$u20$core..fmt..Display$GT$3fmt17h12fc6d0512b91b25E
libstd-4e66027e5c9dd3e7.so:_ZN62_$LT$gimli..constants..DwDsc$u20$as$u20$core..fmt..Display$GT$3fmt17h32050bdff4d84a7eE
libstd-4e66027e5c9dd3e7.so:_ZN62_$LT$gimli..constants..DwEnd$u20$as$u20$core..fmt..Display$GT$3fmt17h42408f5a346a134bE
libstd-4e66027e5c9dd3e7.so:_ZN62_$LT$gimli..constants..DwIdx$u20$as$u20$core..fmt..Display$GT$3fmt17h2f2f52f5aba23ef1E
libstd-4e66027e5c9dd3e7.so:_ZN62_$LT$gimli..constants..DwInl$u20$as$u20$core..fmt..Display$GT$3fmt17heb5170794d0eaa85E
libstd-4e66027e5c9dd3e7.so:_ZN62_$LT$gimli..constants..DwLle$u20$as$u20$core..fmt..Display$GT$3fmt17h4bed37ae6d915631E
libstd-4e66027e5c9dd3e7.so:_ZN62_$LT$gimli..constants..DwLne$u20$as$u20$core..fmt..Display$GT$3fmt17h7d4a708969738344E
libstd-4e66027e5c9dd3e7.so:_ZN62_$LT$gimli..constants..DwLns$u20$as$u20$core..fmt..Display$GT$3fmt17h0c8dac47a13ad3dfE
libstd-4e66027e5c9dd3e7.so:_ZN62_$LT$gimli..constants..DwMacro$u20$as$u20$core..fmt..Debug$GT$3fmt17he58897783ef2e3d4E
libstd-4e66027e5c9dd3e7.so:_ZN62_$LT$gimli..constants..DwOrd$u20$as$u20$core..fmt..Display$GT$3fmt17hed76fb34f1385e23E
libstd-4e66027e5c9dd3e7.so:_ZN62_$LT$gimli..constants..DwRle$u20$as$u20$core..fmt..Display$GT$3fmt17hcba30446fa6f7cb7E
libstd-4e66027e5c9dd3e7.so:_ZN62_$LT$gimli..constants..DwTag$u20$as$u20$core..fmt..Display$GT$3fmt17h32df4bc044d6a3cbE
libstd-4e66027e5c9dd3e7.so:_ZN62_$LT$gimli..constants..DwVis$u20$as$u20$core..fmt..Display$GT$3fmt17hdb3ee154e104eefcE
libstd-4e66027e5c9dd3e7.so:_ZN62_$LT$gimli..read..cfi..Pointer$u20$as$u20$core..fmt..Debug$GT$3fmt17hda2123ea395facecE
libstd-4e66027e5c9dd3e7.so:_ZN62_$LT$gimli..read..value..Value$u20$as$u20$core..fmt..Debug$GT$3fmt17hbd1c80dedd8f00f4E
libstd-4e66027e5c9dd3e7.so:_ZN62_$LT$memchr..memmem..FinderRev$u20$as$u20$core..fmt..Debug$GT$3fmt17h875da796cc41777aE
libstd-4e66027e5c9dd3e7.so:_ZN62_$LT$miniz_oxide..StreamResult$u20$as$u20$core..fmt..Debug$GT$3fmt17h93ffc3a034036c19E
libstd-4e66027e5c9dd3e7.so:_ZN62_$LT$object..common..FileFlags$u20$as$u20$core..fmt..Debug$GT$3fmt17hc4034dc20f44f1c6E
libstd-4e66027e5c9dd3e7.so:_ZN62_$LT$object..endian..BigEndian$u20$as$u20$core..fmt..Debug$GT$3fmt17h193cb67079204058E
libstd-4e66027e5c9dd3e7.so:_ZN62_$LT$object..pe..ImageSymbolEx$u20$as$u20$core..fmt..Debug$GT$3fmt17h3955bdc362fe2fceE
libstd-4e66027e5c9dd3e7.so:_ZN62_$LT$object..read..SymbolIndex$u20$as$u20$core..fmt..Debug$GT$3fmt17hda82fc1bfb7ba8e9E
libstd-4e66027e5c9dd3e7.so:_ZN62_$LT$object..read..util..Bytes$u20$as$u20$core..fmt..Debug$GT$3fmt17h03f51a5f4284354bE
libstd-4e66027e5c9dd3e7.so:_ZN62_$LT$std..backtrace..Backtrace$u20$as$u20$core..fmt..Debug$GT$3fmt17h95f12b301f06bd5fE
libstd-4e66027e5c9dd3e7.so:_ZN62_$LT$std..io..error..ErrorKind$u20$as$u20$core..fmt..Debug$GT$3fmt17h9875758500c7a75dE
libstd-4e66027e5c9dd3e7.so:_ZN62_$LT$std..io..stdio..StdinLock$u20$as$u20$core..fmt..Debug$GT$3fmt17h061c0b5bbc9d193aE
libstd-4e66027e5c9dd3e7.so:_ZN62_$LT$std..io..stdio..StdinLock$u20$as$u20$std..io..BufRead$GT$10read_until17h4fe73a234e93dba0E
libstd-4e66027e5c9dd3e7.so:_ZN62_$LT$std..io..stdio..StdinLock$u20$as$u20$std..io..BufRead$GT$7consume17h5416ddaa3cf73836E
libstd-4e66027e5c9dd3e7.so:_ZN62_$LT$std..io..stdio..StdinLock$u20$as$u20$std..io..BufRead$GT$8fill_buf17h058460ad4d89cb82E
libstd-4e66027e5c9dd3e7.so:_ZN62_$LT$std..io..stdio..StdinLock$u20$as$u20$std..io..BufRead$GT$9read_line17h9f93be7e4018ae9fE
libstd-4e66027e5c9dd3e7.so:_ZN62_$LT$std..net..ip_addr..IpAddr$u20$as$u20$core..fmt..Debug$GT$3fmt17h12380b2fe51d0ccdE
libstd-4e66027e5c9dd3e7.so:_ZN62_$LT$std..process..ChildStderr$u20$as$u20$core..fmt..Debug$GT$3fmt17h51a1f7bbc5b89c8eE
libstd-4e66027e5c9dd3e7.so:_ZN62_$LT$std..process..ChildStdout$u20$as$u20$core..fmt..Debug$GT$3fmt17hfcd400efb6c01862E
libstd-4e66027e5c9dd3e7.so:_ZN62_$LT$std..process..CommandArgs$u20$as$u20$core..fmt..Debug$GT$3fmt17hbcfc7ff7565067e5E
libstd-4e66027e5c9dd3e7.so:_ZN62_$LT$std..sys..unix..stdio..Stdin$u20$as$u20$std..io..Read$GT$13read_vectored17ha01bd878ee92fd79E
libstd-4e66027e5c9dd3e7.so:_ZN62_$LT$std..sys..unix..stdio..Stdin$u20$as$u20$std..io..Read$GT$4read17hc2f69f36d744bc72E
libstd-4e66027e5c9dd3e7.so:_ZN63_$LT$$RF$std..net..tcp..TcpStream$u20$as$u20$std..io..Write$GT$14write_vectored17h9833e1c3986f7cdbE
libstd-4e66027e5c9dd3e7.so:_ZN63_$LT$$RF$std..net..tcp..TcpStream$u20$as$u20$std..io..Write$GT$5flush17h736b906d319f906cE
libstd-4e66027e5c9dd3e7.so:_ZN63_$LT$$RF$std..net..tcp..TcpStream$u20$as$u20$std..io..Write$GT$5write17haab3a7a4e9fa148aE
libstd-4e66027e5c9dd3e7.so:_ZN63_$LT$$RF$std..process..ChildStdin$u20$as$u20$std..io..Write$GT$14write_vectored17hcc0a87be24890a02E
libstd-4e66027e5c9dd3e7.so:_ZN63_$LT$$RF$std..process..ChildStdin$u20$as$u20$std..io..Write$GT$17is_write_vectored17h645908daead53545E
libstd-4e66027e5c9dd3e7.so:_ZN63_$LT$$RF$std..process..ChildStdin$u20$as$u20$std..io..Write$GT$5flush17he4577555013e7fadE
libstd-4e66027e5c9dd3e7.so:_ZN63_$LT$$RF$std..process..ChildStdin$u20$as$u20$std..io..Write$GT$5write17h31362249b6c55d53E
libstd-4e66027e5c9dd3e7.so:_ZN63_$LT$alloc..ffi..c_str..CString$u20$as$u20$core..fmt..Debug$GT$3fmt17h182980fb4e80a977E
libstd-4e66027e5c9dd3e7.so:_ZN63_$LT$core..ascii..EscapeDefault$u20$as$u20$core..fmt..Debug$GT$3fmt17h7f148678c714fc30E
libstd-4e66027e5c9dd3e7.so:_ZN63_$LT$core..cell..BorrowMutError$u20$as$u20$core..fmt..Debug$GT$3fmt17h7666e41608cc800bE
libstd-4e66027e5c9dd3e7.so:_ZN63_$LT$core..ffi..VaListImpl$u20$as$u20$core..ops..drop..Drop$GT$4drop17hfa015cfa45c8ada0E
libstd-4e66027e5c9dd3e7.so:_ZN63_$LT$core..ffi..c_str..CStr$u20$as$u20$core..cmp..PartialEq$GT$2eq17h522f7585b610cb4fE
libstd-4e66027e5c9dd3e7.so:_ZN63_$LT$core..hash..sip..SipHasher$u20$as$u20$core..fmt..Debug$GT$3fmt17h486d314f74bfac28E
libstd-4e66027e5c9dd3e7.so:_ZN63_$LT$core..task..wake..RawWaker$u20$as$u20$core..fmt..Debug$GT$3fmt17hbc188b446dfbfcb4E
libstd-4e66027e5c9dd3e7.so:_ZN63_$LT$gimli..constants..DwAccess$u20$as$u20$core..fmt..Debug$GT$3fmt17h4b20fd18828ff0caE
libstd-4e66027e5c9dd3e7.so:_ZN63_$LT$gimli..constants..DwAddr$u20$as$u20$core..fmt..Display$GT$3fmt17h032dbfa24783ff78E
libstd-4e66027e5c9dd3e7.so:_ZN63_$LT$gimli..constants..DwEhPe$u20$as$u20$core..fmt..Display$GT$3fmt17h3e518d6336699474E
libstd-4e66027e5c9dd3e7.so:_ZN63_$LT$gimli..constants..DwForm$u20$as$u20$core..fmt..Display$GT$3fmt17h915f03862dc70e65E
libstd-4e66027e5c9dd3e7.so:_ZN63_$LT$gimli..constants..DwLang$u20$as$u20$core..fmt..Display$GT$3fmt17h064387e49aeeb617E
libstd-4e66027e5c9dd3e7.so:_ZN63_$LT$gimli..constants..DwLnct$u20$as$u20$core..fmt..Display$GT$3fmt17hbd9c0ce7207e5f67E
libstd-4e66027e5c9dd3e7.so:_ZN63_$LT$gimli..constants..DwSect$u20$as$u20$core..fmt..Display$GT$3fmt17hed10f7a852bae772E
libstd-4e66027e5c9dd3e7.so:_ZN63_$LT$gimli..constants..DwSectV2$u20$as$u20$core..fmt..Debug$GT$3fmt17h7a2b105c00a9a682E
libstd-4e66027e5c9dd3e7.so:_ZN63_$LT$gimli..read..line..LineRow$u20$as$u20$core..fmt..Debug$GT$3fmt17h572523133ce3e6cdE
libstd-4e66027e5c9dd3e7.so:_ZN63_$LT$hashbrown..TryReserveError$u20$as$u20$core..fmt..Debug$GT$3fmt17hece59e675bec3692E
libstd-4e66027e5c9dd3e7.so:_ZN63_$LT$memchr..memmem..NeedleInfo$u20$as$u20$core..fmt..Debug$GT$3fmt17ha3d42861feedd4eaE
libstd-4e66027e5c9dd3e7.so:_ZN63_$LT$object..common..ComdatKind$u20$as$u20$core..fmt..Debug$GT$3fmt17h40778598568ee06bE
libstd-4e66027e5c9dd3e7.so:_ZN63_$LT$object..common..SymbolKind$u20$as$u20$core..fmt..Debug$GT$3fmt17h2d6593bf44200f3fE
libstd-4e66027e5c9dd3e7.so:_ZN63_$LT$object..endian..Endianness$u20$as$u20$core..fmt..Debug$GT$3fmt17hb43d4b46218ff331E
libstd-4e66027e5c9dd3e7.so:_ZN63_$LT$object..pe..ImageDebugMisc$u20$as$u20$core..fmt..Debug$GT$3fmt17h8610903eaf7400a8E
libstd-4e66027e5c9dd3e7.so:_ZN63_$LT$object..pe..ImageDosHeader$u20$as$u20$core..fmt..Debug$GT$3fmt17h7512ea3793e022c0E
libstd-4e66027e5c9dd3e7.so:_ZN63_$LT$object..pe..ImageOs2Header$u20$as$u20$core..fmt..Debug$GT$3fmt17he0b79b25560747c0E
libstd-4e66027e5c9dd3e7.so:_ZN63_$LT$object..pe..ImageVxdHeader$u20$as$u20$core..fmt..Debug$GT$3fmt17hb24e7e8b71fa1cf4E
libstd-4e66027e5c9dd3e7.so:_ZN63_$LT$object..read..SectionIndex$u20$as$u20$core..fmt..Debug$GT$3fmt17hb994f830aad02403E
libstd-4e66027e5c9dd3e7.so:_ZN63_$LT$rustc_demangle..Demangle$u20$as$u20$core..fmt..Display$GT$3fmt17hc721ea98892f7055E
libstd-4e66027e5c9dd3e7.so:_ZN63_$LT$std..env..JoinPathsError$u20$as$u20$core..error..Error$GT$11description17h221dd052efdda250E
libstd-4e66027e5c9dd3e7.so:_ZN63_$LT$std..env..JoinPathsError$u20$as$u20$core..fmt..Display$GT$3fmt17h46a59c34e5d62995E
libstd-4e66027e5c9dd3e7.so:_ZN63_$LT$std..ffi..os_str..OsString$u20$as$u20$core..fmt..Debug$GT$3fmt17h673856694f42725fE
libstd-4e66027e5c9dd3e7.so:_ZN63_$LT$std..ffi..os_str..OsString$u20$as$u20$core..fmt..Write$GT$9write_str17hdeb1d815c83f2e54E
libstd-4e66027e5c9dd3e7.so:_ZN63_$LT$std..io..stdio..StderrLock$u20$as$u20$core..fmt..Debug$GT$3fmt17h4b4a3c032fafb44cE
libstd-4e66027e5c9dd3e7.so:_ZN63_$LT$std..io..stdio..StdoutLock$u20$as$u20$core..fmt..Debug$GT$3fmt17hf65d6341c207766bE
libstd-4e66027e5c9dd3e7.so:_ZN63_$LT$std..net..parser..AddrKind$u20$as$u20$core..fmt..Debug$GT$3fmt17hb6356be5efc10f16E
libstd-4e66027e5c9dd3e7.so:_ZN63_$LT$std..net..tcp..TcpListener$u20$as$u20$core..fmt..Debug$GT$3fmt17hc02d7595f40e377fE
libstd-4e66027e5c9dd3e7.so:_ZN63_$LT$std..panic..BacktraceStyle$u20$as$u20$core..fmt..Debug$GT$3fmt17hc71997ce51752c5aE
libstd-4e66027e5c9dd3e7.so:_ZN63_$LT$std..path..PrefixComponent$u20$as$u20$core..fmt..Debug$GT$3fmt17h4ac63969c49ea37eE
libstd-4e66027e5c9dd3e7.so:_ZN63_$LT$std..process..ExitStatus$u20$as$u20$core..fmt..Display$GT$3fmt17ha1ba1a17e3fd3eb6E
libstd-4e66027e5c9dd3e7.so:_ZN63_$LT$std..sync..mpsc..RecvError$u20$as$u20$core..fmt..Debug$GT$3fmt17h6c3e5095f45b787cE
libstd-4e66027e5c9dd3e7.so:_ZN63_$LT$std..sync..once..OnceState$u20$as$u20$core..fmt..Debug$GT$3fmt17hbf7f6ef1eea0be35E
libstd-4e66027e5c9dd3e7.so:_ZN63_$LT$std..sys..unix..args..Args$u20$as$u20$core..fmt..Debug$GT$3fmt17hfb0ed124e0262fe1E
libstd-4e66027e5c9dd3e7.so:_ZN63_$LT$std..thread..scoped..Scope$u20$as$u20$core..fmt..Debug$GT$3fmt17h7404f6a0eca01f24E
libstd-4e66027e5c9dd3e7.so:_ZN63_$LT$std..time..SystemTimeError$u20$as$u20$core..fmt..Debug$GT$3fmt17h4c870da854710c37E
libstd-4e66027e5c9dd3e7.so:_ZN64_$LT$alloc..ffi..c_str..NulError$u20$as$u20$core..fmt..Debug$GT$3fmt17h027b965168958af6E
libstd-4e66027e5c9dd3e7.so:_ZN64_$LT$core..alloc..layout..Layout$u20$as$u20$core..fmt..Debug$GT$3fmt17h94391a40999bc495E
libstd-4e66027e5c9dd3e7.so:_ZN64_$LT$core..char..CaseMappingIter$u20$as$u20$core..fmt..Debug$GT$3fmt17h33885f55fbfaaac1E
libstd-4e66027e5c9dd3e7.so:_ZN64_$LT$core..char..EscapeDefault$u20$as$u20$core..fmt..Display$GT$3fmt17h53d1047a5c94b524E
libstd-4e66027e5c9dd3e7.so:_ZN64_$LT$core..char..EscapeUnicode$u20$as$u20$core..fmt..Display$GT$3fmt17h788a61252a14cc21E
libstd-4e66027e5c9dd3e7.so:_ZN64_$LT$core..convert..Infallible$u20$as$u20$core..clone..Clone$GT$5clone17h5c8326f76037920aE
libstd-4e66027e5c9dd3e7.so:_ZN64_$LT$core..convert..Infallible$u20$as$u20$core..error..Error$GT$11description17h4386618d7c1f59baE
libstd-4e66027e5c9dd3e7.so:_ZN64_$LT$core..convert..Infallible$u20$as$u20$core..fmt..Display$GT$3fmt17hd863c5560c4cfe3dE
libstd-4e66027e5c9dd3e7.so:_ZN64_$LT$core..core_arch..simd..i8x2$u20$as$u20$core..fmt..Debug$GT$3fmt17h25d13da9fabead93E
libstd-4e66027e5c9dd3e7.so:_ZN64_$LT$core..core_arch..simd..i8x4$u20$as$u20$core..fmt..Debug$GT$3fmt17hc67432e7004961ecE
libstd-4e66027e5c9dd3e7.so:_ZN64_$LT$core..core_arch..simd..i8x8$u20$as$u20$core..fmt..Debug$GT$3fmt17h8ea77ee778ca435bE
libstd-4e66027e5c9dd3e7.so:_ZN64_$LT$core..core_arch..simd..u8x2$u20$as$u20$core..fmt..Debug$GT$3fmt17h7bf962ab50ebfe5fE
libstd-4e66027e5c9dd3e7.so:_ZN64_$LT$core..core_arch..simd..u8x4$u20$as$u20$core..fmt..Debug$GT$3fmt17he79f4a949035fc71E
libstd-4e66027e5c9dd3e7.so:_ZN64_$LT$core..core_arch..simd..u8x8$u20$as$u20$core..fmt..Debug$GT$3fmt17h5d751a6b8b33dbecE
libstd-4e66027e5c9dd3e7.so:_ZN64_$LT$core..ffi..c_str..CStr$u20$as$u20$core..cmp..PartialOrd$GT$11partial_cmp17h854a09d55baac3a3E
libstd-4e66027e5c9dd3e7.so:_ZN64_$LT$core..marker..PhantomPinned$u20$as$u20$core..fmt..Debug$GT$3fmt17h38db43cf6ac3d79bE
libstd-4e66027e5c9dd3e7.so:_ZN64_$LT$core..num..bignum..Big32x40$u20$as$u20$core..fmt..Debug$GT$3fmt17h77ed941ff96098d1E
libstd-4e66027e5c9dd3e7.so:_ZN64_$LT$core..ops..range..RangeFull$u20$as$u20$core..fmt..Debug$GT$3fmt17h1eeb75f3d3a30e04E
libstd-4e66027e5c9dd3e7.so:_ZN64_$LT$core..panicking..AssertKind$u20$as$u20$core..fmt..Debug$GT$3fmt17hbab4b9bab705e44bE
libstd-4e66027e5c9dd3e7.so:_ZN64_$LT$core..str..error..Utf8Error$u20$as$u20$core..fmt..Debug$GT$3fmt17h8c6f197d223a25efE
libstd-4e66027e5c9dd3e7.so:_ZN64_$LT$core..str..lossy..Utf8Chunk$u20$as$u20$core..fmt..Debug$GT$3fmt17hb48516ff1975ad5dE
libstd-4e66027e5c9dd3e7.so:_ZN64_$LT$gimli..common..LineEncoding$u20$as$u20$core..fmt..Debug$GT$3fmt17h6dfd85053639ddf7E
libstd-4e66027e5c9dd3e7.so:_ZN64_$LT$gimli..constants..DwMacro$u20$as$u20$core..fmt..Display$GT$3fmt17hc80257f43e9401aaE
libstd-4e66027e5c9dd3e7.so:_ZN64_$LT$gimli..endianity..BigEndian$u20$as$u20$core..fmt..Debug$GT$3fmt17h36e1e22076bd2008E
libstd-4e66027e5c9dd3e7.so:_ZN64_$LT$memchr..memmem..FindRevIter$u20$as$u20$core..fmt..Debug$GT$3fmt17h7ea8b7dd57703b47E
libstd-4e66027e5c9dd3e7.so:_ZN64_$LT$memchr..memmem..SearcherRev$u20$as$u20$core..fmt..Debug$GT$3fmt17h4826406f4f46be29E
libstd-4e66027e5c9dd3e7.so:_ZN64_$LT$object..common..AddressSize$u20$as$u20$core..fmt..Debug$GT$3fmt17hbc8fad09099cc5abE
libstd-4e66027e5c9dd3e7.so:_ZN64_$LT$object..common..SectionKind$u20$as$u20$core..fmt..Debug$GT$3fmt17hcd4722d20e18b455E
libstd-4e66027e5c9dd3e7.so:_ZN64_$LT$object..common..SymbolScope$u20$as$u20$core..fmt..Debug$GT$3fmt17h49747d67e09459c9E
libstd-4e66027e5c9dd3e7.so:_ZN64_$LT$object..pe..ImageFileHeader$u20$as$u20$core..fmt..Debug$GT$3fmt17h4dd132090d26c7abE
libstd-4e66027e5c9dd3e7.so:_ZN64_$LT$object..pe..ImageLinenumber$u20$as$u20$core..fmt..Debug$GT$3fmt17h78a97f8c53352e68E
libstd-4e66027e5c9dd3e7.so:_ZN64_$LT$object..pe..ImageRelocation$u20$as$u20$core..fmt..Debug$GT$3fmt17h513df3014ab7bcc5E
libstd-4e66027e5c9dd3e7.so:_ZN64_$LT$object..pe..ImageRomHeaders$u20$as$u20$core..fmt..Debug$GT$3fmt17h69048234e578ef7bE
libstd-4e66027e5c9dd3e7.so:_ZN64_$LT$object..read..SymbolMapName$u20$as$u20$core..fmt..Debug$GT$3fmt17h4c8b251b8f136674E
libstd-4e66027e5c9dd3e7.so:_ZN64_$LT$object..read..SymbolSection$u20$as$u20$core..fmt..Debug$GT$3fmt17h97c49d154c4de8daE
libstd-4e66027e5c9dd3e7.so:_ZN64_$LT$rustc_demangle..v0..Ident$u20$as$u20$core..fmt..Display$GT$3fmt17h25b46825454545dfE
libstd-4e66027e5c9dd3e7.so:_ZN64_$LT$std..backtrace..Backtrace$u20$as$u20$core..fmt..Display$GT$3fmt17h5094e5a2b902b58dE
libstd-4e66027e5c9dd3e7.so:_ZN64_$LT$std..backtrace..BytesOrWide$u20$as$u20$core..fmt..Debug$GT$3fmt17h50be416c6b3e7d91E
libstd-4e66027e5c9dd3e7.so:_ZN64_$LT$std..io..error..ErrorKind$u20$as$u20$core..fmt..Display$GT$3fmt17hf6a1c491cd053ae2E
libstd-4e66027e5c9dd3e7.so:_ZN64_$LT$std..net..ip_addr..IpAddr$u20$as$u20$core..fmt..Display$GT$3fmt17h2f3e7cfd443c1869E
libstd-4e66027e5c9dd3e7.so:_ZN64_$LT$std..net..ip_addr..Ipv4Addr$u20$as$u20$core..fmt..Debug$GT$3fmt17hb22f2af3a7331255E
libstd-4e66027e5c9dd3e7.so:_ZN64_$LT$std..net..ip_addr..Ipv6Addr$u20$as$u20$core..fmt..Debug$GT$3fmt17ha40d400dcd97fce1E
libstd-4e66027e5c9dd3e7.so:_ZN64_$LT$std..net..tcp..IntoIncoming$u20$as$u20$core..fmt..Debug$GT$3fmt17h51a52d719809bf24E
libstd-4e66027e5c9dd3e7.so:_ZN64_$LT$std..os..fd..owned..OwnedFd$u20$as$u20$core..fmt..Debug$GT$3fmt17h4ccdec339842640aE
libstd-4e66027e5c9dd3e7.so:_ZN64_$LT$std..os..unix..ucred..UCred$u20$as$u20$core..fmt..Debug$GT$3fmt17h5f3c5b92c67cc0bcE
libstd-4e66027e5c9dd3e7.so:_ZN64_$LT$std..path..StripPrefixError$u20$as$u20$core..fmt..Debug$GT$3fmt17ha49c7207e0d5808bE
libstd-4e66027e5c9dd3e7.so:_ZN64_$LT$std..sync..barrier..Barrier$u20$as$u20$core..fmt..Debug$GT$3fmt17hb0d86546c5893ed6E
libstd-4e66027e5c9dd3e7.so:_ZN64_$LT$std..sync..condvar..Condvar$u20$as$u20$core..fmt..Debug$GT$3fmt17h16dd97dffae09aa6E
libstd-4e66027e5c9dd3e7.so:_ZN64_$LT$std..sys..unix..fs..ReadDir$u20$as$u20$core..fmt..Debug$GT$3fmt17hbe6d7daedfebcb13E
libstd-4e66027e5c9dd3e7.so:_ZN64_$LT$std..sys..unix..os_str..Buf$u20$as$u20$core..fmt..Debug$GT$3fmt17h71b233c0fc67e723E
libstd-4e66027e5c9dd3e7.so:_ZN64_$LT$std..sys..unix..stdio..Stderr$u20$as$u20$std..io..Write$GT$14write_vectored17h47e962727779cee1E
libstd-4e66027e5c9dd3e7.so:_ZN64_$LT$std..sys..unix..stdio..Stderr$u20$as$u20$std..io..Write$GT$5flush17h9a836b52231673f3E
libstd-4e66027e5c9dd3e7.so:_ZN64_$LT$std..sys..unix..stdio..Stderr$u20$as$u20$std..io..Write$GT$5write17h15beb6c32541e5cdE
libstd-4e66027e5c9dd3e7.so:_ZN64_$LT$std..sys..unix..stdio..Stdout$u20$as$u20$std..io..Write$GT$14write_vectored17h2d2d4d64f5b70ff5E
libstd-4e66027e5c9dd3e7.so:_ZN64_$LT$std..sys..unix..stdio..Stdout$u20$as$u20$std..io..Write$GT$5flush17h3081900af7f0b265E
libstd-4e66027e5c9dd3e7.so:_ZN64_$LT$std..sys..unix..stdio..Stdout$u20$as$u20$std..io..Write$GT$5write17hdbd4b3f304a23fd9E
libstd-4e66027e5c9dd3e7.so:_ZN64_$LT$std..sys_common..wtf8..Wtf8$u20$as$u20$core..fmt..Debug$GT$3fmt17h7ea0a48ecb6a7236E
libstd-4e66027e5c9dd3e7.so:_ZN65_$LT$alloc..string..FromUtf8Error$u20$as$u20$core..fmt..Debug$GT$3fmt17h40b8b998fab21d74E
libstd-4e66027e5c9dd3e7.so:_ZN65_$LT$core..ascii..EscapeDefault$u20$as$u20$core..fmt..Display$GT$3fmt17he80cdd880bce7caaE
libstd-4e66027e5c9dd3e7.so:_ZN65_$LT$core..cell..BorrowMutError$u20$as$u20$core..error..Error$GT$11description17h1c473c4aeab30812E
libstd-4e66027e5c9dd3e7.so:_ZN65_$LT$core..cell..BorrowMutError$u20$as$u20$core..fmt..Display$GT$3fmt17h33153d3e67d1836fE
libstd-4e66027e5c9dd3e7.so:_ZN65_$LT$core..char..TryFromCharError$u20$as$u20$core..fmt..Debug$GT$3fmt17hea289c7bcf7b6a97E
libstd-4e66027e5c9dd3e7.so:_ZN65_$LT$core..core_arch..simd..f32x2$u20$as$u20$core..fmt..Debug$GT$3fmt17ha71a266a21215349E
libstd-4e66027e5c9dd3e7.so:_ZN65_$LT$core..core_arch..simd..f32x4$u20$as$u20$core..fmt..Debug$GT$3fmt17hea3094e460f9da23E
libstd-4e66027e5c9dd3e7.so:_ZN65_$LT$core..core_arch..simd..f32x8$u20$as$u20$core..fmt..Debug$GT$3fmt17hf9e7301719b39181E
libstd-4e66027e5c9dd3e7.so:_ZN65_$LT$core..core_arch..simd..f64x1$u20$as$u20$core..fmt..Debug$GT$3fmt17h1d3dba10ae39ca8dE
libstd-4e66027e5c9dd3e7.so:_ZN65_$LT$core..core_arch..simd..f64x2$u20$as$u20$core..fmt..Debug$GT$3fmt17h3656fe629aad9808E
libstd-4e66027e5c9dd3e7.so:_ZN65_$LT$core..core_arch..simd..f64x4$u20$as$u20$core..fmt..Debug$GT$3fmt17h1ea46bd200adb8cfE
libstd-4e66027e5c9dd3e7.so:_ZN65_$LT$core..core_arch..simd..f64x8$u20$as$u20$core..fmt..Debug$GT$3fmt17had7b9a704af36535E
libstd-4e66027e5c9dd3e7.so:_ZN65_$LT$core..core_arch..simd..i16x2$u20$as$u20$core..fmt..Debug$GT$3fmt17ha1e71917a2b41c52E
libstd-4e66027e5c9dd3e7.so:_ZN65_$LT$core..core_arch..simd..i16x4$u20$as$u20$core..fmt..Debug$GT$3fmt17h8403b6aeb12df28cE
libstd-4e66027e5c9dd3e7.so:_ZN65_$LT$core..core_arch..simd..i16x8$u20$as$u20$core..fmt..Debug$GT$3fmt17he1ae999fb27b6460E
libstd-4e66027e5c9dd3e7.so:_ZN65_$LT$core..core_arch..simd..i32x2$u20$as$u20$core..fmt..Debug$GT$3fmt17h0fee2cc1feb89043E
libstd-4e66027e5c9dd3e7.so:_ZN65_$LT$core..core_arch..simd..i32x4$u20$as$u20$core..fmt..Debug$GT$3fmt17h85786cc6d0853e24E
libstd-4e66027e5c9dd3e7.so:_ZN65_$LT$core..core_arch..simd..i32x8$u20$as$u20$core..fmt..Debug$GT$3fmt17h319276fa04eff187E
libstd-4e66027e5c9dd3e7.so:_ZN65_$LT$core..core_arch..simd..i64x1$u20$as$u20$core..fmt..Debug$GT$3fmt17hac0980ed1b1ec622E
libstd-4e66027e5c9dd3e7.so:_ZN65_$LT$core..core_arch..simd..i64x2$u20$as$u20$core..fmt..Debug$GT$3fmt17h788aeb9cec2f06bcE
libstd-4e66027e5c9dd3e7.so:_ZN65_$LT$core..core_arch..simd..i64x4$u20$as$u20$core..fmt..Debug$GT$3fmt17ha1486e30effe3087E
libstd-4e66027e5c9dd3e7.so:_ZN65_$LT$core..core_arch..simd..i64x8$u20$as$u20$core..fmt..Debug$GT$3fmt17h0d334d96f666897cE
libstd-4e66027e5c9dd3e7.so:_ZN65_$LT$core..core_arch..simd..i8x16$u20$as$u20$core..fmt..Debug$GT$3fmt17h7d69b37bb014c696E
libstd-4e66027e5c9dd3e7.so:_ZN65_$LT$core..core_arch..simd..i8x32$u20$as$u20$core..fmt..Debug$GT$3fmt17h1e5ca97ee02c6e59E
libstd-4e66027e5c9dd3e7.so:_ZN65_$LT$core..core_arch..simd..i8x64$u20$as$u20$core..fmt..Debug$GT$3fmt17h6d71cd77829b8e47E
libstd-4e66027e5c9dd3e7.so:_ZN65_$LT$core..core_arch..simd..m16x8$u20$as$u20$core..fmt..Debug$GT$3fmt17hfce980271b60b248E
libstd-4e66027e5c9dd3e7.so:_ZN65_$LT$core..core_arch..simd..m32x4$u20$as$u20$core..fmt..Debug$GT$3fmt17hf8caab5642e8b88fE
libstd-4e66027e5c9dd3e7.so:_ZN65_$LT$core..core_arch..simd..m64x2$u20$as$u20$core..fmt..Debug$GT$3fmt17h3558b7b9971e7d9bE
libstd-4e66027e5c9dd3e7.so:_ZN65_$LT$core..core_arch..simd..m8x16$u20$as$u20$core..fmt..Debug$GT$3fmt17h0e1f0c95035640a1E
libstd-4e66027e5c9dd3e7.so:_ZN65_$LT$core..core_arch..simd..u16x2$u20$as$u20$core..fmt..Debug$GT$3fmt17hf8af59677e85ec47E
libstd-4e66027e5c9dd3e7.so:_ZN65_$LT$core..core_arch..simd..u16x4$u20$as$u20$core..fmt..Debug$GT$3fmt17hef86a4fb6e2afed7E
libstd-4e66027e5c9dd3e7.so:_ZN65_$LT$core..core_arch..simd..u16x8$u20$as$u20$core..fmt..Debug$GT$3fmt17hbee13bc1d3623d0eE
libstd-4e66027e5c9dd3e7.so:_ZN65_$LT$core..core_arch..simd..u32x2$u20$as$u20$core..fmt..Debug$GT$3fmt17h7cfcd511357e7efcE
libstd-4e66027e5c9dd3e7.so:_ZN65_$LT$core..core_arch..simd..u32x4$u20$as$u20$core..fmt..Debug$GT$3fmt17h2027f2e9df0b738eE
libstd-4e66027e5c9dd3e7.so:_ZN65_$LT$core..core_arch..simd..u32x8$u20$as$u20$core..fmt..Debug$GT$3fmt17hc42ae500c4274169E
libstd-4e66027e5c9dd3e7.so:_ZN65_$LT$core..core_arch..simd..u64x1$u20$as$u20$core..fmt..Debug$GT$3fmt17h2628017104f986e8E
libstd-4e66027e5c9dd3e7.so:_ZN65_$LT$core..core_arch..simd..u64x2$u20$as$u20$core..fmt..Debug$GT$3fmt17h5311876b61d677e9E
libstd-4e66027e5c9dd3e7.so:_ZN65_$LT$core..core_arch..simd..u64x4$u20$as$u20$core..fmt..Debug$GT$3fmt17hb8fac39ab3cf1a49E
libstd-4e66027e5c9dd3e7.so:_ZN65_$LT$core..core_arch..simd..u64x8$u20$as$u20$core..fmt..Debug$GT$3fmt17hc9e54f4ede0b3d29E
libstd-4e66027e5c9dd3e7.so:_ZN65_$LT$core..core_arch..simd..u8x16$u20$as$u20$core..fmt..Debug$GT$3fmt17h79537d3c679ffb41E
libstd-4e66027e5c9dd3e7.so:_ZN65_$LT$core..core_arch..simd..u8x32$u20$as$u20$core..fmt..Debug$GT$3fmt17ha52df52135382805E
libstd-4e66027e5c9dd3e7.so:_ZN65_$LT$core..core_arch..simd..u8x64$u20$as$u20$core..fmt..Debug$GT$3fmt17h78e4594eaeb66dd5E
libstd-4e66027e5c9dd3e7.so:_ZN65_$LT$core..core_arch..x86..__m128$u20$as$u20$core..fmt..Debug$GT$3fmt17h44440aa8c59467b4E
libstd-4e66027e5c9dd3e7.so:_ZN65_$LT$core..core_arch..x86..__m256$u20$as$u20$core..fmt..Debug$GT$3fmt17h61af88abb0310d25E
libstd-4e66027e5c9dd3e7.so:_ZN65_$LT$core..core_arch..x86..__m512$u20$as$u20$core..fmt..Debug$GT$3fmt17h70916d91ecdc8ce3E
libstd-4e66027e5c9dd3e7.so:_ZN65_$LT$core..hash..sip..Sip13Rounds$u20$as$u20$core..fmt..Debug$GT$3fmt17h00a594e8e5b66f5fE
libstd-4e66027e5c9dd3e7.so:_ZN65_$LT$core..hash..sip..Sip24Rounds$u20$as$u20$core..fmt..Debug$GT$3fmt17hcdc90073b06f9223E
libstd-4e66027e5c9dd3e7.so:_ZN65_$LT$core..hash..sip..SipHasher13$u20$as$u20$core..fmt..Debug$GT$3fmt17h4a4070ed24aaf1d1E
libstd-4e66027e5c9dd3e7.so:_ZN65_$LT$core..hash..sip..SipHasher24$u20$as$u20$core..fmt..Debug$GT$3fmt17h4ced70b49e420ba1E
libstd-4e66027e5c9dd3e7.so:_ZN65_$LT$core..str..iter..CharIndices$u20$as$u20$core..fmt..Debug$GT$3fmt17hc04c3341c2f109ffE
libstd-4e66027e5c9dd3e7.so:_ZN65_$LT$core..str..iter..EncodeUtf16$u20$as$u20$core..fmt..Debug$GT$3fmt17h3d8a1d710fa60348E
libstd-4e66027e5c9dd3e7.so:_ZN65_$LT$core..str..iter..EscapeDebug$u20$as$u20$core..fmt..Debug$GT$3fmt17hbc775764eae76799E
libstd-4e66027e5c9dd3e7.so:_ZN65_$LT$core..str..lossy..Utf8Chunks$u20$as$u20$core..fmt..Debug$GT$3fmt17h11896dec3ac9b1a5E
libstd-4e66027e5c9dd3e7.so:_ZN65_$LT$core..sync..atomic..AtomicI8$u20$as$u20$core..fmt..Debug$GT$3fmt17h804cbbc91fa78043E
libstd-4e66027e5c9dd3e7.so:_ZN65_$LT$core..sync..atomic..AtomicU8$u20$as$u20$core..fmt..Debug$GT$3fmt17h6913a649dff01026E
libstd-4e66027e5c9dd3e7.so:_ZN65_$LT$core..sync..atomic..Ordering$u20$as$u20$core..fmt..Debug$GT$3fmt17hdbb620546636bf26E
libstd-4e66027e5c9dd3e7.so:_ZN65_$LT$gimli..common..DwarfFileType$u20$as$u20$core..fmt..Debug$GT$3fmt17h5fecfbfc2d65bd54E
libstd-4e66027e5c9dd3e7.so:_ZN65_$LT$gimli..constants..DwAccess$u20$as$u20$core..fmt..Display$GT$3fmt17h3957c239c8e3a457E
libstd-4e66027e5c9dd3e7.so:_ZN65_$LT$gimli..constants..DwChildren$u20$as$u20$core..fmt..Debug$GT$3fmt17h7f767f7ff0e9c0f5E
libstd-4e66027e5c9dd3e7.so:_ZN65_$LT$gimli..constants..DwSectV2$u20$as$u20$core..fmt..Display$GT$3fmt17hb295dc5de8c8139bE
libstd-4e66027e5c9dd3e7.so:_ZN65_$LT$gimli..read..rnglists..Range$u20$as$u20$core..fmt..Debug$GT$3fmt17hf90d724f51d5792aE
libstd-4e66027e5c9dd3e7.so:_ZN65_$LT$libc..unix..linux_like..tm$u20$as$u20$core..clone..Clone$GT$5clone17h844c0b605cc332ebE
libstd-4e66027e5c9dd3e7.so:_ZN65_$LT$memchr..memmem..SearcherKind$u20$as$u20$core..fmt..Debug$GT$3fmt17hf5f501997cd44972E
libstd-4e66027e5c9dd3e7.so:_ZN65_$LT$object..common..Architecture$u20$as$u20$core..fmt..Debug$GT$3fmt17h96fa3c4f0e582253E
libstd-4e66027e5c9dd3e7.so:_ZN65_$LT$object..common..BinaryFormat$u20$as$u20$core..fmt..Debug$GT$3fmt17ha2ddc7f7b0211f21E
libstd-4e66027e5c9dd3e7.so:_ZN65_$LT$object..common..SectionFlags$u20$as$u20$core..fmt..Debug$GT$3fmt17h71d0875ece29bc2aE
libstd-4e66027e5c9dd3e7.so:_ZN65_$LT$object..common..SegmentFlags$u20$as$u20$core..fmt..Debug$GT$3fmt17hd79621d75f54827fE
libstd-4e66027e5c9dd3e7.so:_ZN65_$LT$object..endian..LittleEndian$u20$as$u20$core..fmt..Debug$GT$3fmt17h67961058314c562aE
libstd-4e66027e5c9dd3e7.so:_ZN65_$LT$object..pe..AnonObjectHeader$u20$as$u20$core..fmt..Debug$GT$3fmt17h021f0c3380c9e326E
libstd-4e66027e5c9dd3e7.so:_ZN65_$LT$object..pe..ImageCor20Header$u20$as$u20$core..fmt..Debug$GT$3fmt17h14b6b220c0a6ee77E
libstd-4e66027e5c9dd3e7.so:_ZN65_$LT$object..pe..ImageNtHeaders32$u20$as$u20$core..fmt..Debug$GT$3fmt17h78addf75417220bcE
libstd-4e66027e5c9dd3e7.so:_ZN65_$LT$object..pe..ImageNtHeaders64$u20$as$u20$core..fmt..Debug$GT$3fmt17h707e728392660e71E
libstd-4e66027e5c9dd3e7.so:_ZN65_$LT$object..pe..ImageSymbolBytes$u20$as$u20$core..fmt..Debug$GT$3fmt17ha2b391874fb23c8bE
libstd-4e66027e5c9dd3e7.so:_ZN65_$LT$object..pe..ImageThunkData32$u20$as$u20$core..fmt..Debug$GT$3fmt17h6e700e0a6f246cb8E
libstd-4e66027e5c9dd3e7.so:_ZN65_$LT$object..pe..ImageThunkData64$u20$as$u20$core..fmt..Debug$GT$3fmt17h3e610dfd2e5ac24fE
libstd-4e66027e5c9dd3e7.so:_ZN65_$LT$object..read..CompressedData$u20$as$u20$core..fmt..Debug$GT$3fmt17h66f3a86dcc6d015dE
libstd-4e66027e5c9dd3e7.so:_ZN65_$LT$object..read..ObjectMapEntry$u20$as$u20$core..fmt..Debug$GT$3fmt17h365f295a2b37753eE
libstd-4e66027e5c9dd3e7.so:_ZN65_$LT$object..read..util..DebugLen$u20$as$u20$core..fmt..Debug$GT$3fmt17h64227c3dd8b1f0ddE
libstd-4e66027e5c9dd3e7.so:_ZN65_$LT$std..backtrace_rs..Bomb$u20$as$u20$core..ops..drop..Drop$GT$4drop17h1627b57bff3e8fabE
libstd-4e66027e5c9dd3e7.so:_ZN65_$LT$std..sync..mpsc..RecvError$u20$as$u20$core..error..Error$GT$11description17hc30907337e427e6cE
libstd-4e66027e5c9dd3e7.so:_ZN65_$LT$std..sync..mpsc..RecvError$u20$as$u20$core..fmt..Display$GT$3fmt17h0227b26397792289E
libstd-4e66027e5c9dd3e7.so:_ZN65_$LT$std..sys..unix..fd..FileDesc$u20$as$u20$core..fmt..Debug$GT$3fmt17h8a63b33eb16834a9E
libstd-4e66027e5c9dd3e7.so:_ZN65_$LT$std..sys..unix..fs..Dir$u20$as$u20$core..ops..drop..Drop$GT$4drop17h54d1d1c5687e4b5eE
libstd-4e66027e5c9dd3e7.so:_ZN65_$LT$std..sys..unix..fs..FileType$u20$as$u20$core..fmt..Debug$GT$3fmt17h6300ea26f98fd8d8E
libstd-4e66027e5c9dd3e7.so:_ZN65_$LT$std..thread..PanicGuard$u20$as$u20$core..ops..drop..Drop$GT$4drop17h1ebc5aa53bd4f731E
libstd-4e66027e5c9dd3e7.so:_ZN65_$LT$std..time..SystemTimeError$u20$as$u20$core..error..Error$GT$11description17h0aebebc49c565b71E
libstd-4e66027e5c9dd3e7.so:_ZN65_$LT$std..time..SystemTimeError$u20$as$u20$core..fmt..Display$GT$3fmt17h0e2d2512f24c451dE
libstd-4e66027e5c9dd3e7.so:_ZN66_$LT$$RF$std..sys..unix..fd..FileDesc$u20$as$u20$std..io..Read$GT$4read17h133ac20cae55edc4E
libstd-4e66027e5c9dd3e7.so:_ZN66_$LT$adler..algo..U32X4$u20$as$u20$core..ops..arith..AddAssign$GT$10add_assign17hd4de5ef7f6f88b8fE
libstd-4e66027e5c9dd3e7.so:_ZN66_$LT$alloc..ffi..c_str..NulError$u20$as$u20$core..error..Error$GT$11description17h536e52e6485029d2E
libstd-4e66027e5c9dd3e7.so:_ZN66_$LT$alloc..ffi..c_str..NulError$u20$as$u20$core..fmt..Display$GT$3fmt17h27b05da6e5a76f86E
libstd-4e66027e5c9dd3e7.so:_ZN66_$LT$alloc..string..FromUtf16Error$u20$as$u20$core..fmt..Debug$GT$3fmt17hf6fcd2e16a999d19E
libstd-4e66027e5c9dd3e7.so:_ZN66_$LT$core..char..CaseMappingIter$u20$as$u20$core..fmt..Display$GT$3fmt17ha447a7fed154bd05E
libstd-4e66027e5c9dd3e7.so:_ZN66_$LT$core..convert..Infallible$u20$as$u20$core..cmp..PartialEq$GT$2eq17hecc641cfd3734fe1E
libstd-4e66027e5c9dd3e7.so:_ZN66_$LT$core..core_arch..simd..f32x16$u20$as$u20$core..fmt..Debug$GT$3fmt17h80e9883c5f352adeE
libstd-4e66027e5c9dd3e7.so:_ZN66_$LT$core..core_arch..simd..i16x16$u20$as$u20$core..fmt..Debug$GT$3fmt17h5188d2e217f31d00E
libstd-4e66027e5c9dd3e7.so:_ZN66_$LT$core..core_arch..simd..i16x32$u20$as$u20$core..fmt..Debug$GT$3fmt17h4b578846697271a0E
libstd-4e66027e5c9dd3e7.so:_ZN66_$LT$core..core_arch..simd..i32x16$u20$as$u20$core..fmt..Debug$GT$3fmt17hc3d6b9d3fc9d0dcbE
libstd-4e66027e5c9dd3e7.so:_ZN66_$LT$core..core_arch..simd..u16x16$u20$as$u20$core..fmt..Debug$GT$3fmt17haf72a4c037ee09cbE
libstd-4e66027e5c9dd3e7.so:_ZN66_$LT$core..core_arch..simd..u16x32$u20$as$u20$core..fmt..Debug$GT$3fmt17hf80f79cc0b1b1075E
libstd-4e66027e5c9dd3e7.so:_ZN66_$LT$core..core_arch..simd..u32x16$u20$as$u20$core..fmt..Debug$GT$3fmt17h8cb4070f2aab0ed4E
libstd-4e66027e5c9dd3e7.so:_ZN66_$LT$core..core_arch..x86..__m128d$u20$as$u20$core..fmt..Debug$GT$3fmt17h98000659975ef633E
libstd-4e66027e5c9dd3e7.so:_ZN66_$LT$core..core_arch..x86..__m128i$u20$as$u20$core..fmt..Debug$GT$3fmt17h384ea134ef5eb001E
libstd-4e66027e5c9dd3e7.so:_ZN66_$LT$core..core_arch..x86..__m256d$u20$as$u20$core..fmt..Debug$GT$3fmt17h27264346536984a9E
libstd-4e66027e5c9dd3e7.so:_ZN66_$LT$core..core_arch..x86..__m256i$u20$as$u20$core..fmt..Debug$GT$3fmt17h997dbee648aa5801E
libstd-4e66027e5c9dd3e7.so:_ZN66_$LT$core..core_arch..x86..__m512d$u20$as$u20$core..fmt..Debug$GT$3fmt17h40a857dd6b4a0b41E
libstd-4e66027e5c9dd3e7.so:_ZN66_$LT$core..core_arch..x86..__m512i$u20$as$u20$core..fmt..Debug$GT$3fmt17h4f20badc35d4e149E
libstd-4e66027e5c9dd3e7.so:_ZN66_$LT$core..num..bignum..Big32x40$u20$as$u20$core..clone..Clone$GT$5clone17h6778b5c0c486eb8bE
libstd-4e66027e5c9dd3e7.so:_ZN66_$LT$core..slice..sort..TimSortRun$u20$as$u20$core..fmt..Debug$GT$3fmt17hb5ea50e437e3ed41E
libstd-4e66027e5c9dd3e7.so:_ZN66_$LT$core..str..error..Utf8Error$u20$as$u20$core..error..Error$GT$11description17hcdb81f77e95a55cbE
libstd-4e66027e5c9dd3e7.so:_ZN66_$LT$core..str..error..Utf8Error$u20$as$u20$core..fmt..Display$GT$3fmt17h8a6a4f859007a2adE
libstd-4e66027e5c9dd3e7.so:_ZN66_$LT$core..sync..atomic..AtomicI16$u20$as$u20$core..fmt..Debug$GT$3fmt17h11b0512530b0203cE
libstd-4e66027e5c9dd3e7.so:_ZN66_$LT$core..sync..atomic..AtomicI32$u20$as$u20$core..fmt..Debug$GT$3fmt17h55135c48ab1a16a1E
libstd-4e66027e5c9dd3e7.so:_ZN66_$LT$core..sync..atomic..AtomicI64$u20$as$u20$core..fmt..Debug$GT$3fmt17hb60b7d5c19871058E
libstd-4e66027e5c9dd3e7.so:_ZN66_$LT$core..sync..atomic..AtomicU16$u20$as$u20$core..fmt..Debug$GT$3fmt17hb0a176afc9bb4b2cE
libstd-4e66027e5c9dd3e7.so:_ZN66_$LT$core..sync..atomic..AtomicU32$u20$as$u20$core..fmt..Debug$GT$3fmt17h1e08786660142658E
libstd-4e66027e5c9dd3e7.so:_ZN66_$LT$core..sync..atomic..AtomicU64$u20$as$u20$core..fmt..Debug$GT$3fmt17h20d7685404a70ae1E
libstd-4e66027e5c9dd3e7.so:_ZN66_$LT$gimli..constants..DwDefaulted$u20$as$u20$core..fmt..Debug$GT$3fmt17ha2ceb2f8ef3e55aeE
libstd-4e66027e5c9dd3e7.so:_ZN66_$LT$gimli..read..line..ColumnType$u20$as$u20$core..fmt..Debug$GT$3fmt17h22bc61f1ab3960abE
libstd-4e66027e5c9dd3e7.so:_ZN66_$LT$gimli..read..value..ValueType$u20$as$u20$core..fmt..Debug$GT$3fmt17h57ac69ead4ff1b4fE
libstd-4e66027e5c9dd3e7.so:_ZN66_$LT$libc..unix..align..in6_addr$u20$as$u20$core..clone..Clone$GT$5clone17hf6eb0995ce3490b0E
libstd-4e66027e5c9dd3e7.so:_ZN66_$LT$memchr..memmem..FinderBuilder$u20$as$u20$core..fmt..Debug$GT$3fmt17h9e6924f8b56ae177E
libstd-4e66027e5c9dd3e7.so:_ZN66_$LT$memchr..memmem..twoway..Shift$u20$as$u20$core..fmt..Debug$GT$3fmt17h32cdb1b63e13ba9cE
libstd-4e66027e5c9dd3e7.so:_ZN66_$LT$object..macho..RelocationInfo$u20$as$u20$core..fmt..Debug$GT$3fmt17hd39f381e396e600dE
libstd-4e66027e5c9dd3e7.so:_ZN66_$LT$object..pe..ImageAuxSymbolCrc$u20$as$u20$core..fmt..Debug$GT$3fmt17h7bc1c532097a41aeE
libstd-4e66027e5c9dd3e7.so:_ZN66_$LT$object..pe..ImageHotPatchBase$u20$as$u20$core..fmt..Debug$GT$3fmt17he04d38ae8659ca04E
libstd-4e66027e5c9dd3e7.so:_ZN66_$LT$object..pe..ImageHotPatchInfo$u20$as$u20$core..fmt..Debug$GT$3fmt17h13ba16ea1e6a2e7aE
libstd-4e66027e5c9dd3e7.so:_ZN66_$LT$object..pe..ImageImportByName$u20$as$u20$core..fmt..Debug$GT$3fmt17h85c6d0a98cb3d19dE
libstd-4e66027e5c9dd3e7.so:_ZN66_$LT$object..pe..NonPagedDebugInfo$u20$as$u20$core..fmt..Debug$GT$3fmt17hfc8547fccfa4c058E
libstd-4e66027e5c9dd3e7.so:_ZN66_$LT$object..read..util..DebugByte$u20$as$u20$core..fmt..Debug$GT$3fmt17h7fc5e23bf1f6d641E
libstd-4e66027e5c9dd3e7.so:_ZN66_$LT$std..error..private..Internal$u20$as$u20$core..fmt..Debug$GT$3fmt17h08473f5d5c153474E
libstd-4e66027e5c9dd3e7.so:_ZN66_$LT$std..io..error..SimpleMessage$u20$as$u20$core..fmt..Debug$GT$3fmt17hbe16ae936bf653d1E
libstd-4e66027e5c9dd3e7.so:_ZN66_$LT$std..io..readbuf..BorrowedBuf$u20$as$u20$core..fmt..Debug$GT$3fmt17hf1851b0fb9afdc6dE
libstd-4e66027e5c9dd3e7.so:_ZN66_$LT$std..net..ip_addr..Ipv4Addr$u20$as$u20$core..fmt..Display$GT$3fmt17he1f28e0b867f9841E
libstd-4e66027e5c9dd3e7.so:_ZN66_$LT$std..net..ip_addr..Ipv6Addr$u20$as$u20$core..fmt..Display$GT$3fmt17ha4f49df3735dcf34E
libstd-4e66027e5c9dd3e7.so:_ZN66_$LT$std..path..StripPrefixError$u20$as$u20$core..error..Error$GT$11description17ha779b2075f249183E
libstd-4e66027e5c9dd3e7.so:_ZN66_$LT$std..path..StripPrefixError$u20$as$u20$core..fmt..Display$GT$3fmt17h2aa28aeee500298bE
libstd-4e66027e5c9dd3e7.so:_ZN66_$LT$std..process..ExitStatusError$u20$as$u20$core..fmt..Debug$GT$3fmt17h036198fe8bb20eecE
libstd-4e66027e5c9dd3e7.so:_ZN66_$LT$std..sync..mpsc..TryRecvError$u20$as$u20$core..fmt..Debug$GT$3fmt17h041613c4a2c3d064E
libstd-4e66027e5c9dd3e7.so:_ZN66_$LT$std..sys..unix..fs..FileTimes$u20$as$u20$core..fmt..Debug$GT$3fmt17hab4ffd27be1410edE
libstd-4e66027e5c9dd3e7.so:_ZN66_$LT$std..sys..unix..os_str..Buf$u20$as$u20$core..fmt..Display$GT$3fmt17he9253fc7435572efE
libstd-4e66027e5c9dd3e7.so:_ZN66_$LT$std..sys..unix..os_str..Slice$u20$as$u20$core..fmt..Debug$GT$3fmt17ha511ee3165d35ca9E
libstd-4e66027e5c9dd3e7.so:_ZN66_$LT$std..sys_common..wtf8..Wtf8$u20$as$u20$core..fmt..Display$GT$3fmt17h93978825eda32214E
libstd-4e66027e5c9dd3e7.so:_ZN67_$LT$alloc..boxed..Box$LT$str$GT$$u20$as$u20$core..clone..Clone$GT$5clone17had05d0a8d77bad59E
libstd-4e66027e5c9dd3e7.so:_ZN67_$LT$alloc..string..FromUtf8Error$u20$as$u20$core..error..Error$GT$11description17h3351e4ffbf899d21E
libstd-4e66027e5c9dd3e7.so:_ZN67_$LT$alloc..string..FromUtf8Error$u20$as$u20$core..fmt..Display$GT$3fmt17hf46de306f6804579E
libstd-4e66027e5c9dd3e7.so:_ZN67_$LT$core..array..TryFromSliceError$u20$as$u20$core..fmt..Debug$GT$3fmt17h789877d60d7cb45bE
libstd-4e66027e5c9dd3e7.so:_ZN67_$LT$core..char..EscapeDefaultState$u20$as$u20$core..fmt..Debug$GT$3fmt17ha8175f7997102351E
libstd-4e66027e5c9dd3e7.so:_ZN67_$LT$core..char..EscapeUnicodeState$u20$as$u20$core..fmt..Debug$GT$3fmt17h5542ff64e521dc53E
libstd-4e66027e5c9dd3e7.so:_ZN67_$LT$core..char..TryFromCharError$u20$as$u20$core..fmt..Display$GT$3fmt17h2bd08bdd66b15f56E
libstd-4e66027e5c9dd3e7.so:_ZN67_$LT$core..convert..Infallible$u20$as$u20$core..cmp..PartialOrd$GT$11partial_cmp17h0ca0ed013aad01a3E
libstd-4e66027e5c9dd3e7.so:_ZN67_$LT$core..core_arch..x86..__m128bh$u20$as$u20$core..fmt..Debug$GT$3fmt17h45d37b6334b49c56E
libstd-4e66027e5c9dd3e7.so:_ZN67_$LT$core..core_arch..x86..__m256bh$u20$as$u20$core..fmt..Debug$GT$3fmt17hd541b7e8de2624feE
libstd-4e66027e5c9dd3e7.so:_ZN67_$LT$core..core_arch..x86..__m512bh$u20$as$u20$core..fmt..Debug$GT$3fmt17h1521b1c752352119E
libstd-4e66027e5c9dd3e7.so:_ZN67_$LT$core..error..private..Internal$u20$as$u20$core..fmt..Debug$GT$3fmt17h23e1d223a09456dbE
libstd-4e66027e5c9dd3e7.so:_ZN67_$LT$core..num..bignum..tests..Big8x3$u20$as$u20$core..cmp..Ord$GT$3cmp17ha935ced25baf92c2E
libstd-4e66027e5c9dd3e7.so:_ZN67_$LT$core..num..error..IntErrorKind$u20$as$u20$core..fmt..Debug$GT$3fmt17h4d867a2b75a783e3E
libstd-4e66027e5c9dd3e7.so:_ZN67_$LT$core..str..iter..EscapeDebug$u20$as$u20$core..fmt..Display$GT$3fmt17h4525df40cbdafe48E
libstd-4e66027e5c9dd3e7.so:_ZN67_$LT$core..str..iter..EscapeDefault$u20$as$u20$core..fmt..Debug$GT$3fmt17h77abc8669efbab97E
libstd-4e66027e5c9dd3e7.so:_ZN67_$LT$core..str..iter..EscapeUnicode$u20$as$u20$core..fmt..Debug$GT$3fmt17hf58debf82e79cc0eE
libstd-4e66027e5c9dd3e7.so:_ZN67_$LT$core..str..pattern..SearchStep$u20$as$u20$core..fmt..Debug$GT$3fmt17h3a7e31822c7aa7b1E
libstd-4e66027e5c9dd3e7.so:_ZN67_$LT$core..sync..atomic..AtomicBool$u20$as$u20$core..fmt..Debug$GT$3fmt17h27bf4548f73d468bE
libstd-4e66027e5c9dd3e7.so:_ZN67_$LT$f32$u20$as$u20$core..num..flt2dec..decoder..DecodableFloat$GT$18min_pos_norm_value17h8ccac9145e71ff10E
libstd-4e66027e5c9dd3e7.so:_ZN67_$LT$f64$u20$as$u20$core..num..flt2dec..decoder..DecodableFloat$GT$18min_pos_norm_value17h66f272e575ffb4c3E
libstd-4e66027e5c9dd3e7.so:_ZN67_$LT$gimli..constants..DwChildren$u20$as$u20$core..fmt..Display$GT$3fmt17h59927fd6f805f84aE
libstd-4e66027e5c9dd3e7.so:_ZN67_$LT$gimli..constants..DwVirtuality$u20$as$u20$core..fmt..Debug$GT$3fmt17h4e40ecdb42b9ae7cE
libstd-4e66027e5c9dd3e7.so:_ZN67_$LT$gimli..endianity..LittleEndian$u20$as$u20$core..fmt..Debug$GT$3fmt17h0680844dd8740971E
libstd-4e66027e5c9dd3e7.so:_ZN67_$LT$gimli..read..cfi..Augmentation$u20$as$u20$core..fmt..Debug$GT$3fmt17h61924f74a52c18c8E
libstd-4e66027e5c9dd3e7.so:_ZN67_$LT$memchr..memmem..SearcherConfig$u20$as$u20$core..fmt..Debug$GT$3fmt17h688775cd5f8fb2c6E
libstd-4e66027e5c9dd3e7.so:_ZN67_$LT$memchr..memmem..twoway..Suffix$u20$as$u20$core..fmt..Debug$GT$3fmt17h6b9b6f294d622bb2E
libstd-4e66027e5c9dd3e7.so:_ZN67_$LT$memchr..memmem..twoway..TwoWay$u20$as$u20$core..fmt..Debug$GT$3fmt17ha0a5414004db6d33E
libstd-4e66027e5c9dd3e7.so:_ZN67_$LT$object..common..RelocationKind$u20$as$u20$core..fmt..Debug$GT$3fmt17h17032c4f21d441eeE
libstd-4e66027e5c9dd3e7.so:_ZN67_$LT$object..pe..AnonObjectHeaderV2$u20$as$u20$core..fmt..Debug$GT$3fmt17h725685434e9e3ec2E
libstd-4e66027e5c9dd3e7.so:_ZN67_$LT$object..pe..ImageAuxSymbolWeak$u20$as$u20$core..fmt..Debug$GT$3fmt17h2051cabf9b13f6baE
libstd-4e66027e5c9dd3e7.so:_ZN67_$LT$object..pe..ImageDataDirectory$u20$as$u20$core..fmt..Debug$GT$3fmt17hb0e185fd488977dcE
libstd-4e66027e5c9dd3e7.so:_ZN67_$LT$object..pe..ImageEnclaveImport$u20$as$u20$core..fmt..Debug$GT$3fmt17h5be2386dfd4a57a4E
libstd-4e66027e5c9dd3e7.so:_ZN67_$LT$object..pe..ImageFunctionEntry$u20$as$u20$core..fmt..Debug$GT$3fmt17hbac37c02ac99c89bE
libstd-4e66027e5c9dd3e7.so:_ZN67_$LT$object..pe..ImageSectionHeader$u20$as$u20$core..fmt..Debug$GT$3fmt17h5ceca13d658fed90E
libstd-4e66027e5c9dd3e7.so:_ZN67_$LT$object..pe..ImageSymbolExBytes$u20$as$u20$core..fmt..Debug$GT$3fmt17h1d06523ddd8520f4E
libstd-4e66027e5c9dd3e7.so:_ZN67_$LT$object..pe..ImportObjectHeader$u20$as$u20$core..fmt..Debug$GT$3fmt17h014b269afe52ec59E
libstd-4e66027e5c9dd3e7.so:_ZN67_$LT$object..read..RelocationTarget$u20$as$u20$core..fmt..Debug$GT$3fmt17he52ecd0561f56cc7E
libstd-4e66027e5c9dd3e7.so:_ZN67_$LT$object..read..util..ByteString$u20$as$u20$core..fmt..Debug$GT$3fmt17h80dcf2f5ecb9e2d8E
libstd-4e66027e5c9dd3e7.so:_ZN67_$LT$rustc_demangle..v0..Demangle$u20$as$u20$core..fmt..Display$GT$3fmt17h5c2c50b70ea8a0bfE
libstd-4e66027e5c9dd3e7.so:_ZN67_$LT$rustc_demangle..v0..ParseError$u20$as$u20$core..fmt..Debug$GT$3fmt17h412a6cb7b9e7d0cdE
libstd-4e66027e5c9dd3e7.so:_ZN67_$LT$std..backtrace..BacktraceFrame$u20$as$u20$core..fmt..Debug$GT$3fmt17h333d7d12096a944bE
libstd-4e66027e5c9dd3e7.so:_ZN67_$LT$std..io..readbuf..BorrowedCursor$u20$as$u20$std..io..Write$GT$5flush17h4629cb0d5c9f772dE
libstd-4e66027e5c9dd3e7.so:_ZN67_$LT$std..io..readbuf..BorrowedCursor$u20$as$u20$std..io..Write$GT$5write17h1c9d623873077553E
libstd-4e66027e5c9dd3e7.so:_ZN67_$LT$std..os..fd..owned..BorrowedFd$u20$as$u20$core..fmt..Debug$GT$3fmt17h1f6629e637cc078bE
libstd-4e66027e5c9dd3e7.so:_ZN67_$LT$std..os..linux..process..PidFd$u20$as$u20$core..fmt..Debug$GT$3fmt17h975c81006637c197E
libstd-4e66027e5c9dd3e7.so:_ZN67_$LT$std..sync..mpmc..select..Token$u20$as$u20$core..fmt..Debug$GT$3fmt17he1b793f20d923bb9E
libstd-4e66027e5c9dd3e7.so:_ZN67_$LT$std..sys..unix..fs..DirBuilder$u20$as$u20$core..fmt..Debug$GT$3fmt17hcc9e800efda0b251E
libstd-4e66027e5c9dd3e7.so:_ZN68_$LT$$RF$$u5b$u8$u5d$$u20$as$u20$object..read..read_ref..ReadRef$GT$13read_bytes_at17h531ad0e296f0186fE
libstd-4e66027e5c9dd3e7.so:_ZN68_$LT$$RF$$u5b$u8$u5d$$u20$as$u20$object..read..read_ref..ReadRef$GT$19read_bytes_at_until17h136f4fe04f5eee57E
libstd-4e66027e5c9dd3e7.so:_ZN68_$LT$$RF$$u5b$u8$u5d$$u20$as$u20$object..read..read_ref..ReadRef$GT$3len17h5cd23bcaf74deda3E
libstd-4e66027e5c9dd3e7.so:_ZN68_$LT$alloc..string..FromUtf16Error$u20$as$u20$core..error..Error$GT$11description17he743d789badb515eE
libstd-4e66027e5c9dd3e7.so:_ZN68_$LT$alloc..string..FromUtf16Error$u20$as$u20$core..fmt..Display$GT$3fmt17h704d15176419c17bE
libstd-4e66027e5c9dd3e7.so:_ZN68_$LT$core..core_simd..swizzle..Which$u20$as$u20$core..fmt..Debug$GT$3fmt17h5a4b534fa3348fd3E
libstd-4e66027e5c9dd3e7.so:_ZN68_$LT$core..fmt..builders..PadAdapter$u20$as$u20$core..fmt..Write$GT$9write_str17h633392c31f134ddbE
libstd-4e66027e5c9dd3e7.so:_ZN68_$LT$core..num..bignum..Big32x40$u20$as$u20$core..cmp..PartialEq$GT$2eq17h619090fe9561ae4cE
libstd-4e66027e5c9dd3e7.so:_ZN68_$LT$core..num..error..ParseIntError$u20$as$u20$core..fmt..Debug$GT$3fmt17h51d3e63fc06d6959E
libstd-4e66027e5c9dd3e7.so:_ZN68_$LT$core..panic..location..Location$u20$as$u20$core..fmt..Debug$GT$3fmt17h1e8f92ee3c14de0cE
libstd-4e66027e5c9dd3e7.so:_ZN68_$LT$core..ptr..alignment..Alignment$u20$as$u20$core..fmt..Debug$GT$3fmt17h36b2e3e78856b12fE
libstd-4e66027e5c9dd3e7.so:_ZN68_$LT$core..slice..ascii..EscapeAscii$u20$as$u20$core..fmt..Debug$GT$3fmt17hbe5f9f4a427aaceeE
libstd-4e66027e5c9dd3e7.so:_ZN68_$LT$core..str..pattern..EmptyNeedle$u20$as$u20$core..fmt..Debug$GT$3fmt17h109b99da00c6a0d0E
libstd-4e66027e5c9dd3e7.so:_ZN68_$LT$core..str..pattern..StrSearcher$u20$as$u20$core..fmt..Debug$GT$3fmt17h44a88be10536882bE
libstd-4e66027e5c9dd3e7.so:_ZN68_$LT$core..sync..atomic..AtomicIsize$u20$as$u20$core..fmt..Debug$GT$3fmt17h679299aefd97aa43E
libstd-4e66027e5c9dd3e7.so:_ZN68_$LT$core..sync..atomic..AtomicUsize$u20$as$u20$core..fmt..Debug$GT$3fmt17h41b5bc0740b87547E
libstd-4e66027e5c9dd3e7.so:_ZN68_$LT$core..time..Duration$u20$as$u20$core..ops..arith..AddAssign$GT$10add_assign17hff367227291158c4E
libstd-4e66027e5c9dd3e7.so:_ZN68_$LT$core..time..Duration$u20$as$u20$core..ops..arith..SubAssign$GT$10sub_assign17h6ed4231ed8bf9249E
libstd-4e66027e5c9dd3e7.so:_ZN68_$LT$gimli..constants..DwDefaulted$u20$as$u20$core..fmt..Display$GT$3fmt17h8b652b0833838c7cE
libstd-4e66027e5c9dd3e7.so:_ZN68_$LT$gimli..endianity..RunTimeEndian$u20$as$u20$core..fmt..Debug$GT$3fmt17h08186fcd3e5bc911E
libstd-4e66027e5c9dd3e7.so:_ZN68_$LT$gimli..read..abbrev..Attributes$u20$as$u20$core..fmt..Debug$GT$3fmt17h000e7ea470bdcfcdE
libstd-4e66027e5c9dd3e7.so:_ZN68_$LT$gimli..read..cfi..BaseAddresses$u20$as$u20$core..fmt..Debug$GT$3fmt17heb60521a863e41f1E
libstd-4e66027e5c9dd3e7.so:_ZN68_$LT$gimli..read..lists..ListsHeader$u20$as$u20$core..fmt..Debug$GT$3fmt17h8ff223a73785bc5aE
libstd-4e66027e5c9dd3e7.so:_ZN68_$LT$gimli..read..rnglists..RawRange$u20$as$u20$core..fmt..Debug$GT$3fmt17hecd5a4cbf991c63bE
libstd-4e66027e5c9dd3e7.so:_ZN68_$LT$libc..unix..linux_like..lconv$u20$as$u20$core..clone..Clone$GT$5clone17hc4b96edfcc3d209cE
libstd-4e66027e5c9dd3e7.so:_ZN68_$LT$memchr..memmem..SearcherRevKind$u20$as$u20$core..fmt..Debug$GT$3fmt17hea3534e97981e597E
libstd-4e66027e5c9dd3e7.so:_ZN68_$LT$memchr..memmem..rabinkarp..Hash$u20$as$u20$core..fmt..Debug$GT$3fmt17hb21824eaac28790cE
libstd-4e66027e5c9dd3e7.so:_ZN68_$LT$memchr..memmem..twoway..Forward$u20$as$u20$core..fmt..Debug$GT$3fmt17ha19529d9d4f1e358E
libstd-4e66027e5c9dd3e7.so:_ZN68_$LT$memchr..memmem..twoway..Reverse$u20$as$u20$core..fmt..Debug$GT$3fmt17hb31f51de322b26f4E
libstd-4e66027e5c9dd3e7.so:_ZN68_$LT$object..pe..ImageBaseRelocation$u20$as$u20$core..fmt..Debug$GT$3fmt17h0916d681da57f813E
libstd-4e66027e5c9dd3e7.so:_ZN68_$LT$object..pe..ImageDebugDirectory$u20$as$u20$core..fmt..Debug$GT$3fmt17h500edd717f905ae1E
libstd-4e66027e5c9dd3e7.so:_ZN68_$LT$object..pe..ImageHotPatchHashes$u20$as$u20$core..fmt..Debug$GT$3fmt17h3808f9b40abc5b71E
libstd-4e66027e5c9dd3e7.so:_ZN68_$LT$object..pe..ImageTlsDirectory32$u20$as$u20$core..fmt..Debug$GT$3fmt17h6a598d572fec082cE
libstd-4e66027e5c9dd3e7.so:_ZN68_$LT$object..pe..ImageTlsDirectory64$u20$as$u20$core..fmt..Debug$GT$3fmt17h1375fd9f34a33da0E
libstd-4e66027e5c9dd3e7.so:_ZN68_$LT$object..read..CompressionFormat$u20$as$u20$core..fmt..Debug$GT$3fmt17h8edc15b96bfcd7ffE
libstd-4e66027e5c9dd3e7.so:_ZN68_$LT$rustc_demangle..DemangleStyle$u20$as$u20$core..fmt..Display$GT$3fmt17ha414973cbfe5287dE
libstd-4e66027e5c9dd3e7.so:_ZN68_$LT$std..backtrace..BacktraceStatus$u20$as$u20$core..fmt..Debug$GT$3fmt17h6a585967ff106f8fE
libstd-4e66027e5c9dd3e7.so:_ZN68_$LT$std..backtrace..BacktraceSymbol$u20$as$u20$core..fmt..Debug$GT$3fmt17h54d364879de2e0ceE
libstd-4e66027e5c9dd3e7.so:_ZN68_$LT$std..fs..DirEntry$u20$as$u20$std..os..unix..fs..DirEntryExt$GT$3ino17h4a86cab7287b88d0E
libstd-4e66027e5c9dd3e7.so:_ZN68_$LT$std..fs..FileType$u20$as$u20$std..os..unix..fs..FileTypeExt$GT$14is_char_device17h4dff4fb98055930fE
libstd-4e66027e5c9dd3e7.so:_ZN68_$LT$std..fs..FileType$u20$as$u20$std..os..unix..fs..FileTypeExt$GT$15is_block_device17h8361b903bbddb79dE
libstd-4e66027e5c9dd3e7.so:_ZN68_$LT$std..fs..FileType$u20$as$u20$std..os..unix..fs..FileTypeExt$GT$7is_fifo17h1771b6a834f46047E
libstd-4e66027e5c9dd3e7.so:_ZN68_$LT$std..fs..FileType$u20$as$u20$std..os..unix..fs..FileTypeExt$GT$9is_socket17ha20b9405185246f7E
libstd-4e66027e5c9dd3e7.so:_ZN68_$LT$std..fs..Metadata$u20$as$u20$std..os..unix..fs..MetadataExt$GT$10atime_nsec17hc7123731e04a26ecE
libstd-4e66027e5c9dd3e7.so:_ZN68_$LT$std..fs..Metadata$u20$as$u20$std..os..unix..fs..MetadataExt$GT$10ctime_nsec17h0ad72c4611ed93f4E
libstd-4e66027e5c9dd3e7.so:_ZN68_$LT$std..fs..Metadata$u20$as$u20$std..os..unix..fs..MetadataExt$GT$10mtime_nsec17hd4f262909a41e897E
libstd-4e66027e5c9dd3e7.so:_ZN68_$LT$std..fs..Metadata$u20$as$u20$std..os..unix..fs..MetadataExt$GT$3dev17h8c1a4e95364f4031E
libstd-4e66027e5c9dd3e7.so:_ZN68_$LT$std..fs..Metadata$u20$as$u20$std..os..unix..fs..MetadataExt$GT$3gid17ha14ffe7a1a075ad4E
libstd-4e66027e5c9dd3e7.so:_ZN68_$LT$std..fs..Metadata$u20$as$u20$std..os..unix..fs..MetadataExt$GT$3ino17hd0fe1020ae5edaecE
libstd-4e66027e5c9dd3e7.so:_ZN68_$LT$std..fs..Metadata$u20$as$u20$std..os..unix..fs..MetadataExt$GT$3uid17hbe0f7ba09ce821bcE
libstd-4e66027e5c9dd3e7.so:_ZN68_$LT$std..fs..Metadata$u20$as$u20$std..os..unix..fs..MetadataExt$GT$4mode17h185001fb83a38e0eE
libstd-4e66027e5c9dd3e7.so:_ZN68_$LT$std..fs..Metadata$u20$as$u20$std..os..unix..fs..MetadataExt$GT$4rdev17h85afb2cb0428591fE
libstd-4e66027e5c9dd3e7.so:_ZN68_$LT$std..fs..Metadata$u20$as$u20$std..os..unix..fs..MetadataExt$GT$4size17hd26ec302ac2758cdE
libstd-4e66027e5c9dd3e7.so:_ZN68_$LT$std..fs..Metadata$u20$as$u20$std..os..unix..fs..MetadataExt$GT$5atime17h6c7d3de94e469859E
libstd-4e66027e5c9dd3e7.so:_ZN68_$LT$std..fs..Metadata$u20$as$u20$std..os..unix..fs..MetadataExt$GT$5ctime17ha899c5c4439de429E
libstd-4e66027e5c9dd3e7.so:_ZN68_$LT$std..fs..Metadata$u20$as$u20$std..os..unix..fs..MetadataExt$GT$5mtime17h90e03185fc01bc89E
libstd-4e66027e5c9dd3e7.so:_ZN68_$LT$std..fs..Metadata$u20$as$u20$std..os..unix..fs..MetadataExt$GT$5nlink17hcdaa27942ebdd4b9E
libstd-4e66027e5c9dd3e7.so:_ZN68_$LT$std..fs..Metadata$u20$as$u20$std..os..unix..fs..MetadataExt$GT$6blocks17h22c6efbab84494c2E
libstd-4e66027e5c9dd3e7.so:_ZN68_$LT$std..fs..Metadata$u20$as$u20$std..os..unix..fs..MetadataExt$GT$7blksize17h35fb8765b6ee10e0E
libstd-4e66027e5c9dd3e7.so:_ZN68_$LT$std..process..ExitStatusError$u20$as$u20$core..fmt..Display$GT$3fmt17ha7d3fa8a4ca53d0bE
libstd-4e66027e5c9dd3e7.so:_ZN68_$LT$std..sync..mpmc..context..Inner$u20$as$u20$core..fmt..Debug$GT$3fmt17h0b76a26622c898a8E
libstd-4e66027e5c9dd3e7.so:_ZN68_$LT$std..sync..mpsc..TryRecvError$u20$as$u20$core..error..Error$GT$11description17h40b1391e51f7f57dE
libstd-4e66027e5c9dd3e7.so:_ZN68_$LT$std..sync..mpsc..TryRecvError$u20$as$u20$core..fmt..Display$GT$3fmt17ha8381992b8e87827E
libstd-4e66027e5c9dd3e7.so:_ZN68_$LT$std..sys..unix..fs..OpenOptions$u20$as$u20$core..fmt..Debug$GT$3fmt17hc0b39917b6466f7bE
libstd-4e66027e5c9dd3e7.so:_ZN68_$LT$std..sys..unix..os_str..Slice$u20$as$u20$core..fmt..Display$GT$3fmt17h86f8ce2f9e5b2dfeE
libstd-4e66027e5c9dd3e7.so:_ZN68_$LT$std..sys_common..net..TcpStream$u20$as$u20$core..fmt..Debug$GT$3fmt17h0fee9f3be14081e1E
libstd-4e66027e5c9dd3e7.so:_ZN68_$LT$std..sys_common..net..UdpSocket$u20$as$u20$core..fmt..Debug$GT$3fmt17h04ff33c6b876fa33E
libstd-4e66027e5c9dd3e7.so:_ZN68_$LT$std..thread..local..AccessError$u20$as$u20$core..fmt..Debug$GT$3fmt17h2774e3ba2155d060E
libstd-4e66027e5c9dd3e7.so:_ZN69_$LT$$RF$core..ffi..c_str..CStr$u20$as$u20$core..default..Default$GT$7default17h3c5127a526bad96eE
libstd-4e66027e5c9dd3e7.so:_ZN69_$LT$alloc..ffi..c_str..CString$u20$as$u20$core..default..Default$GT$7default17h4923a9afc5010038E
libstd-4e66027e5c9dd3e7.so:_ZN69_$LT$core..alloc..layout..LayoutError$u20$as$u20$core..fmt..Debug$GT$3fmt17h07eb6b58058ad854E
libstd-4e66027e5c9dd3e7.so:_ZN69_$LT$core..array..TryFromSliceError$u20$as$u20$core..error..Error$GT$11description17heb4967e28739efc9E
libstd-4e66027e5c9dd3e7.so:_ZN69_$LT$core..num..bignum..Big32x40$u20$as$u20$core..cmp..PartialOrd$GT$11partial_cmp17h3b1d937afb1e09ccE
libstd-4e66027e5c9dd3e7.so:_ZN69_$LT$core..num..bignum..tests..Big8x3$u20$as$u20$core..fmt..Debug$GT$3fmt17haa6e83fa33e245c9E
libstd-4e66027e5c9dd3e7.so:_ZN69_$LT$core..str..error..ParseBoolError$u20$as$u20$core..fmt..Debug$GT$3fmt17h6993957f92082962E
libstd-4e66027e5c9dd3e7.so:_ZN69_$LT$core..str..iter..EscapeDefault$u20$as$u20$core..fmt..Display$GT$3fmt17hdab25613f0efc519E
libstd-4e66027e5c9dd3e7.so:_ZN69_$LT$core..str..iter..EscapeUnicode$u20$as$u20$core..fmt..Display$GT$3fmt17h30c4ee4eaae98962E
libstd-4e66027e5c9dd3e7.so:_ZN69_$LT$core..str..iter..SplitWhitespace$u20$as$u20$core..fmt..Debug$GT$3fmt17h24ddc1f5bb4eab4cE
libstd-4e66027e5c9dd3e7.so:_ZN69_$LT$core..str..pattern..CharSearcher$u20$as$u20$core..fmt..Debug$GT$3fmt17h48aa1971985ab93aE
libstd-4e66027e5c9dd3e7.so:_ZN69_$LT$core..task..wake..RawWakerVTable$u20$as$u20$core..fmt..Debug$GT$3fmt17ha3c59081a87c835dE
libstd-4e66027e5c9dd3e7.so:_ZN69_$LT$gimli..constants..DwVirtuality$u20$as$u20$core..fmt..Display$GT$3fmt17h485ab189603b053bE
libstd-4e66027e5c9dd3e7.so:_ZN69_$LT$libc..unix..linux_like..arphdr$u20$as$u20$core..clone..Clone$GT$5clone17h9e2030c5b7fadbe3E
libstd-4e66027e5c9dd3e7.so:_ZN69_$LT$libc..unix..linux_like..arpreq$u20$as$u20$core..clone..Clone$GT$5clone17h3bbaa65809ff9865E
libstd-4e66027e5c9dd3e7.so:_ZN69_$LT$libc..unix..linux_like..fd_set$u20$as$u20$core..clone..Clone$GT$5clone17haf53578cac3cbeabE
libstd-4e66027e5c9dd3e7.so:_ZN69_$LT$object..pe..ImageEnclaveConfig32$u20$as$u20$core..fmt..Debug$GT$3fmt17hb324be1986c78de8E
libstd-4e66027e5c9dd3e7.so:_ZN69_$LT$object..pe..ImageEnclaveConfig64$u20$as$u20$core..fmt..Debug$GT$3fmt17h8d8af91c1beb6d6dE
libstd-4e66027e5c9dd3e7.so:_ZN69_$LT$object..pe..ImageExportDirectory$u20$as$u20$core..fmt..Debug$GT$3fmt17hbf17463b838b4b36E
libstd-4e66027e5c9dd3e7.so:_ZN69_$LT$object..pe..ImageFunctionEntry64$u20$as$u20$core..fmt..Debug$GT$3fmt17h02496dd81217206fE
libstd-4e66027e5c9dd3e7.so:_ZN69_$LT$object..read..pe..export..Export$u20$as$u20$core..fmt..Debug$GT$3fmt17h79c2304c5557775eE
libstd-4e66027e5c9dd3e7.so:_ZN69_$LT$object..read..pe..import..Import$u20$as$u20$core..fmt..Debug$GT$3fmt17hdd1a4dd8dc6672deE
libstd-4e66027e5c9dd3e7.so:_ZN69_$LT$rustc_demangle..TryDemangleError$u20$as$u20$core..fmt..Debug$GT$3fmt17h2c78957aa088bf7fE
libstd-4e66027e5c9dd3e7.so:_ZN69_$LT$std..fs..DirEntry$u20$as$u20$std..os..unix..fs..DirEntryExt2$GT$13file_name_ref17hb0d9710f5d0e6944E
libstd-4e66027e5c9dd3e7.so:_ZN69_$LT$std..fs..Metadata$u20$as$u20$std..os..linux..fs..MetadataExt$GT$10st_blksize17h4e94e1532f2a02bcE
libstd-4e66027e5c9dd3e7.so:_ZN69_$LT$std..fs..Metadata$u20$as$u20$std..os..linux..fs..MetadataExt$GT$11as_raw_stat17h8441c31db2e3a1d4E
libstd-4e66027e5c9dd3e7.so:_ZN69_$LT$std..fs..Metadata$u20$as$u20$std..os..linux..fs..MetadataExt$GT$13st_atime_nsec17he6575f790fa369fbE
libstd-4e66027e5c9dd3e7.so:_ZN69_$LT$std..fs..Metadata$u20$as$u20$std..os..linux..fs..MetadataExt$GT$13st_ctime_nsec17h4bbeabb0eea65f89E
libstd-4e66027e5c9dd3e7.so:_ZN69_$LT$std..fs..Metadata$u20$as$u20$std..os..linux..fs..MetadataExt$GT$13st_mtime_nsec17haeb4f362ce22c136E
libstd-4e66027e5c9dd3e7.so:_ZN69_$LT$std..fs..Metadata$u20$as$u20$std..os..linux..fs..MetadataExt$GT$6st_dev17hd61634ec7a815aeeE
libstd-4e66027e5c9dd3e7.so:_ZN69_$LT$std..fs..Metadata$u20$as$u20$std..os..linux..fs..MetadataExt$GT$6st_gid17hd502216698fe071bE
libstd-4e66027e5c9dd3e7.so:_ZN69_$LT$std..fs..Metadata$u20$as$u20$std..os..linux..fs..MetadataExt$GT$6st_ino17h75b0aa13f97a995aE
libstd-4e66027e5c9dd3e7.so:_ZN69_$LT$std..fs..Metadata$u20$as$u20$std..os..linux..fs..MetadataExt$GT$6st_uid17h7f8990a54b8f23c0E
libstd-4e66027e5c9dd3e7.so:_ZN69_$LT$std..fs..Metadata$u20$as$u20$std..os..linux..fs..MetadataExt$GT$7st_mode17haacd95e3f7819a2bE
libstd-4e66027e5c9dd3e7.so:_ZN69_$LT$std..fs..Metadata$u20$as$u20$std..os..linux..fs..MetadataExt$GT$7st_rdev17h88e58e59eacc2509E
libstd-4e66027e5c9dd3e7.so:_ZN69_$LT$std..fs..Metadata$u20$as$u20$std..os..linux..fs..MetadataExt$GT$7st_size17h781c12957ee08ac1E
libstd-4e66027e5c9dd3e7.so:_ZN69_$LT$std..fs..Metadata$u20$as$u20$std..os..linux..fs..MetadataExt$GT$8st_atime17h1a00917364475526E
libstd-4e66027e5c9dd3e7.so:_ZN69_$LT$std..fs..Metadata$u20$as$u20$std..os..linux..fs..MetadataExt$GT$8st_ctime17h1249fceec12bbce8E
libstd-4e66027e5c9dd3e7.so:_ZN69_$LT$std..fs..Metadata$u20$as$u20$std..os..linux..fs..MetadataExt$GT$8st_mtime17h9894d06ab12fb92eE
libstd-4e66027e5c9dd3e7.so:_ZN69_$LT$std..fs..Metadata$u20$as$u20$std..os..linux..fs..MetadataExt$GT$8st_nlink17hc657c6c50bfd99a1E
libstd-4e66027e5c9dd3e7.so:_ZN69_$LT$std..fs..Metadata$u20$as$u20$std..os..linux..fs..MetadataExt$GT$9st_blocks17h83f929dd115b7ca7E
libstd-4e66027e5c9dd3e7.so:_ZN69_$LT$std..io..readbuf..BorrowedCursor$u20$as$u20$core..fmt..Debug$GT$3fmt17hd8813e2b6517c392E
libstd-4e66027e5c9dd3e7.so:_ZN69_$LT$std..net..parser..AddrParseError$u20$as$u20$core..fmt..Debug$GT$3fmt17h6662d0660f9d4884E
libstd-4e66027e5c9dd3e7.so:_ZN69_$LT$std..sync..mpmc..list..ListToken$u20$as$u20$core..fmt..Debug$GT$3fmt17hcd088c1002310645E
libstd-4e66027e5c9dd3e7.so:_ZN69_$LT$std..sync..mpmc..zero..ZeroToken$u20$as$u20$core..fmt..Debug$GT$3fmt17h269ecbd2bd966014E
libstd-4e66027e5c9dd3e7.so:_ZN69_$LT$std..sys..unix..fs..File$u20$as$u20$std..os..fd..owned..AsFd$GT$5as_fd17h12424ba5b436f8faE
libstd-4e66027e5c9dd3e7.so:_ZN69_$LT$std..sys..unix..fs..FileType$u20$as$u20$core..cmp..PartialEq$GT$2eq17h0350225458e79a3aE
libstd-4e66027e5c9dd3e7.so:_ZN69_$LT$std..sys..unix..time..SystemTime$u20$as$u20$core..fmt..Debug$GT$3fmt17hae4f301a05be33e6E
libstd-4e66027e5c9dd3e7.so:_ZN6memchr6memchr8fallback6memchr17h7720014deb500b22E
libstd-4e66027e5c9dd3e7.so:_ZN6memchr6memchr8fallback7memchr217h5cdeb53e5ef7a621E
libstd-4e66027e5c9dd3e7.so:_ZN6memchr6memchr8fallback7memchr317he0826d978a2a91ffE
libstd-4e66027e5c9dd3e7.so:_ZN6memchr6memchr8fallback7memrchr17hfd237ef1ed564fd8E
libstd-4e66027e5c9dd3e7.so:_ZN6memchr6memchr8fallback8memrchr217h930ecc338e875fecE
libstd-4e66027e5c9dd3e7.so:_ZN6memchr6memchr8fallback8memrchr317h8d50bc3ba295deabE
libstd-4e66027e5c9dd3e7.so:_ZN6memchr6memmem11SearcherRev3new17h06b6b5227189e8bdE
libstd-4e66027e5c9dd3e7.so:_ZN6memchr6memmem11SearcherRev6as_ref17h4c0b1a110590de7eE
libstd-4e66027e5c9dd3e7.so:_ZN6memchr6memmem11SearcherRev6needle17hbcc21178346fe246E
libstd-4e66027e5c9dd3e7.so:_ZN6memchr6memmem13FinderBuilder3new17h5a609770d233b5baE
libstd-4e66027e5c9dd3e7.so:_ZN6memchr6memmem13FinderBuilder9prefilter17hde19869385910eb7E
libstd-4e66027e5c9dd3e7.so:_ZN6memchr6memmem6Finder4find17h6e8c73903b0fbe26E
libstd-4e66027e5c9dd3e7.so:_ZN6memchr6memmem8Searcher15prefilter_state17h25561af447959352E
libstd-4e66027e5c9dd3e7.so:_ZN6memchr6memmem8Searcher3new17he26b51b78ea40667E
libstd-4e66027e5c9dd3e7.so:_ZN6memchr6memmem8Searcher6as_ref17h9cdb247bb94294dbE
libstd-4e66027e5c9dd3e7.so:_ZN6memchr6memmem8Searcher6needle17hb161395cbfcaaf0bE
libstd-4e66027e5c9dd3e7.so:_ZN6memchr6memmem9rabinkarp10rfind_with17h701dedde0d3484d3E
libstd-4e66027e5c9dd3e7.so:_ZN6memchr6memmem9rabinkarp4find17ha410fd1d59f70cf3E
libstd-4e66027e5c9dd3e7.so:_ZN6memchr6memmem9rabinkarp5rfind17h944fe13ecafa8cceE
libstd-4e66027e5c9dd3e7.so:_ZN6memchr6memmem9rabinkarp7is_fast17h2cea46e02acdb07dE
libstd-4e66027e5c9dd3e7.so:_ZN6object2pe21ImageImportDescriptor7is_null17h54f435891a9a9ab0E
libstd-4e66027e5c9dd3e7.so:_ZN6object3elf12ELF_NOTE_GNU17he897d8500722d9a3E
libstd-4e66027e5c9dd3e7.so:_ZN6object3elf13ELF_NOTE_CORE17h9c18647d48c1a148E
libstd-4e66027e5c9dd3e7.so:_ZN6object3elf14ELF_NOTE_LINUX17h4bcb93f4180ca5eeE
libstd-4e66027e5c9dd3e7.so:_ZN6object3elf16ELF_NOTE_SOLARIS17h41a41520e7ccd5dfE
libstd-4e66027e5c9dd3e7.so:_ZN6object3elf4hash17h418d5f434817381fE
libstd-4e66027e5c9dd3e7.so:_ZN6object3elf8gnu_hash17h8578f360bb0da834E
libstd-4e66027e5c9dd3e7.so:_ZN6object4read13SymbolMapName3new17h898a9a895163d77aE
libstd-4e66027e5c9dd3e7.so:_ZN6object4read14CompressedData10decompress17h6298cefcaa1bcc70E
libstd-4e66027e5c9dd3e7.so:_ZN6object4read2pe10relocation18RelocationIterator15virtual_address17h75ef5179ddcdff15E
libstd-4e66027e5c9dd3e7.so:_ZN6object4read2pe10relocation18RelocationIterator4size17h879906313d819568E
libstd-4e66027e5c9dd3e7.so:_ZN6object4read2pe10relocation23RelocationBlockIterator3new17he44d1a2aa778a4b8E
libstd-4e66027e5c9dd3e7.so:_ZN6object4read2pe10relocation23RelocationBlockIterator4next17h0de28058487995fdE
libstd-4e66027e5c9dd3e7.so:_ZN6object4read2pe14data_directory15DataDirectories3get17hfe0b28c3c68e76e7E
libstd-4e66027e5c9dd3e7.so:_ZN6object4read2pe14data_directory15DataDirectories3len17ha219a86cfdae5853E
libstd-4e66027e5c9dd3e7.so:_ZN6object4read2pe14data_directory15DataDirectories4iter17hf26b10d24db93c19E
libstd-4e66027e5c9dd3e7.so:_ZN6object4read2pe14data_directory15DataDirectories5parse17ha3d2df0bc07ed1f2E
libstd-4e66027e5c9dd3e7.so:_ZN6object4read2pe14data_directory15DataDirectories9enumerate17h62e9ea5413bd9a70E
libstd-4e66027e5c9dd3e7.so:_ZN6object4read2pe14data_directory48_$LT$impl$u20$object..pe..ImageDataDirectory$GT$10file_range17heeb5c63c6d182fbaE
libstd-4e66027e5c9dd3e7.so:_ZN6object4read2pe14data_directory48_$LT$impl$u20$object..pe..ImageDataDirectory$GT$13address_range17hc8b856879cfae910E
libstd-4e66027e5c9dd3e7.so:_ZN6object4read2pe4rich14RichHeaderInfo16unmasked_entries17ha03b73b55c9e376eE
libstd-4e66027e5c9dd3e7.so:_ZN6object4read2pe4rich6memmem17hbc548dfc87af0b39E
libstd-4e66027e5c9dd3e7.so:_ZN6object4read2pe6export11ExportTable10is_forward17h6f6a559c866e387fE
libstd-4e66027e5c9dd3e7.so:_ZN6object4read2pe6export11ExportTable12ordinal_base17h8ebc0bc62f5fd906E
libstd-4e66027e5c9dd3e7.so:_ZN6object4read2pe6export11ExportTable13name_ordinals17hc09324031dbf77d2E
libstd-4e66027e5c9dd3e7.so:_ZN6object4read2pe6export11ExportTable13name_pointers17h92e662a3a2d982c3E
libstd-4e66027e5c9dd3e7.so:_ZN6object4read2pe6export11ExportTable14forward_string17hdd7ba46de1157b01E
libstd-4e66027e5c9dd3e7.so:_ZN6object4read2pe6export11ExportTable15parse_directory17h262699d7c8ca2e08E
libstd-4e66027e5c9dd3e7.so:_ZN6object4read2pe6export11ExportTable15target_by_index17h17fa898ea2383cb0E
libstd-4e66027e5c9dd3e7.so:_ZN6object4read2pe6export11ExportTable16address_by_index17hd82f72928b0219d4E
libstd-4e66027e5c9dd3e7.so:_ZN6object4read2pe6export11ExportTable17name_from_pointer17h9302fe6758ddb3c7E
libstd-4e66027e5c9dd3e7.so:_ZN6object4read2pe6export11ExportTable17target_by_ordinal17h5ed16b6377a47cf2E
libstd-4e66027e5c9dd3e7.so:_ZN6object4read2pe6export11ExportTable18address_by_ordinal17he129aa4a8f786b31E
libstd-4e66027e5c9dd3e7.so:_ZN6object4read2pe6export11ExportTable19target_from_address17h084574735f37aecfE
libstd-4e66027e5c9dd3e7.so:_ZN6object4read2pe6export11ExportTable5parse17h575c0b5262f3df19E
libstd-4e66027e5c9dd3e7.so:_ZN6object4read2pe6export11ExportTable7exports17h9a2aed97c4a279e9E
libstd-4e66027e5c9dd3e7.so:_ZN6object4read2pe6export11ExportTable9addresses17h3ec4fdc307b6a79cE
libstd-4e66027e5c9dd3e7.so:_ZN6object4read2pe6export11ExportTable9directory17hf37cad6e097c4062E
libstd-4e66027e5c9dd3e7.so:_ZN6object4read2pe6export11ExportTable9name_iter17ha0cb439589fa269fE
libstd-4e66027e5c9dd3e7.so:_ZN6object4read2pe6export12ExportTarget10is_address17h844597b708c39e44E
libstd-4e66027e5c9dd3e7.so:_ZN6object4read2pe6export12ExportTarget10is_forward17hb0a339748f1b39d6E
libstd-4e66027e5c9dd3e7.so:_ZN6object4read2pe6import11ImportTable11descriptors17he802cf76f810d8b7E
libstd-4e66027e5c9dd3e7.so:_ZN6object4read2pe6import11ImportTable3new17hf23cc8b8b0f63646E
libstd-4e66027e5c9dd3e7.so:_ZN6object4read2pe6import11ImportTable4name17h5b39cd4b65d29578E
libstd-4e66027e5c9dd3e7.so:_ZN6object4read2pe6import11ImportTable6thunks17h419d7f3c446293ceE
libstd-4e66027e5c9dd3e7.so:_ZN6object4read2pe6import11ImportTable9hint_name17h4d7dd230a6dc2fe0E
libstd-4e66027e5c9dd3e7.so:_ZN6object4read2pe6import24ImportDescriptorIterator4next17hf4a592f3312d3d7fE
libstd-4e66027e5c9dd3e7.so:_ZN6object4read2pe7section48_$LT$impl$u20$object..pe..ImageSectionHeader$GT$12contains_rva17hfc3db897c97044f4E
libstd-4e66027e5c9dd3e7.so:_ZN6object4read2pe7section48_$LT$impl$u20$object..pe..ImageSectionHeader$GT$13pe_file_range17hd6b86c8865955256E
libstd-4e66027e5c9dd3e7.so:_ZN6object4read2pe7section48_$LT$impl$u20$object..pe..ImageSectionHeader$GT$16pe_address_range17h21552eb13cbe9278E
libstd-4e66027e5c9dd3e7.so:_ZN6object4read2pe7section48_$LT$impl$u20$object..pe..ImageSectionHeader$GT$16pe_file_range_at17h7fca8f5b156dea5eE
libstd-4e66027e5c9dd3e7.so:_ZN6object4read2pe7section59_$LT$impl$u20$object..read..coff..section..SectionTable$GT$16pe_file_range_at17h81fbd0e322571236E
libstd-4e66027e5c9dd3e7.so:_ZN6object4read2pe7section59_$LT$impl$u20$object..read..coff..section..SectionTable$GT$18section_containing17h7f5140f9d6c3b247E
libstd-4e66027e5c9dd3e7.so:_ZN6object4read2pe8resource12ResourceName15to_string_lossy17hb0714bf716e7a5e5E
libstd-4e66027e5c9dd3e7.so:_ZN6object4read2pe8resource12ResourceName4data17h9b30876b44821d58E
libstd-4e66027e5c9dd3e7.so:_ZN6object4read2pe8resource16ResourceNameOrId2id17h33779b0bfa9a7a45E
libstd-4e66027e5c9dd3e7.so:_ZN6object4read2pe8resource16ResourceNameOrId4name17hbbd3b22309e39ca0E
libstd-4e66027e5c9dd3e7.so:_ZN6object4read2pe8resource17ResourceDirectory3new17h0a1ec83bbe41a95fE
libstd-4e66027e5c9dd3e7.so:_ZN6object4read2pe8resource17ResourceDirectory4root17h7247f6d1d0e6ade6E
libstd-4e66027e5c9dd3e7.so:_ZN6object4read2pe8resource26ResourceDirectoryEntryData4data17h52e66e79fafc2e7aE
libstd-4e66027e5c9dd3e7.so:_ZN6object4read2pe8resource26ResourceDirectoryEntryData5table17h69da86621c8cc4aaE
libstd-4e66027e5c9dd3e7.so:_ZN6object4read2pe8resource57_$LT$impl$u20$object..pe..ImageResourceDirectoryEntry$GT$10name_or_id17h288f9c30c1982759E
libstd-4e66027e5c9dd3e7.so:_ZN6object4read2pe8resource57_$LT$impl$u20$object..pe..ImageResourceDirectoryEntry$GT$11data_offset17h8b7424f13f2507aaE
libstd-4e66027e5c9dd3e7.so:_ZN6object4read2pe8resource57_$LT$impl$u20$object..pe..ImageResourceDirectoryEntry$GT$4data17h6cda2db29889f6c5E
libstd-4e66027e5c9dd3e7.so:_ZN6object4read2pe8resource57_$LT$impl$u20$object..pe..ImageResourceDirectoryEntry$GT$8has_name17he72eb0d3e450e9baE
libstd-4e66027e5c9dd3e7.so:_ZN6object4read2pe8resource57_$LT$impl$u20$object..pe..ImageResourceDirectoryEntry$GT$8is_table17h072fc73c05504247E
libstd-4e66027e5c9dd3e7.so:_ZN6object4read3elf10relocation18RelocationSections3get17h223e24af9df2e70cE
libstd-4e66027e5c9dd3e7.so:_ZN6object4read3elf7version12VersionIndex5index17hcd16c74bac4f0f2dE
libstd-4e66027e5c9dd3e7.so:_ZN6object4read3elf7version12VersionIndex8is_local17hb0fed91f9bd5c6bbE
libstd-4e66027e5c9dd3e7.so:_ZN6object4read3elf7version12VersionIndex9is_global17h35d11a55be8b04e3E
libstd-4e66027e5c9dd3e7.so:_ZN6object4read3elf7version12VersionIndex9is_hidden17h3c41a9fba9ef5e36E
libstd-4e66027e5c9dd3e7.so:_ZN6object4read3elf7version7Version4hash17h21f110940cd43be3E
libstd-4e66027e5c9dd3e7.so:_ZN6object4read3elf7version7Version4name17h091d983eae6603abE
libstd-4e66027e5c9dd3e7.so:_ZN6object4read4coff6symbol41_$LT$impl$u20$object..pe..ImageSymbol$GT$13is_definition17hb5846ba8ebf648d7E
libstd-4e66027e5c9dd3e7.so:_ZN6object4read4coff6symbol41_$LT$impl$u20$object..pe..ImageSymbol$GT$15has_aux_section17hfa2ad7baadf8394cE
libstd-4e66027e5c9dd3e7.so:_ZN6object4read4coff6symbol41_$LT$impl$u20$object..pe..ImageSymbol$GT$16has_aux_function17h30c257a5b300d3d0E
libstd-4e66027e5c9dd3e7.so:_ZN6object4read4coff6symbol41_$LT$impl$u20$object..pe..ImageSymbol$GT$17has_aux_file_name17h9a468ccea892e0b3E
libstd-4e66027e5c9dd3e7.so:_ZN6object4read4coff6symbol41_$LT$impl$u20$object..pe..ImageSymbol$GT$7address17h34335bbef8e0e300E
libstd-4e66027e5c9dd3e7.so:_ZN6object4read4coff7section12SectionTable23max_section_file_offset17hfd2629ba39d39873E
libstd-4e66027e5c9dd3e7.so:_ZN6object4read4coff7section12SectionTable7section17h834a3a1dfaea99beE
libstd-4e66027e5c9dd3e7.so:_ZN6object4read4coff7section48_$LT$impl$u20$object..pe..ImageSectionHeader$GT$11name_offset17h483fb58ae386f4ebE
libstd-4e66027e5c9dd3e7.so:_ZN6object4read4coff7section48_$LT$impl$u20$object..pe..ImageSectionHeader$GT$14coff_alignment17h7a4348c6f3852c1cE
libstd-4e66027e5c9dd3e7.so:_ZN6object4read4coff7section48_$LT$impl$u20$object..pe..ImageSectionHeader$GT$15coff_file_range17h300f37bfe978a2ffE
libstd-4e66027e5c9dd3e7.so:_ZN6object4read4coff7section48_$LT$impl$u20$object..pe..ImageSectionHeader$GT$4kind17h19e5946d6d6588f1E
libstd-4e66027e5c9dd3e7.so:_ZN6object4read4coff7section48_$LT$impl$u20$object..pe..ImageSectionHeader$GT$8raw_name17h53d4a6885fee5202E
libstd-4e66027e5c9dd3e7.so:_ZN6object4read4util10data_range17h46a55ee5ccf54d43E
libstd-4e66027e5c9dd3e7.so:_ZN6object4read7archive13ArchiveMember10file_range17ha9d485a9e4d884d0E
libstd-4e66027e5c9dd3e7.so:_ZN6object4read7archive16parse_u64_digits17ha31756d9c51d3068E
libstd-4e66027e5c9dd3e7.so:_ZN6object4read7archive24parse_sysv_extended_name17h86c447c5e5126a39E
libstd-4e66027e5c9dd3e7.so:_ZN6object4read9ObjectMap3get17h81db401dd44ec0f4E
libstd-4e66027e5c9dd3e7.so:_ZN6object6common11SectionKind6is_bss17h045dc326410813c1E
libstd-4e66027e5c9dd3e7.so:_ZN6object6common12Architecture12address_size17hde57736533ad4687E
libstd-4e66027e5c9dd3e7.so:_ZN70_$LT$core..fmt..num..Octal$u20$as$u20$core..fmt..num..GenericRadix$GT$5digit17hf8783123317bf6f7E
libstd-4e66027e5c9dd3e7.so:_ZN70_$LT$core..num..error..ParseIntError$u20$as$u20$core..error..Error$GT$11description17h2f4831c63728c2e5E
libstd-4e66027e5c9dd3e7.so:_ZN70_$LT$core..num..error..ParseIntError$u20$as$u20$core..fmt..Display$GT$3fmt17hdff7933e975d8337E
libstd-4e66027e5c9dd3e7.so:_ZN70_$LT$core..num..error..TryFromIntError$u20$as$u20$core..fmt..Debug$GT$3fmt17h069d48c8d7d86d7dE
libstd-4e66027e5c9dd3e7.so:_ZN70_$LT$core..panic..location..Location$u20$as$u20$core..fmt..Display$GT$3fmt17h74940edd06e03d0aE
libstd-4e66027e5c9dd3e7.so:_ZN70_$LT$core..slice..ascii..EscapeAscii$u20$as$u20$core..fmt..Display$GT$3fmt17he8710b5031002fc8E
libstd-4e66027e5c9dd3e7.so:_ZN70_$LT$core..time..TryFromFloatSecsError$u20$as$u20$core..fmt..Debug$GT$3fmt17h5093b0d619641dceE
libstd-4e66027e5c9dd3e7.so:_ZN70_$LT$gimli..common..DebugTypeSignature$u20$as$u20$core..fmt..Debug$GT$3fmt17h8bd26fcd7d38bfaeE
libstd-4e66027e5c9dd3e7.so:_ZN70_$LT$gimli..common..LineEncoding$u20$as$u20$core..default..Default$GT$7default17hcea538096092b71aE
libstd-4e66027e5c9dd3e7.so:_ZN70_$LT$gimli..read..abbrev..Abbreviation$u20$as$u20$core..fmt..Debug$GT$3fmt17h440264ba5d8cf59aE
libstd-4e66027e5c9dd3e7.so:_ZN70_$LT$gimli..read..aranges..ArangeEntry$u20$as$u20$core..fmt..Debug$GT$3fmt17h307fc175c6199430E
libstd-4e66027e5c9dd3e7.so:_ZN70_$LT$libc..unix..linux_like..Dl_info$u20$as$u20$core..clone..Clone$GT$5clone17h1a3d69402f906eddE
libstd-4e66027e5c9dd3e7.so:_ZN70_$LT$libc..unix..linux_like..ifaddrs$u20$as$u20$core..clone..Clone$GT$5clone17h83001f387d14f46aE
libstd-4e66027e5c9dd3e7.so:_ZN70_$LT$libc..unix..linux_like..in_addr$u20$as$u20$core..clone..Clone$GT$5clone17h0faace96e27768ccE
libstd-4e66027e5c9dd3e7.so:_ZN70_$LT$libc..unix..linux_like..ip_mreq$u20$as$u20$core..clone..Clone$GT$5clone17hf93af1f94a322148E
libstd-4e66027e5c9dd3e7.so:_ZN70_$LT$libc..unix..linux_like..mmsghdr$u20$as$u20$core..clone..Clone$GT$5clone17h45975d586e021c50E
libstd-4e66027e5c9dd3e7.so:_ZN70_$LT$libc..unix..linux_like..utsname$u20$as$u20$core..clone..Clone$GT$5clone17h71e8d36bbe2a684fE
libstd-4e66027e5c9dd3e7.so:_ZN70_$LT$miniz_oxide..inflate..TINFLStatus$u20$as$u20$core..fmt..Debug$GT$3fmt17h788b9ff567617b67E
libstd-4e66027e5c9dd3e7.so:_ZN70_$LT$miniz_oxide..inflate..core..State$u20$as$u20$core..fmt..Debug$GT$3fmt17h920273fde59637b4E
libstd-4e66027e5c9dd3e7.so:_ZN70_$LT$object..pe..ImageAuxSymbolSection$u20$as$u20$core..fmt..Debug$GT$3fmt17h4af94e84b56e54c1E
libstd-4e66027e5c9dd3e7.so:_ZN70_$LT$object..pe..ImageImportDescriptor$u20$as$u20$core..fmt..Debug$GT$3fmt17hc9cc5cf3bee89ce9E
libstd-4e66027e5c9dd3e7.so:_ZN70_$LT$object..pe..ImageOptionalHeader32$u20$as$u20$core..fmt..Debug$GT$3fmt17h4211fba331f5cfe2E
libstd-4e66027e5c9dd3e7.so:_ZN70_$LT$object..pe..ImageOptionalHeader64$u20$as$u20$core..fmt..Debug$GT$3fmt17h2a1a8f26d4242a17E
libstd-4e66027e5c9dd3e7.so:_ZN70_$LT$object..pe..MaskedRichHeaderEntry$u20$as$u20$core..fmt..Debug$GT$3fmt17h2b1f57a0d27d3f14E
libstd-4e66027e5c9dd3e7.so:_ZN70_$LT$object..read..CompressedFileRange$u20$as$u20$core..fmt..Debug$GT$3fmt17h8a26d2a567cd6c45E
libstd-4e66027e5c9dd3e7.so:_ZN70_$LT$std..net..socket_addr..SocketAddr$u20$as$u20$core..fmt..Debug$GT$3fmt17h74711e33044ea88dE
libstd-4e66027e5c9dd3e7.so:_ZN70_$LT$std..net..socket_addr..SocketAddrV4$u20$as$u20$core..cmp..Ord$GT$3cmp17h55bf0ffa415143fbE
libstd-4e66027e5c9dd3e7.so:_ZN70_$LT$std..net..socket_addr..SocketAddrV6$u20$as$u20$core..cmp..Ord$GT$3cmp17hfea526a3e5da6226E
libstd-4e66027e5c9dd3e7.so:_ZN70_$LT$std..sync..condvar..Condvar$u20$as$u20$core..default..Default$GT$7default17h6ff72df08710d487E
libstd-4e66027e5c9dd3e7.so:_ZN70_$LT$std..sync..mpmc..context..Context$u20$as$u20$core..fmt..Debug$GT$3fmt17he754b40c9726b538E
libstd-4e66027e5c9dd3e7.so:_ZN70_$LT$std..sync..mpmc..select..Selected$u20$as$u20$core..fmt..Debug$GT$3fmt17h7a35c0e9af338231E
libstd-4e66027e5c9dd3e7.so:_ZN70_$LT$std..sync..mpsc..RecvTimeoutError$u20$as$u20$core..fmt..Debug$GT$3fmt17h8d454f8042e65180E
libstd-4e66027e5c9dd3e7.so:_ZN70_$LT$std..sys..unix..fs..File$u20$as$u20$std..os..fd..raw..AsRawFd$GT$9as_raw_fd17hfcd6d6b018caf232E
libstd-4e66027e5c9dd3e7.so:_ZN70_$LT$std..sys_common..net..TcpListener$u20$as$u20$core..fmt..Debug$GT$3fmt17hd3e871595cf7b1a9E
libstd-4e66027e5c9dd3e7.so:_ZN70_$LT$std..thread..local..AccessError$u20$as$u20$core..fmt..Display$GT$3fmt17h9cac1ab59ac827f4E
libstd-4e66027e5c9dd3e7.so:_ZN71_$LT$alloc..boxed..Box$LT$str$GT$$u20$as$u20$core..default..Default$GT$7default17haf6dda3e6026ac7eE
libstd-4e66027e5c9dd3e7.so:_ZN71_$LT$alloc..ffi..c_str..IntoStringError$u20$as$u20$core..fmt..Debug$GT$3fmt17h3f9533ee5f5d5d39E
libstd-4e66027e5c9dd3e7.so:_ZN71_$LT$core..alloc..layout..LayoutError$u20$as$u20$core..fmt..Display$GT$3fmt17h3936313fac6819afE
libstd-4e66027e5c9dd3e7.so:_ZN71_$LT$core..char..convert..CharErrorKind$u20$as$u20$core..fmt..Debug$GT$3fmt17h6b94ebb32d48594fE
libstd-4e66027e5c9dd3e7.so:_ZN71_$LT$core..convert..Infallible$u20$as$u20$std..process..Termination$GT$6report17h90c5ec23d1010a4bE
libstd-4e66027e5c9dd3e7.so:_ZN71_$LT$core..fmt..num..Binary$u20$as$u20$core..fmt..num..GenericRadix$GT$5digit17h147b30fdd6fc1991E
libstd-4e66027e5c9dd3e7.so:_ZN71_$LT$core..mem..transmutability..Assume$u20$as$u20$core..fmt..Debug$GT$3fmt17ha46fad5c287342c1E
libstd-4e66027e5c9dd3e7.so:_ZN71_$LT$core..num..bignum..tests..Big8x3$u20$as$u20$core..clone..Clone$GT$5clone17hf2627548efdc973cE
libstd-4e66027e5c9dd3e7.so:_ZN71_$LT$core..num..dec2flt..FloatErrorKind$u20$as$u20$core..fmt..Debug$GT$3fmt17h2d940724b35829d9E
libstd-4e66027e5c9dd3e7.so:_ZN71_$LT$core..num..dec2flt..number..Number$u20$as$u20$core..fmt..Debug$GT$3fmt17hb735996685fc8ac8E
libstd-4e66027e5c9dd3e7.so:_ZN71_$LT$core..ops..index_range..IndexRange$u20$as$u20$core..fmt..Debug$GT$3fmt17hc1760bb575e7f445E
libstd-4e66027e5c9dd3e7.so:_ZN71_$LT$core..panic..panic_info..PanicInfo$u20$as$u20$core..fmt..Debug$GT$3fmt17ha71b8ec858e0bd00E
libstd-4e66027e5c9dd3e7.so:_ZN71_$LT$core..str..error..ParseBoolError$u20$as$u20$core..error..Error$GT$11description17h124f48ae1619bd1aE
libstd-4e66027e5c9dd3e7.so:_ZN71_$LT$core..str..error..ParseBoolError$u20$as$u20$core..fmt..Display$GT$3fmt17he5da41fb3ad07076E
libstd-4e66027e5c9dd3e7.so:_ZN71_$LT$core..str..pattern..TwoWaySearcher$u20$as$u20$core..fmt..Debug$GT$3fmt17h20a5c381ada28a36E
libstd-4e66027e5c9dd3e7.so:_ZN71_$LT$gimli..common..DwarfFileType$u20$as$u20$core..default..Default$GT$7default17hbf158974841973d7E
libstd-4e66027e5c9dd3e7.so:_ZN71_$LT$gimli..read..abbrev..Abbreviations$u20$as$u20$core..fmt..Debug$GT$3fmt17h28c3333621912c73E
libstd-4e66027e5c9dd3e7.so:_ZN71_$LT$gimli..read..cfi..AugmentationData$u20$as$u20$core..fmt..Debug$GT$3fmt17h3c07a2a90d99a254E
libstd-4e66027e5c9dd3e7.so:_ZN71_$LT$gimli..read..line..FileEntryFormat$u20$as$u20$core..fmt..Debug$GT$3fmt17h62c9232cadfbec64E
libstd-4e66027e5c9dd3e7.so:_ZN71_$LT$libc..unix..linux_like..addrinfo$u20$as$u20$core..clone..Clone$GT$5clone17he1d0f706cdf541d4E
libstd-4e66027e5c9dd3e7.so:_ZN71_$LT$libc..unix..linux_like..ip_mreqn$u20$as$u20$core..clone..Clone$GT$5clone17h7dbffd60db9b578bE
libstd-4e66027e5c9dd3e7.so:_ZN71_$LT$libc..unix..linux_like..sigevent$u20$as$u20$core..clone..Clone$GT$5clone17h43a7a2e6472d849fE
libstd-4e66027e5c9dd3e7.so:_ZN71_$LT$libc..unix..linux_like..sockaddr$u20$as$u20$core..clone..Clone$GT$5clone17hc7ee29425cc391b9E
libstd-4e66027e5c9dd3e7.so:_ZN71_$LT$libc..unix..linux_like..timezone$u20$as$u20$core..clone..Clone$GT$5clone17h59aa2f8595963290E
libstd-4e66027e5c9dd3e7.so:_ZN71_$LT$memchr..memmem..twoway..SuffixKind$u20$as$u20$core..fmt..Debug$GT$3fmt17hb8bb7cdf6524b805E
libstd-4e66027e5c9dd3e7.so:_ZN71_$LT$object..common..RelocationEncoding$u20$as$u20$core..fmt..Debug$GT$3fmt17h4f800c73ea946798E
libstd-4e66027e5c9dd3e7.so:_ZN71_$LT$object..pe..AnonObjectHeaderBigobj$u20$as$u20$core..fmt..Debug$GT$3fmt17h13fa954ced3cd113E
libstd-4e66027e5c9dd3e7.so:_ZN71_$LT$object..pe..ImageArchitectureEntry$u20$as$u20$core..fmt..Debug$GT$3fmt17h68a15bad3d7d7026E
libstd-4e66027e5c9dd3e7.so:_ZN71_$LT$object..pe..ImageAuxSymbolFunction$u20$as$u20$core..fmt..Debug$GT$3fmt17h1631712191b6f642E
libstd-4e66027e5c9dd3e7.so:_ZN71_$LT$object..pe..ImageAuxSymbolTokenDef$u20$as$u20$core..fmt..Debug$GT$3fmt17h1a5d74c4e9742da2E
libstd-4e66027e5c9dd3e7.so:_ZN71_$LT$object..pe..ImageBoundForwarderRef$u20$as$u20$core..fmt..Debug$GT$3fmt17hab2c727b3cea0909E
libstd-4e66027e5c9dd3e7.so:_ZN71_$LT$object..pe..ImageCoffSymbolsHeader$u20$as$u20$core..fmt..Debug$GT$3fmt17h8d6a920531ac0f6cE
libstd-4e66027e5c9dd3e7.so:_ZN71_$LT$object..pe..ImageResourceDataEntry$u20$as$u20$core..fmt..Debug$GT$3fmt17hf4b5210a142c3e31E
libstd-4e66027e5c9dd3e7.so:_ZN71_$LT$object..pe..ImageResourceDirectory$u20$as$u20$core..fmt..Debug$GT$3fmt17h3491c19b481baf43E
libstd-4e66027e5c9dd3e7.so:_ZN71_$LT$object..pe..ImageRomOptionalHeader$u20$as$u20$core..fmt..Debug$GT$3fmt17h4a1a052f4da38c4aE
libstd-4e66027e5c9dd3e7.so:_ZN71_$LT$object..read..archive..ArchiveKind$u20$as$u20$core..fmt..Debug$GT$3fmt17h90c646b39c7be242E
libstd-4e66027e5c9dd3e7.so:_ZN71_$LT$rustc_demangle..SizeLimitExhausted$u20$as$u20$core..fmt..Debug$GT$3fmt17h1e7341719cc904edE
libstd-4e66027e5c9dd3e7.so:_ZN71_$LT$rustc_demangle..legacy..Demangle$u20$as$u20$core..fmt..Display$GT$3fmt17h6be253136ffc7ec3E
libstd-4e66027e5c9dd3e7.so:_ZN71_$LT$std..fs..File$u20$as$u20$std..sys..unix..kernel_copy..CopyRead$GT$10properties17h616f8f94c00e359eE
libstd-4e66027e5c9dd3e7.so:_ZN71_$LT$std..net..parser..AddrParseError$u20$as$u20$core..error..Error$GT$11description17h1bbd1aed93913ddfE
libstd-4e66027e5c9dd3e7.so:_ZN71_$LT$std..net..parser..AddrParseError$u20$as$u20$core..fmt..Display$GT$3fmt17h2fb091d2d5a9fa95E
libstd-4e66027e5c9dd3e7.so:_ZN71_$LT$std..sync..mpmc..array..ArrayToken$u20$as$u20$core..fmt..Debug$GT$3fmt17hef42a0f9550560a8E
libstd-4e66027e5c9dd3e7.so:_ZN71_$LT$std..sync..mpmc..select..Operation$u20$as$u20$core..fmt..Debug$GT$3fmt17he6fdf318c10ce682E
libstd-4e66027e5c9dd3e7.so:_ZN71_$LT$std..sys..unix..os..JoinPathsError$u20$as$u20$core..fmt..Debug$GT$3fmt17had229816f1b546d2E
libstd-4e66027e5c9dd3e7.so:_ZN72_$LT$$RF$str$u20$as$u20$alloc..ffi..c_str..CString..new..SpecNewImpl$GT$13spec_new_impl17h39a60795d4a22149E
libstd-4e66027e5c9dd3e7.so:_ZN72_$LT$alloc..collections..TryReserveError$u20$as$u20$core..fmt..Debug$GT$3fmt17h8849ea36e4194561E
libstd-4e66027e5c9dd3e7.so:_ZN72_$LT$alloc..string..Drain$u20$as$u20$core..convert..AsRef$LT$str$GT$$GT$6as_ref17h15bd28c2bd276d5cE
libstd-4e66027e5c9dd3e7.so:_ZN72_$LT$core..char..convert..ParseCharError$u20$as$u20$core..fmt..Debug$GT$3fmt17h03aeaf3fb1005f10E
libstd-4e66027e5c9dd3e7.so:_ZN72_$LT$core..num..dec2flt..ParseFloatError$u20$as$u20$core..fmt..Debug$GT$3fmt17hd52d773df91dbaeeE
libstd-4e66027e5c9dd3e7.so:_ZN72_$LT$core..num..error..TryFromIntError$u20$as$u20$core..error..Error$GT$11description17ha4b63a8e3b145b65E
libstd-4e66027e5c9dd3e7.so:_ZN72_$LT$core..num..error..TryFromIntError$u20$as$u20$core..fmt..Display$GT$3fmt17h240e0a3dd4d7a68cE
libstd-4e66027e5c9dd3e7.so:_ZN72_$LT$core..str..pattern..StrSearcherImpl$u20$as$u20$core..fmt..Debug$GT$3fmt17h09f9e6fa7ef83803E
libstd-4e66027e5c9dd3e7.so:_ZN72_$LT$core..time..TryFromFloatSecsError$u20$as$u20$core..fmt..Display$GT$3fmt17hefd5382fa719bc9cE
libstd-4e66027e5c9dd3e7.so:_ZN72_$LT$gimli..read..abbrev..Attributes$u20$as$u20$core..cmp..PartialEq$GT$2eq17h10fcc3a85afacdffE
libstd-4e66027e5c9dd3e7.so:_ZN72_$LT$gimli..read..cfi..CieOffsetEncoding$u20$as$u20$core..fmt..Debug$GT$3fmt17hb6427ea7d0b64351E
libstd-4e66027e5c9dd3e7.so:_ZN72_$LT$gimli..read..reader..ReaderOffsetId$u20$as$u20$core..fmt..Debug$GT$3fmt17h8d042148cebf900aE
libstd-4e66027e5c9dd3e7.so:_ZN72_$LT$libc..unix..linux_like..in6_rtmsg$u20$as$u20$core..clone..Clone$GT$5clone17h91a9fed8432970e3E
libstd-4e66027e5c9dd3e7.so:_ZN72_$LT$object..pe..ImageResourceDirStringU$u20$as$u20$core..fmt..Debug$GT$3fmt17h5544932b1e063ddfE
libstd-4e66027e5c9dd3e7.so:_ZN72_$LT$object..read..elf..version..Version$u20$as$u20$core..fmt..Debug$GT$3fmt17ha0da5d908ecd42b6E
libstd-4e66027e5c9dd3e7.so:_ZN72_$LT$std..backtrace_rs..backtrace..Frame$u20$as$u20$core..fmt..Debug$GT$3fmt17h5fac9111d2fafcb6E
libstd-4e66027e5c9dd3e7.so:_ZN72_$LT$std..fs..DirBuilder$u20$as$u20$std..os..unix..fs..DirBuilderExt$GT$4mode17h85f0f3fc369de286E
libstd-4e66027e5c9dd3e7.so:_ZN72_$LT$std..fs..File$u20$as$u20$std..sys..unix..kernel_copy..CopyWrite$GT$10properties17h994c0fb99951e156E
libstd-4e66027e5c9dd3e7.so:_ZN72_$LT$std..net..socket_addr..SocketAddr$u20$as$u20$core..fmt..Display$GT$3fmt17h732e49b1d35461a9E
libstd-4e66027e5c9dd3e7.so:_ZN72_$LT$std..net..socket_addr..SocketAddrV4$u20$as$u20$core..fmt..Debug$GT$3fmt17h2d6a0fe786478660E
libstd-4e66027e5c9dd3e7.so:_ZN72_$LT$std..net..socket_addr..SocketAddrV6$u20$as$u20$core..fmt..Debug$GT$3fmt17h41717f816fb1379fE
libstd-4e66027e5c9dd3e7.so:_ZN72_$LT$std..os..unix..net..stream..UnixStream$u20$as$u20$std..io..Read$GT$13read_vectored17h6ab29508bccf99aeE
libstd-4e66027e5c9dd3e7.so:_ZN72_$LT$std..os..unix..net..stream..UnixStream$u20$as$u20$std..io..Read$GT$4read17h4854ae124524796eE
libstd-4e66027e5c9dd3e7.so:_ZN72_$LT$std..process..ExitCode$u20$as$u20$core..convert..From$LT$u8$GT$$GT$4from17h1f1efa889eac7fb6E
libstd-4e66027e5c9dd3e7.so:_ZN72_$LT$std..sync..mpsc..RecvTimeoutError$u20$as$u20$core..error..Error$GT$11description17hcfc66397e5cef85fE
libstd-4e66027e5c9dd3e7.so:_ZN72_$LT$std..sync..mpsc..RecvTimeoutError$u20$as$u20$core..fmt..Display$GT$3fmt17h5d82cbe19874e6aaE
libstd-4e66027e5c9dd3e7.so:_ZN72_$LT$std..sys..unix..fs..File$u20$as$u20$std..os..fd..raw..FromRawFd$GT$11from_raw_fd17he1751bef6620be75E
libstd-4e66027e5c9dd3e7.so:_ZN72_$LT$std..sys..unix..fs..File$u20$as$u20$std..os..fd..raw..IntoRawFd$GT$11into_raw_fd17h3d669ff2add3bc66E
libstd-4e66027e5c9dd3e7.so:_ZN72_$LT$std..sys..unix..fs..FilePermissions$u20$as$u20$core..fmt..Debug$GT$3fmt17he3889b7d28bf6748E
libstd-4e66027e5c9dd3e7.so:_ZN72_$LT$std..sys..unix..net..Socket$u20$as$u20$std..os..fd..owned..AsFd$GT$5as_fd17h24ec4c4f1502dc42E
libstd-4e66027e5c9dd3e7.so:_ZN72_$LT$std..sys..unix..thread..Thread$u20$as$u20$core..ops..drop..Drop$GT$4drop17h1f2a20a8c0f00019E
libstd-4e66027e5c9dd3e7.so:_ZN73_$LT$$RF$alloc..string..String$u20$as$u20$core..str..pattern..Pattern$GT$13into_searcher17h03076b62333fad75E
libstd-4e66027e5c9dd3e7.so:_ZN73_$LT$alloc..ffi..c_str..IntoStringError$u20$as$u20$core..error..Error$GT$11description17hfa18a0ca3495c328E
libstd-4e66027e5c9dd3e7.so:_ZN73_$LT$alloc..ffi..c_str..IntoStringError$u20$as$u20$core..error..Error$GT$6source17he92a898da643b60fE
libstd-4e66027e5c9dd3e7.so:_ZN73_$LT$alloc..ffi..c_str..IntoStringError$u20$as$u20$core..fmt..Display$GT$3fmt17h19dbd023bbb3da47E
libstd-4e66027e5c9dd3e7.so:_ZN73_$LT$core..char..decode..DecodeUtf16Error$u20$as$u20$core..fmt..Debug$GT$3fmt17h9a4452e789259feeE
libstd-4e66027e5c9dd3e7.so:_ZN73_$LT$core..fmt..num..LowerHex$u20$as$u20$core..fmt..num..GenericRadix$GT$5digit17h58df1b60174f2fcbE
libstd-4e66027e5c9dd3e7.so:_ZN73_$LT$core..fmt..num..UpperHex$u20$as$u20$core..fmt..num..GenericRadix$GT$5digit17h4d76717588322172E
libstd-4e66027e5c9dd3e7.so:_ZN73_$LT$core..num..bignum..tests..Big8x3$u20$as$u20$core..cmp..PartialEq$GT$2eq17h33df3f3a4d0c0db4E
libstd-4e66027e5c9dd3e7.so:_ZN73_$LT$core..num..dec2flt..common..AsciiStr$u20$as$u20$core..fmt..Debug$GT$3fmt17h40f844ec93d43feeE
libstd-4e66027e5c9dd3e7.so:_ZN73_$LT$core..num..dec2flt..common..BiasedFp$u20$as$u20$core..fmt..Debug$GT$3fmt17hddf5430eff9bc60fE
libstd-4e66027e5c9dd3e7.so:_ZN73_$LT$core..num..flt2dec..decoder..Decoded$u20$as$u20$core..fmt..Debug$GT$3fmt17hcf66174c5b8e0efdE
libstd-4e66027e5c9dd3e7.so:_ZN73_$LT$core..panic..panic_info..PanicInfo$u20$as$u20$core..fmt..Display$GT$3fmt17h29c1dcef78c3d52dE
libstd-4e66027e5c9dd3e7.so:_ZN73_$LT$core..time..Duration$u20$as$u20$core..ops..arith..Div$LT$u32$GT$$GT$3div17h4b3b822a6e7cc76bE
libstd-4e66027e5c9dd3e7.so:_ZN73_$LT$core..time..Duration$u20$as$u20$core..ops..arith..Mul$LT$u32$GT$$GT$3mul17hd292262f3ce7482bE
libstd-4e66027e5c9dd3e7.so:_ZN73_$LT$gimli..read..index..UnitIndexSection$u20$as$u20$core..fmt..Debug$GT$3fmt17h209d09aa16d3f8a2E
libstd-4e66027e5c9dd3e7.so:_ZN73_$LT$libc..unix..linux_like..arpreq_old$u20$as$u20$core..clone..Clone$GT$5clone17hf1ac69628a46c3bfE
libstd-4e66027e5c9dd3e7.so:_ZN73_$LT$libc..unix..linux_like..in_pktinfo$u20$as$u20$core..clone..Clone$GT$5clone17h9281949dc637c1feE
libstd-4e66027e5c9dd3e7.so:_ZN73_$LT$memchr..memmem..prefilter..Prefilter$u20$as$u20$core..fmt..Debug$GT$3fmt17h41e7dab0039ee18bE
libstd-4e66027e5c9dd3e7.so:_ZN73_$LT$object..pe..ImageArchiveMemberHeader$u20$as$u20$core..fmt..Debug$GT$3fmt17ha20da22052af847cE
libstd-4e66027e5c9dd3e7.so:_ZN73_$LT$object..pe..ImageDelayloadDescriptor$u20$as$u20$core..fmt..Debug$GT$3fmt17h748a38c7e641006bE
libstd-4e66027e5c9dd3e7.so:_ZN73_$LT$object..pe..ImageDynamicRelocation32$u20$as$u20$core..fmt..Debug$GT$3fmt17h55c30427cb6ad679E
libstd-4e66027e5c9dd3e7.so:_ZN73_$LT$object..pe..ImageDynamicRelocation64$u20$as$u20$core..fmt..Debug$GT$3fmt17h90f6c5cf9be477ceE
libstd-4e66027e5c9dd3e7.so:_ZN73_$LT$object..pe..ImageSeparateDebugHeader$u20$as$u20$core..fmt..Debug$GT$3fmt17ha8c146cab2b2ecb7E
libstd-4e66027e5c9dd3e7.so:_ZN73_$LT$object..read..archive..ArchiveMember$u20$as$u20$core..fmt..Debug$GT$3fmt17h3715c6c7f8615c82E
libstd-4e66027e5c9dd3e7.so:_ZN73_$LT$std..backtrace_rs..symbolize..Symbol$u20$as$u20$core..fmt..Debug$GT$3fmt17h9ab44166b469eca8E
libstd-4e66027e5c9dd3e7.so:_ZN73_$LT$std..env..Args$u20$as$u20$core..iter..traits..iterator..Iterator$GT$4next17h2020b093e7bd68bcE
libstd-4e66027e5c9dd3e7.so:_ZN73_$LT$std..env..Args$u20$as$u20$core..iter..traits..iterator..Iterator$GT$9size_hint17h4d34f19c4613951eE
libstd-4e66027e5c9dd3e7.so:_ZN73_$LT$std..env..Vars$u20$as$u20$core..iter..traits..iterator..Iterator$GT$4next17h686d7806eb09d857E
libstd-4e66027e5c9dd3e7.so:_ZN73_$LT$std..env..Vars$u20$as$u20$core..iter..traits..iterator..Iterator$GT$9size_hint17h5bcd8cf020000d5aE
libstd-4e66027e5c9dd3e7.so:_ZN73_$LT$std..os..unix..net..addr..SocketAddr$u20$as$u20$core..fmt..Debug$GT$3fmt17h0fa940fa9c8bb84dE
libstd-4e66027e5c9dd3e7.so:_ZN73_$LT$std..os..unix..net..stream..UnixStream$u20$as$u20$std..io..Write$GT$14write_vectored17h1020811147ccbcd4E
libstd-4e66027e5c9dd3e7.so:_ZN73_$LT$std..os..unix..net..stream..UnixStream$u20$as$u20$std..io..Write$GT$5flush17hed9a173cc2b3df5bE
libstd-4e66027e5c9dd3e7.so:_ZN73_$LT$std..os..unix..net..stream..UnixStream$u20$as$u20$std..io..Write$GT$5write17h1f790363f8e74bb0E
libstd-4e66027e5c9dd3e7.so:_ZN73_$LT$std..sys..unix..fd..FileDesc$u20$as$u20$std..os..fd..owned..AsFd$GT$5as_fd17hd67f90f3510a4156E
libstd-4e66027e5c9dd3e7.so:_ZN73_$LT$std..sys..unix..net..Socket$u20$as$u20$std..os..fd..raw..AsRawFd$GT$9as_raw_fd17hd40af6ac34a04422E
libstd-4e66027e5c9dd3e7.so:_ZN73_$LT$std..sys..unix..os..JoinPathsError$u20$as$u20$core..error..Error$GT$11description17h5f894a50f68b8a33E
libstd-4e66027e5c9dd3e7.so:_ZN73_$LT$std..sys..unix..os..JoinPathsError$u20$as$u20$core..fmt..Display$GT$3fmt17h1ae177ce6fb00558E
libstd-4e66027e5c9dd3e7.so:_ZN73_$LT$std..sys..unix..time..inner..Instant$u20$as$u20$core..fmt..Debug$GT$3fmt17h3775fcb02b99205bE
libstd-4e66027e5c9dd3e7.so:_ZN73_$LT$std..sys_common..process..CommandEnv$u20$as$u20$core..fmt..Debug$GT$3fmt17h003feb2fc10054aeE
libstd-4e66027e5c9dd3e7.so:_ZN74_$LT$alloc..collections..TryReserveError$u20$as$u20$core..fmt..Display$GT$3fmt17hdc1db7038224c2dcE
libstd-4e66027e5c9dd3e7.so:_ZN74_$LT$core..char..convert..CharTryFromError$u20$as$u20$core..fmt..Debug$GT$3fmt17h9f65a27d784b4f07E
libstd-4e66027e5c9dd3e7.so:_ZN74_$LT$core..char..convert..ParseCharError$u20$as$u20$core..error..Error$GT$11description17hd4603a437ac51875E
libstd-4e66027e5c9dd3e7.so:_ZN74_$LT$core..char..convert..ParseCharError$u20$as$u20$core..fmt..Display$GT$3fmt17he400e5b9d0b5cf0fE
libstd-4e66027e5c9dd3e7.so:_ZN74_$LT$core..num..bignum..tests..Big8x3$u20$as$u20$core..cmp..PartialOrd$GT$11partial_cmp17h8a310be8c11ad1b8E
libstd-4e66027e5c9dd3e7.so:_ZN74_$LT$core..num..dec2flt..ParseFloatError$u20$as$u20$core..fmt..Display$GT$3fmt17h5a53e32c1cc8ec0dE
libstd-4e66027e5c9dd3e7.so:_ZN74_$LT$core..str..iter..SplitAsciiWhitespace$u20$as$u20$core..fmt..Debug$GT$3fmt17h8ae4393ba6b9f742E
libstd-4e66027e5c9dd3e7.so:_ZN74_$LT$core..str..pattern..CharSliceSearcher$u20$as$u20$core..fmt..Debug$GT$3fmt17h3622e62387fee3d6E
libstd-4e66027e5c9dd3e7.so:_ZN74_$LT$core..time..TryFromFloatSecsErrorKind$u20$as$u20$core..fmt..Debug$GT$3fmt17h1b9e234a1fffa679E
libstd-4e66027e5c9dd3e7.so:_ZN74_$LT$gimli..read..lists..ListsHeader$u20$as$u20$core..default..Default$GT$7default17h70c24165f8ad353bE
libstd-4e66027e5c9dd3e7.so:_ZN74_$LT$gimli..read..loclists..LocListsFormat$u20$as$u20$core..fmt..Debug$GT$3fmt17hbedfad00b5012287E
libstd-4e66027e5c9dd3e7.so:_ZN74_$LT$libc..unix..linux_like..epoll_event$u20$as$u20$core..clone..Clone$GT$5clone17h87bf9351b67d9397E
libstd-4e66027e5c9dd3e7.so:_ZN74_$LT$libc..unix..linux_like..linux..spwd$u20$as$u20$core..clone..Clone$GT$5clone17h746bf70b1a44acc0E
libstd-4e66027e5c9dd3e7.so:_ZN74_$LT$libc..unix..linux_like..sched_param$u20$as$u20$core..clone..Clone$GT$5clone17h649871872fae4db5E
libstd-4e66027e5c9dd3e7.so:_ZN74_$LT$libc..unix..linux_like..sockaddr_in$u20$as$u20$core..clone..Clone$GT$5clone17h248c983189894f1eE
libstd-4e66027e5c9dd3e7.so:_ZN74_$LT$libc..unix..linux_like..sockaddr_ll$u20$as$u20$core..clone..Clone$GT$5clone17h9981eedadaffa904E
libstd-4e66027e5c9dd3e7.so:_ZN74_$LT$libc..unix..linux_like..sockaddr_un$u20$as$u20$core..clone..Clone$GT$5clone17h365d498399b46b02E
libstd-4e66027e5c9dd3e7.so:_ZN74_$LT$memchr..memmem..rabinkarp..NeedleHash$u20$as$u20$core..fmt..Debug$GT$3fmt17h8b6d4b1fc467d3fbE
libstd-4e66027e5c9dd3e7.so:_ZN74_$LT$object..pe..ImageRuntimeFunctionEntry$u20$as$u20$core..fmt..Debug$GT$3fmt17h1fa357f68d5fda05E
libstd-4e66027e5c9dd3e7.so:_ZN74_$LT$object..read..pe..export..ExportTable$u20$as$u20$core..fmt..Debug$GT$3fmt17hf2cec9aadc5ad6ffE
libstd-4e66027e5c9dd3e7.so:_ZN74_$LT$object..read..pe..import..ImportTable$u20$as$u20$core..fmt..Debug$GT$3fmt17h6e8cdd31c90dc848E
libstd-4e66027e5c9dd3e7.so:_ZN74_$LT$std..fs..OpenOptions$u20$as$u20$std..os..unix..fs..OpenOptionsExt$GT$12custom_flags17he6444fe905ab5f56E
libstd-4e66027e5c9dd3e7.so:_ZN74_$LT$std..fs..OpenOptions$u20$as$u20$std..os..unix..fs..OpenOptionsExt$GT$4mode17hdbb02add9f7c6cdcE
libstd-4e66027e5c9dd3e7.so:_ZN74_$LT$std..fs..Permissions$u20$as$u20$std..os..unix..fs..PermissionsExt$GT$4mode17ha2474ecb57e777e6E
libstd-4e66027e5c9dd3e7.so:_ZN74_$LT$std..fs..Permissions$u20$as$u20$std..os..unix..fs..PermissionsExt$GT$8set_mode17hb68b3b01a9764456E
libstd-4e66027e5c9dd3e7.so:_ZN74_$LT$std..fs..Permissions$u20$as$u20$std..os..unix..fs..PermissionsExt$GT$9from_mode17h28d47c2c61176f23E
libstd-4e66027e5c9dd3e7.so:_ZN74_$LT$std..net..ip_addr..Ipv6MulticastScope$u20$as$u20$core..fmt..Debug$GT$3fmt17hbb999907b9c1cd6aE
libstd-4e66027e5c9dd3e7.so:_ZN74_$LT$std..net..socket_addr..SocketAddrV4$u20$as$u20$core..fmt..Display$GT$3fmt17h1ad53578a3296985E
libstd-4e66027e5c9dd3e7.so:_ZN74_$LT$std..net..socket_addr..SocketAddrV6$u20$as$u20$core..fmt..Display$GT$3fmt17he8691c694ae200a7E
libstd-4e66027e5c9dd3e7.so:_ZN74_$LT$std..sync..barrier..BarrierWaitResult$u20$as$u20$core..fmt..Debug$GT$3fmt17h87898722d92cbdd8E
libstd-4e66027e5c9dd3e7.so:_ZN74_$LT$std..sync..condvar..WaitTimeoutResult$u20$as$u20$core..fmt..Debug$GT$3fmt17h02eba4b7f6eced15E
libstd-4e66027e5c9dd3e7.so:_ZN74_$LT$std..sys..unix..fd..FileDesc$u20$as$u20$std..os..fd..raw..AsRawFd$GT$9as_raw_fd17h5b3c79096d596cc5E
libstd-4e66027e5c9dd3e7.so:_ZN74_$LT$std..sys_common..net..LookupHost$u20$as$u20$core..ops..drop..Drop$GT$4drop17hfee0b432a9a2d033E
libstd-4e66027e5c9dd3e7.so:_ZN74_$LT$std..sys_common..process..CommandEnvs$u20$as$u20$core..fmt..Debug$GT$3fmt17hdc5045aa98f84f53E
libstd-4e66027e5c9dd3e7.so:_ZN74_$LT$std..sys_common..wtf8..Wtf8Buf$u20$as$u20$core..ops..deref..Deref$GT$5deref17h8ed26d7f20d69d78E
libstd-4e66027e5c9dd3e7.so:_ZN75_$LT$$RF$std..fs..File$u20$as$u20$std..sys..unix..kernel_copy..CopyRead$GT$10properties17h2936ace9ebc157e7E
libstd-4e66027e5c9dd3e7.so:_ZN75_$LT$alloc..ffi..c_str..FromVecWithNulError$u20$as$u20$core..fmt..Debug$GT$3fmt17h2f2c80b4b0f6c3e7E
libstd-4e66027e5c9dd3e7.so:_ZN75_$LT$core..char..decode..DecodeUtf16Error$u20$as$u20$core..error..Error$GT$11description17h980ef69bbcfe2bbeE
libstd-4e66027e5c9dd3e7.so:_ZN75_$LT$core..char..decode..DecodeUtf16Error$u20$as$u20$core..fmt..Display$GT$3fmt17hfc21056c2668043aE
libstd-4e66027e5c9dd3e7.so:_ZN75_$LT$gimli..read..abbrev..Attributes$u20$as$u20$core..ops..deref..Deref$GT$5deref17h02994843125891cbE
libstd-4e66027e5c9dd3e7.so:_ZN75_$LT$gimli..read..cfi..SectionBaseAddresses$u20$as$u20$core..fmt..Debug$GT$3fmt17hcbcd3522033e7f0aE
libstd-4e66027e5c9dd3e7.so:_ZN75_$LT$libc..unix..linux_like..linux..dqblk$u20$as$u20$core..clone..Clone$GT$5clone17h8f5393a3b3bc0549E
libstd-4e66027e5c9dd3e7.so:_ZN75_$LT$libc..unix..linux_like..linux..ifreq$u20$as$u20$core..clone..Clone$GT$5clone17h79b1388ec771281cE
libstd-4e66027e5c9dd3e7.so:_ZN75_$LT$libc..unix..linux_like..linux..ucred$u20$as$u20$core..clone..Clone$GT$5clone17h8cf230b7c497ab38E
libstd-4e66027e5c9dd3e7.so:_ZN75_$LT$libc..unix..linux_like..sockaddr_in6$u20$as$u20$core..clone..Clone$GT$5clone17he54b9036a26a3c51E
libstd-4e66027e5c9dd3e7.so:_ZN75_$LT$memchr..memmem..prefilter..PrefilterFn$u20$as$u20$core..fmt..Debug$GT$3fmt17h4f7fe7c2d37ddfa4E
libstd-4e66027e5c9dd3e7.so:_ZN75_$LT$memchr..memmem..twoway..SuffixOrdering$u20$as$u20$core..fmt..Debug$GT$3fmt17hb687318e7691da57E
libstd-4e66027e5c9dd3e7.so:_ZN75_$LT$miniz_oxide..deflate..CompressionLevel$u20$as$u20$core..fmt..Debug$GT$3fmt17h9273cbc3b78c530cE
libstd-4e66027e5c9dd3e7.so:_ZN75_$LT$miniz_oxide..deflate..core..TDEFLFlush$u20$as$u20$core..fmt..Debug$GT$3fmt17h4f0c128dfb747462E
libstd-4e66027e5c9dd3e7.so:_ZN75_$LT$object..macho..ScatteredRelocationInfo$u20$as$u20$core..fmt..Debug$GT$3fmt17h83b1424db28f6a06E
libstd-4e66027e5c9dd3e7.so:_ZN75_$LT$object..pe..ImageBoundImportDescriptor$u20$as$u20$core..fmt..Debug$GT$3fmt17hb6f71a64e4b788ccE
libstd-4e66027e5c9dd3e7.so:_ZN75_$LT$object..pe..ImageDynamicRelocation32V2$u20$as$u20$core..fmt..Debug$GT$3fmt17h8efd125df75902e1E
libstd-4e66027e5c9dd3e7.so:_ZN75_$LT$object..pe..ImageDynamicRelocation64V2$u20$as$u20$core..fmt..Debug$GT$3fmt17hd1a2d998d77896f6E
libstd-4e66027e5c9dd3e7.so:_ZN75_$LT$object..pe..ImageLoadConfigDirectory32$u20$as$u20$core..fmt..Debug$GT$3fmt17hea248b09624ddc25E
libstd-4e66027e5c9dd3e7.so:_ZN75_$LT$object..pe..ImageLoadConfigDirectory64$u20$as$u20$core..fmt..Debug$GT$3fmt17h3f79af4838e8aad6E
libstd-4e66027e5c9dd3e7.so:_ZN75_$LT$object..read..pe..export..ExportTarget$u20$as$u20$core..fmt..Debug$GT$3fmt17h60acb47c9b2206edE
libstd-4e66027e5c9dd3e7.so:_ZN75_$LT$object..read..pe..rich..RichHeaderInfo$u20$as$u20$core..fmt..Debug$GT$3fmt17h10b3a905d6aa8bc2E
libstd-4e66027e5c9dd3e7.so:_ZN75_$LT$std..env..ArgsOs$u20$as$u20$core..iter..traits..iterator..Iterator$GT$4next17he770633228e391b2E
libstd-4e66027e5c9dd3e7.so:_ZN75_$LT$std..env..ArgsOs$u20$as$u20$core..iter..traits..iterator..Iterator$GT$9size_hint17h3081be0773032d22E
libstd-4e66027e5c9dd3e7.so:_ZN75_$LT$std..env..VarsOs$u20$as$u20$core..iter..traits..iterator..Iterator$GT$4next17hc01153e854e07a63E
libstd-4e66027e5c9dd3e7.so:_ZN75_$LT$std..env..VarsOs$u20$as$u20$core..iter..traits..iterator..Iterator$GT$9size_hint17h03bf50e740c9fe92E
libstd-4e66027e5c9dd3e7.so:_ZN75_$LT$std..fs..ReadDir$u20$as$u20$core..iter..traits..iterator..Iterator$GT$4next17h0b59a9b853c1cba2E
libstd-4e66027e5c9dd3e7.so:_ZN75_$LT$std..os..linux..process..PidFd$u20$as$u20$std..os..fd..owned..AsFd$GT$5as_fd17hc66b99ff287f9bf4E
libstd-4e66027e5c9dd3e7.so:_ZN75_$LT$std..os..unix..net..listener..Incoming$u20$as$u20$core..fmt..Debug$GT$3fmt17h6dbf651c7e7b8f6bE
libstd-4e66027e5c9dd3e7.so:_ZN75_$LT$std..os..unix..net..stream..UnixStream$u20$as$u20$core..fmt..Debug$GT$3fmt17hb97291ead46ccc77E
libstd-4e66027e5c9dd3e7.so:_ZN75_$LT$std..sync..mpmc..zero..ZeroToken$u20$as$u20$core..default..Default$GT$7default17hbe51d14cd7a7a201E
libstd-4e66027e5c9dd3e7.so:_ZN75_$LT$std..sys..unix..net..Socket$u20$as$u20$std..os..fd..raw..FromRawFd$GT$11from_raw_fd17h5ff103ac7af259dfE
libstd-4e66027e5c9dd3e7.so:_ZN75_$LT$std..sys..unix..net..Socket$u20$as$u20$std..os..fd..raw..IntoRawFd$GT$11into_raw_fd17hd4b5fa3984e128f0E
libstd-4e66027e5c9dd3e7.so:_ZN75_$LT$std..sys..unix..pipe..AnonPipe$u20$as$u20$std..os..fd..owned..AsFd$GT$5as_fd17hc38b459d2057370dE
libstd-4e66027e5c9dd3e7.so:_ZN75_$LT$unwind..libunwind.._Unwind_Reason_Code$u20$as$u20$core..fmt..Debug$GT$3fmt17hc42afeea387d2ff0E
libstd-4e66027e5c9dd3e7.so:_ZN76_$LT$$RF$std..fs..File$u20$as$u20$std..sys..unix..kernel_copy..CopyWrite$GT$10properties17hfb957a9dad269bdcE
libstd-4e66027e5c9dd3e7.so:_ZN76_$LT$$RF$std..os..unix..net..stream..UnixStream$u20$as$u20$std..io..Read$GT$13read_vectored17h6ab1ddaface2e4d0E
libstd-4e66027e5c9dd3e7.so:_ZN76_$LT$$RF$std..os..unix..net..stream..UnixStream$u20$as$u20$std..io..Read$GT$4read17h7a879e035d5d6bceE
libstd-4e66027e5c9dd3e7.so:_ZN76_$LT$alloc..collections..TryReserveErrorKind$u20$as$u20$core..fmt..Debug$GT$3fmt17h1deb704c630c172dE
libstd-4e66027e5c9dd3e7.so:_ZN76_$LT$core..char..convert..CharTryFromError$u20$as$u20$core..error..Error$GT$11description17h2e24db1a96ee69f3E
libstd-4e66027e5c9dd3e7.so:_ZN76_$LT$core..char..convert..CharTryFromError$u20$as$u20$core..fmt..Display$GT$3fmt17h5f6b35e7fef8dd40E
libstd-4e66027e5c9dd3e7.so:_ZN76_$LT$core..ffi..c_str..FromBytesWithNulError$u20$as$u20$core..fmt..Debug$GT$3fmt17hd73e097e6922c138E
libstd-4e66027e5c9dd3e7.so:_ZN76_$LT$core..mem..transmutability..Assume$u20$as$u20$core..ops..arith..Add$GT$3add17h399e403b44c68dc2E
libstd-4e66027e5c9dd3e7.so:_ZN76_$LT$core..mem..transmutability..Assume$u20$as$u20$core..ops..arith..Sub$GT$3sub17hb7a1b478db59a0f6E
libstd-4e66027e5c9dd3e7.so:_ZN76_$LT$core..num..nonzero..NonZeroI8$u20$as$u20$core..str..traits..FromStr$GT$8from_str17h0d9c8d775bf47793E
libstd-4e66027e5c9dd3e7.so:_ZN76_$LT$core..num..nonzero..NonZeroU8$u20$as$u20$core..str..traits..FromStr$GT$8from_str17ha2177402a5b3316dE
libstd-4e66027e5c9dd3e7.so:_ZN76_$LT$gimli..read..rnglists..RangeListsFormat$u20$as$u20$core..fmt..Debug$GT$3fmt17h8c17494e8246cbd7E
libstd-4e66027e5c9dd3e7.so:_ZN76_$LT$gimli..read..util..sealed..CapacityFull$u20$as$u20$core..fmt..Debug$GT$3fmt17hf28002404d950100E
libstd-4e66027e5c9dd3e7.so:_ZN76_$LT$libc..unix..linux_like..linux..dirent$u20$as$u20$core..clone..Clone$GT$5clone17h7a026825957b9aabE
libstd-4e66027e5c9dd3e7.so:_ZN76_$LT$libc..unix..linux_like..linux..fsid_t$u20$as$u20$core..clone..Clone$GT$5clone17h93cba16bbdb015ccE
libstd-4e66027e5c9dd3e7.so:_ZN76_$LT$libc..unix..linux_like..linux..glob_t$u20$as$u20$core..clone..Clone$GT$5clone17hcdf72f94f23139d3E
libstd-4e66027e5c9dd3e7.so:_ZN76_$LT$libc..unix..linux_like..linux..mntent$u20$as$u20$core..clone..Clone$GT$5clone17h290d924d3d7dac8eE
libstd-4e66027e5c9dd3e7.so:_ZN76_$LT$libc..unix..linux_like..linux..nlattr$u20$as$u20$core..clone..Clone$GT$5clone17h8cbcad845399f9d7E
libstd-4e66027e5c9dd3e7.so:_ZN76_$LT$libc..unix..linux_like..linux..option$u20$as$u20$core..clone..Clone$GT$5clone17h6bec2f2ae614735aE
libstd-4e66027e5c9dd3e7.so:_ZN76_$LT$libc..unix..linux_like..linux..passwd$u20$as$u20$core..clone..Clone$GT$5clone17hb8a866a8c386280aE
libstd-4e66027e5c9dd3e7.so:_ZN76_$LT$libc..unix..linux_like..linux..sembuf$u20$as$u20$core..clone..Clone$GT$5clone17h569d696362192176E
libstd-4e66027e5c9dd3e7.so:_ZN76_$LT$miniz_oxide..deflate..core..TDEFLStatus$u20$as$u20$core..fmt..Debug$GT$3fmt17h02ce64f80c491146E
libstd-4e66027e5c9dd3e7.so:_ZN76_$LT$object..pe..ImageDynamicRelocationTable$u20$as$u20$core..fmt..Debug$GT$3fmt17hf4dc9973e7752eb4E
libstd-4e66027e5c9dd3e7.so:_ZN76_$LT$object..pe..ImageResourceDirectoryEntry$u20$as$u20$core..fmt..Debug$GT$3fmt17h6736ddcee84c22a0E
libstd-4e66027e5c9dd3e7.so:_ZN76_$LT$object..read..pe..rich..RichHeaderEntry$u20$as$u20$core..fmt..Debug$GT$3fmt17hd102278af52668eaE
libstd-4e66027e5c9dd3e7.so:_ZN76_$LT$std..os..linux..process..PidFd$u20$as$u20$std..os..fd..raw..AsRawFd$GT$9as_raw_fd17h415f8097a33e719aE
libstd-4e66027e5c9dd3e7.so:_ZN76_$LT$std..process..Command$u20$as$u20$std..os..unix..process..CommandExt$GT$13process_group17h766674c69069f035E
libstd-4e66027e5c9dd3e7.so:_ZN76_$LT$std..process..Command$u20$as$u20$std..os..unix..process..CommandExt$GT$3gid17hdbf7c8f758cc2127E
libstd-4e66027e5c9dd3e7.so:_ZN76_$LT$std..process..Command$u20$as$u20$std..os..unix..process..CommandExt$GT$3uid17h67f340f96a964679E
libstd-4e66027e5c9dd3e7.so:_ZN76_$LT$std..process..Command$u20$as$u20$std..os..unix..process..CommandExt$GT$4exec17hb666dad66955800eE
libstd-4e66027e5c9dd3e7.so:_ZN76_$LT$std..process..Command$u20$as$u20$std..os..unix..process..CommandExt$GT$6groups17hefa5c8481af58709E
libstd-4e66027e5c9dd3e7.so:_ZN76_$LT$std..sys..unix..fd..FileDesc$u20$as$u20$std..os..fd..raw..FromRawFd$GT$11from_raw_fd17ha4c8469be15e1ba8E
libstd-4e66027e5c9dd3e7.so:_ZN76_$LT$std..sys..unix..fd..FileDesc$u20$as$u20$std..os..fd..raw..IntoRawFd$GT$11into_raw_fd17h9acd94996bb56d02E
libstd-4e66027e5c9dd3e7.so:_ZN76_$LT$std..sys..unix..pipe..AnonPipe$u20$as$u20$std..os..fd..raw..AsRawFd$GT$9as_raw_fd17he824e53c78c8a03eE
libstd-4e66027e5c9dd3e7.so:_ZN77_$LT$$RF$std..os..unix..net..stream..UnixStream$u20$as$u20$std..io..Write$GT$14write_vectored17h5801d887aebac7a7E
libstd-4e66027e5c9dd3e7.so:_ZN77_$LT$$RF$std..os..unix..net..stream..UnixStream$u20$as$u20$std..io..Write$GT$5flush17hdc14812583b14136E
libstd-4e66027e5c9dd3e7.so:_ZN77_$LT$$RF$std..os..unix..net..stream..UnixStream$u20$as$u20$std..io..Write$GT$5write17ha282f959dd491259E
libstd-4e66027e5c9dd3e7.so:_ZN77_$LT$adler..algo..U32X4$u20$as$u20$core..ops..arith..MulAssign$LT$u32$GT$$GT$10mul_assign17h90f0d4aa0ab482d3E
libstd-4e66027e5c9dd3e7.so:_ZN77_$LT$adler..algo..U32X4$u20$as$u20$core..ops..arith..RemAssign$LT$u32$GT$$GT$10rem_assign17h94d6f2ea521ca06cE
libstd-4e66027e5c9dd3e7.so:_ZN77_$LT$alloc..borrow..Cow$LT$str$GT$$u20$as$u20$core..ops..arith..AddAssign$GT$10add_assign17h52487eb8e997d544E
libstd-4e66027e5c9dd3e7.so:_ZN77_$LT$alloc..ffi..c_str..FromVecWithNulError$u20$as$u20$core..fmt..Display$GT$3fmt17h04746b06418eacaeE
libstd-4e66027e5c9dd3e7.so:_ZN77_$LT$core..core_arch..x86..cpuid..CpuidResult$u20$as$u20$core..fmt..Debug$GT$3fmt17h67c278cd515f2950E
libstd-4e66027e5c9dd3e7.so:_ZN77_$LT$core..ffi..c_str..FromBytesUntilNulError$u20$as$u20$core..fmt..Debug$GT$3fmt17hfcb93b37c9bf52efE
libstd-4e66027e5c9dd3e7.so:_ZN77_$LT$core..num..flt2dec..decoder..FullDecoded$u20$as$u20$core..fmt..Debug$GT$3fmt17hf6fe0e82503b3c97E
libstd-4e66027e5c9dd3e7.so:_ZN77_$LT$core..num..nonzero..NonZeroI16$u20$as$u20$core..str..traits..FromStr$GT$8from_str17h3a3fc9c4957d3ce8E
libstd-4e66027e5c9dd3e7.so:_ZN77_$LT$core..num..nonzero..NonZeroI32$u20$as$u20$core..str..traits..FromStr$GT$8from_str17hba4278fb3262ea27E
libstd-4e66027e5c9dd3e7.so:_ZN77_$LT$core..num..nonzero..NonZeroI64$u20$as$u20$core..str..traits..FromStr$GT$8from_str17h9aa3c57f702ce717E
libstd-4e66027e5c9dd3e7.so:_ZN77_$LT$core..num..nonzero..NonZeroU16$u20$as$u20$core..str..traits..FromStr$GT$8from_str17hbfb91cffebc8161cE
libstd-4e66027e5c9dd3e7.so:_ZN77_$LT$core..num..nonzero..NonZeroU32$u20$as$u20$core..str..traits..FromStr$GT$8from_str17h30267dfac28c89adE
libstd-4e66027e5c9dd3e7.so:_ZN77_$LT$core..num..nonzero..NonZeroU64$u20$as$u20$core..str..traits..FromStr$GT$8from_str17h7aa6da41c9e4fc0dE
libstd-4e66027e5c9dd3e7.so:_ZN77_$LT$libc..unix..linux_like..ip_mreq_source$u20$as$u20$core..clone..Clone$GT$5clone17h86ce229390307d42E
libstd-4e66027e5c9dd3e7.so:_ZN77_$LT$libc..unix..linux_like..linux..mq_attr$u20$as$u20$core..clone..Clone$GT$5clone17heee993a69d2b49b9E
libstd-4e66027e5c9dd3e7.so:_ZN77_$LT$libc..unix..linux_like..linux..msginfo$u20$as$u20$core..clone..Clone$GT$5clone17hd6fb345e094cf5c8E
libstd-4e66027e5c9dd3e7.so:_ZN77_$LT$object..pe..ImageArmRuntimeFunctionEntry$u20$as$u20$core..fmt..Debug$GT$3fmt17h5d8ff45cbef099f5E
libstd-4e66027e5c9dd3e7.so:_ZN77_$LT$object..pe..ImageLoadConfigCodeIntegrity$u20$as$u20$core..fmt..Debug$GT$3fmt17h298010fd1c27c6cdE
libstd-4e66027e5c9dd3e7.so:_ZN77_$LT$object..pe..ImageResourceDirectoryString$u20$as$u20$core..fmt..Debug$GT$3fmt17ha297c8f1ed911735E
libstd-4e66027e5c9dd3e7.so:_ZN77_$LT$object..read..elf..version..VersionIndex$u20$as$u20$core..fmt..Debug$GT$3fmt17h4b36fb97ccd9265eE
libstd-4e66027e5c9dd3e7.so:_ZN77_$LT$object..read..pe..relocation..Relocation$u20$as$u20$core..fmt..Debug$GT$3fmt17hb8adbdb6ba087b9eE
libstd-4e66027e5c9dd3e7.so:_ZN77_$LT$object..read..pe..resource..ResourceName$u20$as$u20$core..fmt..Debug$GT$3fmt17hf1e01c6805a44c73E
libstd-4e66027e5c9dd3e7.so:_ZN77_$LT$std..backtrace_rs..symbolize..SymbolName$u20$as$u20$core..fmt..Debug$GT$3fmt17hff9e2eb398de0d84E
libstd-4e66027e5c9dd3e7.so:_ZN77_$LT$std..collections..hash..map..RandomState$u20$as$u20$core..fmt..Debug$GT$3fmt17h3f2b9d78c5a362c9E
libstd-4e66027e5c9dd3e7.so:_ZN77_$LT$std..net..socket_addr..SocketAddrV4$u20$as$u20$core..cmp..PartialOrd$GT$11partial_cmp17hcbebf13330b8b7c6E
libstd-4e66027e5c9dd3e7.so:_ZN77_$LT$std..net..socket_addr..SocketAddrV6$u20$as$u20$core..cmp..PartialOrd$GT$11partial_cmp17ha2da4fa034a1fca7E
libstd-4e66027e5c9dd3e7.so:_ZN77_$LT$std..process..Command$u20$as$u20$std..os..linux..process..CommandExt$GT$12create_pidfd17h19ffde5e0c6de136E
libstd-4e66027e5c9dd3e7.so:_ZN77_$LT$std..sys_common..wtf8..Wtf8Buf$u20$as$u20$core..ops..deref..DerefMut$GT$9deref_mut17h0c35a3c996912665E
libstd-4e66027e5c9dd3e7.so:_ZN78_$LT$$LP$$RF$str$C$u16$RP$$u20$as$u20$std..net..socket_addr..ToSocketAddrs$GT$15to_socket_addrs17ha5a2b6ec3154ba9dE
libstd-4e66027e5c9dd3e7.so:_ZN78_$LT$alloc..string..String$u20$as$u20$std..net..socket_addr..ToSocketAddrs$GT$15to_socket_addrs17ha5857e909218f6a0E
libstd-4e66027e5c9dd3e7.so:_ZN78_$LT$core..convert..Infallible$u20$as$u20$core..convert..From$LT$$u21$$GT$$GT$4from17ha8a753d7433b42c5E
libstd-4e66027e5c9dd3e7.so:_ZN78_$LT$core..error..Source$u20$as$u20$core..iter..traits..iterator..Iterator$GT$4next17he145edd245ff56fdE
libstd-4e66027e5c9dd3e7.so:_ZN78_$LT$core..ffi..c_str..FromBytesWithNulError$u20$as$u20$core..error..Error$GT$11description17h77aeec06d948961dE
libstd-4e66027e5c9dd3e7.so:_ZN78_$LT$core..ffi..c_str..FromBytesWithNulError$u20$as$u20$core..fmt..Display$GT$3fmt17h1ff1601b7cb3a0d4E
libstd-4e66027e5c9dd3e7.so:_ZN78_$LT$core..num..nonzero..NonZeroI128$u20$as$u20$core..str..traits..FromStr$GT$8from_str17h9f4b9d2e86ac251aE
libstd-4e66027e5c9dd3e7.so:_ZN78_$LT$core..num..nonzero..NonZeroU128$u20$as$u20$core..str..traits..FromStr$GT$8from_str17haa008a69d36cebf8E
libstd-4e66027e5c9dd3e7.so:_ZN78_$LT$libc..unix..linux_like..linux..dirent64$u20$as$u20$core..clone..Clone$GT$5clone17hab4cab57d3f55cd5E
libstd-4e66027e5c9dd3e7.so:_ZN78_$LT$libc..unix..linux_like..linux..fpos64_t$u20$as$u20$core..clone..Clone$GT$5clone17h957a3451be14a2d8E
libstd-4e66027e5c9dd3e7.so:_ZN78_$LT$libc..unix..linux_like..linux..input_id$u20$as$u20$core..clone..Clone$GT$5clone17h50d6d66e01ba4fa0E
libstd-4e66027e5c9dd3e7.so:_ZN78_$LT$libc..unix..linux_like..linux..nlmsgerr$u20$as$u20$core..clone..Clone$GT$5clone17h9be77f16a79a635eE
libstd-4e66027e5c9dd3e7.so:_ZN78_$LT$libc..unix..linux_like..linux..nlmsghdr$u20$as$u20$core..clone..Clone$GT$5clone17hf99a8678a7e64109E
libstd-4e66027e5c9dd3e7.so:_ZN78_$LT$libc..unix..linux_like..linux..rlimit64$u20$as$u20$core..clone..Clone$GT$5clone17h981555e6166fc339E
libstd-4e66027e5c9dd3e7.so:_ZN78_$LT$memchr..memmem..prefilter..PrefilterState$u20$as$u20$core..fmt..Debug$GT$3fmt17hedb0db3b7b9c2767E
libstd-4e66027e5c9dd3e7.so:_ZN78_$LT$object..macho..FatArch32$u20$as$u20$object..read..macho..fat..FatArch$GT$10cpusubtype17hab804e08a426ef4dE
libstd-4e66027e5c9dd3e7.so:_ZN78_$LT$object..macho..FatArch32$u20$as$u20$object..read..macho..fat..FatArch$GT$4size17h2c7c1ef32220b1daE
libstd-4e66027e5c9dd3e7.so:_ZN78_$LT$object..macho..FatArch32$u20$as$u20$object..read..macho..fat..FatArch$GT$5align17h18259f3a9f6444acE
libstd-4e66027e5c9dd3e7.so:_ZN78_$LT$object..macho..FatArch32$u20$as$u20$object..read..macho..fat..FatArch$GT$6offset17hb0b9f22ebd6f1941E
libstd-4e66027e5c9dd3e7.so:_ZN78_$LT$object..macho..FatArch32$u20$as$u20$object..read..macho..fat..FatArch$GT$7cputype17h73a7cb43980bce0eE
libstd-4e66027e5c9dd3e7.so:_ZN78_$LT$object..macho..FatArch64$u20$as$u20$object..read..macho..fat..FatArch$GT$10cpusubtype17h8302fbda2e737f8cE
libstd-4e66027e5c9dd3e7.so:_ZN78_$LT$object..macho..FatArch64$u20$as$u20$object..read..macho..fat..FatArch$GT$4size17h62202559877ed433E
libstd-4e66027e5c9dd3e7.so:_ZN78_$LT$object..macho..FatArch64$u20$as$u20$object..read..macho..fat..FatArch$GT$5align17hd9a2001f0387e60dE
libstd-4e66027e5c9dd3e7.so:_ZN78_$LT$object..macho..FatArch64$u20$as$u20$object..read..macho..fat..FatArch$GT$6offset17h1514302ce3ffbd4fE
libstd-4e66027e5c9dd3e7.so:_ZN78_$LT$object..macho..FatArch64$u20$as$u20$object..read..macho..fat..FatArch$GT$7cputype17h086d287ae03fe75eE
libstd-4e66027e5c9dd3e7.so:_ZN78_$LT$object..read..coff..section..SectionTable$u20$as$u20$core..fmt..Debug$GT$3fmt17hc91d3a2984fbb243E
libstd-4e66027e5c9dd3e7.so:_ZN78_$LT$object..read..pe..import..ImportThunkList$u20$as$u20$core..fmt..Debug$GT$3fmt17hc13ae406412dba57E
libstd-4e66027e5c9dd3e7.so:_ZN78_$LT$std..os..linux..process..PidFd$u20$as$u20$std..os..fd..raw..FromRawFd$GT$11from_raw_fd17h7fccebe16fd6daaaE
libstd-4e66027e5c9dd3e7.so:_ZN78_$LT$std..os..linux..process..PidFd$u20$as$u20$std..os..fd..raw..IntoRawFd$GT$11into_raw_fd17he415b8a5852783fbE
libstd-4e66027e5c9dd3e7.so:_ZN78_$LT$std..sys..unix..pipe..AnonPipe$u20$as$u20$std..os..fd..raw..FromRawFd$GT$11from_raw_fd17h2eb07b46ec5e7321E
libstd-4e66027e5c9dd3e7.so:_ZN78_$LT$std..sys..unix..pipe..AnonPipe$u20$as$u20$std..os..fd..raw..IntoRawFd$GT$11into_raw_fd17hb4198fcd891b53c3E
libstd-4e66027e5c9dd3e7.so:_ZN79_$LT$alloc..string..Drain$u20$as$u20$core..iter..traits..iterator..Iterator$GT$9size_hint17h44d8885e350c264fE
libstd-4e66027e5c9dd3e7.so:_ZN79_$LT$core..ffi..c_str..FromBytesUntilNulError$u20$as$u20$core..fmt..Display$GT$3fmt17heae3081d365db44dE
libstd-4e66027e5c9dd3e7.so:_ZN79_$LT$core..fmt..builders..PadAdapterState$u20$as$u20$core..default..Default$GT$7default17h6d82fc483cdfe113E
libstd-4e66027e5c9dd3e7.so:_ZN79_$LT$core..num..dec2flt..decimal..Decimal$u20$as$u20$core..default..Default$GT$7default17h1b3a7d3ca7eede2bE
libstd-4e66027e5c9dd3e7.so:_ZN79_$LT$core..num..nonzero..NonZeroIsize$u20$as$u20$core..str..traits..FromStr$GT$8from_str17h8c6358c138ef04a6E
libstd-4e66027e5c9dd3e7.so:_ZN79_$LT$core..num..nonzero..NonZeroUsize$u20$as$u20$core..str..traits..FromStr$GT$8from_str17h0d335dfaec11d45aE
libstd-4e66027e5c9dd3e7.so:_ZN79_$LT$core..time..Duration$u20$as$u20$core..ops..arith..DivAssign$LT$u32$GT$$GT$10div_assign17h22e51a570a2e1171E
libstd-4e66027e5c9dd3e7.so:_ZN79_$LT$core..time..Duration$u20$as$u20$core..ops..arith..MulAssign$LT$u32$GT$$GT$10mul_assign17h6835a632f6568d30E
libstd-4e66027e5c9dd3e7.so:_ZN79_$LT$libc..unix..linux_like..linux..Elf32_Sym$u20$as$u20$core..clone..Clone$GT$5clone17hfb90ecae1f1843f4E
libstd-4e66027e5c9dd3e7.so:_ZN79_$LT$libc..unix..linux_like..linux..Elf64_Sym$u20$as$u20$core..clone..Clone$GT$5clone17hd5a2de5813efced0E
libstd-4e66027e5c9dd3e7.so:_ZN79_$LT$libc..unix..linux_like..linux..af_alg_iv$u20$as$u20$core..clone..Clone$GT$5clone17h3363b929967d14d3E
libstd-4e66027e5c9dd3e7.so:_ZN79_$LT$libc..unix..linux_like..linux..can_frame$u20$as$u20$core..clone..Clone$GT$5clone17h9feabc468f0968afE
libstd-4e66027e5c9dd3e7.so:_ZN79_$LT$libc..unix..linux_like..linux..cpu_set_t$u20$as$u20$core..clone..Clone$GT$5clone17hecf482a155059cf3E
libstd-4e66027e5c9dd3e7.so:_ZN79_$LT$libc..unix..linux_like..linux..ff_effect$u20$as$u20$core..clone..Clone$GT$5clone17h3906be1b1f8d00f7E
libstd-4e66027e5c9dd3e7.so:_ZN79_$LT$libc..unix..linux_like..linux..ff_replay$u20$as$u20$core..clone..Clone$GT$5clone17h53ecdeab32ad9a98E
libstd-4e66027e5c9dd3e7.so:_ZN79_$LT$libc..unix..linux_like..linux..in6_ifreq$u20$as$u20$core..clone..Clone$GT$5clone17h5992b7c1effd1ddfE
libstd-4e66027e5c9dd3e7.so:_ZN79_$LT$libc..unix..linux_like..sockaddr_storage$u20$as$u20$core..clone..Clone$GT$5clone17hb9371ba8a1d254deE
libstd-4e66027e5c9dd3e7.so:_ZN79_$LT$memchr..memmem..prefilter..Prefilter$u20$as$u20$core..default..Default$GT$7default17he84dd31ef6330d55E
libstd-4e66027e5c9dd3e7.so:_ZN79_$LT$memchr..memmem..rarebytes..RareNeedleBytes$u20$as$u20$core..fmt..Debug$GT$3fmt17h25ac324459ee482bE
libstd-4e66027e5c9dd3e7.so:_ZN79_$LT$memchr..memmem..twoway..ApproximateByteSet$u20$as$u20$core..fmt..Debug$GT$3fmt17hb4dd30c232cb9208E
libstd-4e66027e5c9dd3e7.so:_ZN79_$LT$object..pe..ImageAlphaRuntimeFunctionEntry$u20$as$u20$core..fmt..Debug$GT$3fmt17h7128f1c7769247bbE
libstd-4e66027e5c9dd3e7.so:_ZN79_$LT$object..pe..ImageArm64RuntimeFunctionEntry$u20$as$u20$core..fmt..Debug$GT$3fmt17he44265e40d29b9f6E
libstd-4e66027e5c9dd3e7.so:_ZN79_$LT$object..pe..ImageAuxSymbolFunctionBeginEnd$u20$as$u20$core..fmt..Debug$GT$3fmt17hec73ea0cbd712d98E
libstd-4e66027e5c9dd3e7.so:_ZN79_$LT$std..backtrace_rs..symbolize..SymbolName$u20$as$u20$core..fmt..Display$GT$3fmt17hb6f593c617bd99f0E
libstd-4e66027e5c9dd3e7.so:_ZN79_$LT$std..collections..hash..map..DefaultHasher$u20$as$u20$core..fmt..Debug$GT$3fmt17h16ec826aa9301289E
libstd-4e66027e5c9dd3e7.so:_ZN79_$LT$std..env..SplitPaths$u20$as$u20$core..iter..traits..iterator..Iterator$GT$4next17h1498722ebdb2a997E
libstd-4e66027e5c9dd3e7.so:_ZN79_$LT$std..env..SplitPaths$u20$as$u20$core..iter..traits..iterator..Iterator$GT$9size_hint17hc0b292a023bdd49fE
libstd-4e66027e5c9dd3e7.so:_ZN79_$LT$std..os..unix..net..datagram..UnixDatagram$u20$as$u20$core..fmt..Debug$GT$3fmt17h2278477da7a512a2E
libstd-4e66027e5c9dd3e7.so:_ZN79_$LT$std..os..unix..net..listener..UnixListener$u20$as$u20$core..fmt..Debug$GT$3fmt17h47ecbe2f199607e7E
libstd-4e66027e5c9dd3e7.so:_ZN79_$LT$std..sys_common..process..CommandEnv$u20$as$u20$core..default..Default$GT$7default17h0b9eee6df3d61eb1E
libstd-4e66027e5c9dd3e7.so:_ZN80_$LT$$LP$$RP$$u20$as$u20$core..iter..traits..collect..Extend$LT$$LP$$RP$$GT$$GT$10extend_one17hc2f17dc4b0537019E
libstd-4e66027e5c9dd3e7.so:_ZN80_$LT$alloc..vec..Vec$LT$u8$GT$$u20$as$u20$core..convert..From$LT$$RF$str$GT$$GT$4from17hac1b225d603bb4e9E
libstd-4e66027e5c9dd3e7.so:_ZN80_$LT$core..ffi..c_str..FromBytesWithNulErrorKind$u20$as$u20$core..fmt..Debug$GT$3fmt17h0280ab93a6ab049fE
libstd-4e66027e5c9dd3e7.so:_ZN80_$LT$gimli..read..abbrev..AttributeSpecification$u20$as$u20$core..fmt..Debug$GT$3fmt17h2840b83288da1070E
libstd-4e66027e5c9dd3e7.so:_ZN80_$LT$libc..unix..linux_like..linux..Elf32_Ehdr$u20$as$u20$core..clone..Clone$GT$5clone17h678571e21bdf8f50E
libstd-4e66027e5c9dd3e7.so:_ZN80_$LT$libc..unix..linux_like..linux..Elf32_Phdr$u20$as$u20$core..clone..Clone$GT$5clone17hb29d18e460c16ca9E
libstd-4e66027e5c9dd3e7.so:_ZN80_$LT$libc..unix..linux_like..linux..Elf32_Shdr$u20$as$u20$core..clone..Clone$GT$5clone17h2ffe7cadd14eaf2cE
libstd-4e66027e5c9dd3e7.so:_ZN80_$LT$libc..unix..linux_like..linux..Elf64_Ehdr$u20$as$u20$core..clone..Clone$GT$5clone17hba7f6740a491de28E
libstd-4e66027e5c9dd3e7.so:_ZN80_$LT$libc..unix..linux_like..linux..Elf64_Phdr$u20$as$u20$core..clone..Clone$GT$5clone17hd1ea933384449fbeE
libstd-4e66027e5c9dd3e7.so:_ZN80_$LT$libc..unix..linux_like..linux..Elf64_Shdr$u20$as$u20$core..clone..Clone$GT$5clone17hdd427f03739518e2E
libstd-4e66027e5c9dd3e7.so:_ZN80_$LT$libc..unix..linux_like..linux..can_filter$u20$as$u20$core..clone..Clone$GT$5clone17hc344b22d6e29953aE
libstd-4e66027e5c9dd3e7.so:_ZN80_$LT$libc..unix..linux_like..linux..ff_trigger$u20$as$u20$core..clone..Clone$GT$5clone17ha9cd7fb10f5ac156E
libstd-4e66027e5c9dd3e7.so:_ZN80_$LT$libc..unix..linux_like..linux..genlmsghdr$u20$as$u20$core..clone..Clone$GT$5clone17h707c6158a20b5859E
libstd-4e66027e5c9dd3e7.so:_ZN80_$LT$libc..unix..linux_like..linux..gnu..aiocb$u20$as$u20$core..clone..Clone$GT$5clone17h8a41d643dcc0f24cE
libstd-4e66027e5c9dd3e7.so:_ZN80_$LT$libc..unix..linux_like..linux..gnu..statx$u20$as$u20$core..clone..Clone$GT$5clone17h6a16d3a80bdb143dE
libstd-4e66027e5c9dd3e7.so:_ZN80_$LT$libc..unix..linux_like..linux..gnu..timex$u20$as$u20$core..clone..Clone$GT$5clone17h12a2df094302381dE
libstd-4e66027e5c9dd3e7.so:_ZN80_$LT$libc..unix..linux_like..linux..gnu..utmpx$u20$as$u20$core..clone..Clone$GT$5clone17h19b65cc3bf3f33d6E
libstd-4e66027e5c9dd3e7.so:_ZN80_$LT$libc..unix..linux_like..linux..input_mask$u20$as$u20$core..clone..Clone$GT$5clone17haeb6f33825e36bacE
libstd-4e66027e5c9dd3e7.so:_ZN80_$LT$libc..unix..linux_like..linux..itimerspec$u20$as$u20$core..clone..Clone$GT$5clone17h05c9743115704674E
libstd-4e66027e5c9dd3e7.so:_ZN80_$LT$libc..unix..linux_like..linux..regmatch_t$u20$as$u20$core..clone..Clone$GT$5clone17hf2876ea35483a24eE
libstd-4e66027e5c9dd3e7.so:_ZN80_$LT$libc..unix..linux_like..linux..sock_fprog$u20$as$u20$core..clone..Clone$GT$5clone17hbe39beccedc2f983E
libstd-4e66027e5c9dd3e7.so:_ZN80_$LT$std..backtrace_rs..types..BytesOrWideString$u20$as$u20$core..fmt..Debug$GT$3fmt17h4ce1327f97ea0898E
libstd-4e66027e5c9dd3e7.so:_ZN80_$LT$std..path..Components$u20$as$u20$core..iter..traits..iterator..Iterator$GT$4next17h5b8eb4e7b01b0f9eE
libstd-4e66027e5c9dd3e7.so:_ZN80_$LT$std..process..Stdio$u20$as$u20$core..convert..From$LT$std..fs..File$GT$$GT$4from17hde941ab71adcc69bE
libstd-4e66027e5c9dd3e7.so:_ZN80_$LT$std..sys_common..thread_local_key..Key$u20$as$u20$core..ops..drop..Drop$GT$4drop17hd8b251ac2080eb83E
libstd-4e66027e5c9dd3e7.so:_ZN81_$LT$$RF$$u5b$u8$u5d$$u20$as$u20$alloc..ffi..c_str..CString..new..SpecNewImpl$GT$13spec_new_impl17h3af71641ab04ae75E
libstd-4e66027e5c9dd3e7.so:_ZN81_$LT$alloc..ffi..c_str..FromBytesWithNulErrorKind$u20$as$u20$core..fmt..Debug$GT$3fmt17h93415495bc660e1dE
libstd-4e66027e5c9dd3e7.so:_ZN81_$LT$alloc..string..Drain$u20$as$u20$core..convert..AsRef$LT$$u5b$u8$u5d$$GT$$GT$6as_ref17h55b24d122be06610E
libstd-4e66027e5c9dd3e7.so:_ZN81_$LT$libc..unix..linux_like..linux..canfd_frame$u20$as$u20$core..clone..Clone$GT$5clone17h753386d06c870b89E
libstd-4e66027e5c9dd3e7.so:_ZN81_$LT$libc..unix..linux_like..linux..ff_envelope$u20$as$u20$core..clone..Clone$GT$5clone17h0b0d9f43631391c5E
libstd-4e66027e5c9dd3e7.so:_ZN81_$LT$libc..unix..linux_like..linux..gnu..msghdr$u20$as$u20$core..clone..Clone$GT$5clone17h7f8a951762cb2230E
libstd-4e66027e5c9dd3e7.so:_ZN81_$LT$libc..unix..linux_like..linux..in6_pktinfo$u20$as$u20$core..clone..Clone$GT$5clone17h4a13344a312eb807E
libstd-4e66027e5c9dd3e7.so:_ZN81_$LT$libc..unix..linux_like..linux..input_event$u20$as$u20$core..clone..Clone$GT$5clone17h723082ea7d704e6bE
libstd-4e66027e5c9dd3e7.so:_ZN81_$LT$libc..unix..linux_like..linux..packet_mreq$u20$as$u20$core..clone..Clone$GT$5clone17h8e9263d34d46badeE
libstd-4e66027e5c9dd3e7.so:_ZN81_$LT$libc..unix..linux_like..linux..sock_filter$u20$as$u20$core..clone..Clone$GT$5clone17h46b5525f2a1af152E
libstd-4e66027e5c9dd3e7.so:_ZN81_$LT$libc..unix..linux_like..linux..sock_txtime$u20$as$u20$core..clone..Clone$GT$5clone17h46d1f6640b3b1015E
libstd-4e66027e5c9dd3e7.so:_ZN81_$LT$libc..unix..linux_like..linux..sockaddr_nl$u20$as$u20$core..clone..Clone$GT$5clone17h343b78e4b5fba3edE
libstd-4e66027e5c9dd3e7.so:_ZN81_$LT$libc..unix..linux_like..linux..sockaddr_vm$u20$as$u20$core..clone..Clone$GT$5clone17h7b0f0354a33db6d3E
libstd-4e66027e5c9dd3e7.so:_ZN81_$LT$miniz_oxide..deflate..buffer..LocalBuf$u20$as$u20$core..default..Default$GT$7default17h520f5243183671b3E
libstd-4e66027e5c9dd3e7.so:_ZN81_$LT$object..pe..ImageAlpha64RuntimeFunctionEntry$u20$as$u20$core..fmt..Debug$GT$3fmt17h9d567b1e542ed170E
libstd-4e66027e5c9dd3e7.so:_ZN81_$LT$object..read..pe..resource..ResourceNameOrId$u20$as$u20$core..fmt..Debug$GT$3fmt17h2fd05ccc25224a5dE
libstd-4e66027e5c9dd3e7.so:_ZN81_$LT$std..io..buffered..bufwriter..WriterPanicked$u20$as$u20$core..fmt..Debug$GT$3fmt17h42467408048152eaE
libstd-4e66027e5c9dd3e7.so:_ZN81_$LT$std..sys..unix..stack_overflow..Handler$u20$as$u20$core..ops..drop..Drop$GT$4drop17hdd9bf8cc49ee1413E
libstd-4e66027e5c9dd3e7.so:_ZN81_$LT$std_detect..detect..cache..Initializer$u20$as$u20$core..default..Default$GT$7default17h7167cc23ae89b753E
libstd-4e66027e5c9dd3e7.so:_ZN82_$LT$alloc..collections..btree..set_val..SetValZST$u20$as$u20$core..fmt..Debug$GT$3fmt17hc1c06435f5c76944E
libstd-4e66027e5c9dd3e7.so:_ZN82_$LT$core..char..EscapeDebug$u20$as$u20$core..iter..traits..iterator..Iterator$GT$4next17h8af4f9d31d86a16aE
libstd-4e66027e5c9dd3e7.so:_ZN82_$LT$core..char..EscapeDebug$u20$as$u20$core..iter..traits..iterator..Iterator$GT$9size_hint17h9454d915841b09efE
libstd-4e66027e5c9dd3e7.so:_ZN82_$LT$core..char..ToLowercase$u20$as$u20$core..iter..traits..iterator..Iterator$GT$4next17hc3da03f67c9f9ba4E
libstd-4e66027e5c9dd3e7.so:_ZN82_$LT$core..char..ToLowercase$u20$as$u20$core..iter..traits..iterator..Iterator$GT$9size_hint17h5f19791e683eb8deE
libstd-4e66027e5c9dd3e7.so:_ZN82_$LT$core..char..ToUppercase$u20$as$u20$core..iter..traits..iterator..Iterator$GT$4next17ha0ed606db1e0a338E
libstd-4e66027e5c9dd3e7.so:_ZN82_$LT$core..char..ToUppercase$u20$as$u20$core..iter..traits..iterator..Iterator$GT$9size_hint17ha490ab453c1faa85E
libstd-4e66027e5c9dd3e7.so:_ZN82_$LT$dyn$u20$core..any..Any$u2b$core..marker..Send$u20$as$u20$core..fmt..Debug$GT$3fmt17hd254331468e01f3fE
libstd-4e66027e5c9dd3e7.so:_ZN82_$LT$libc..unix..linux_like..linux..arpd_request$u20$as$u20$core..clone..Clone$GT$5clone17h4643c77e1004148bE
libstd-4e66027e5c9dd3e7.so:_ZN82_$LT$libc..unix..linux_like..linux..dl_phdr_info$u20$as$u20$core..clone..Clone$GT$5clone17h3831e8023622ccf0E
libstd-4e66027e5c9dd3e7.so:_ZN82_$LT$libc..unix..linux_like..linux..gnu..cmsghdr$u20$as$u20$core..clone..Clone$GT$5clone17hfe04d6b3280510f9E
libstd-4e66027e5c9dd3e7.so:_ZN82_$LT$libc..unix..linux_like..linux..gnu..regex_t$u20$as$u20$core..clone..Clone$GT$5clone17h4835ece39798a2fcE
libstd-4e66027e5c9dd3e7.so:_ZN82_$LT$libc..unix..linux_like..linux..gnu..rtentry$u20$as$u20$core..clone..Clone$GT$5clone17ha8dab32b75369ec6E
libstd-4e66027e5c9dd3e7.so:_ZN82_$LT$libc..unix..linux_like..linux..gnu..seminfo$u20$as$u20$core..clone..Clone$GT$5clone17h7482916cc9a486baE
libstd-4e66027e5c9dd3e7.so:_ZN82_$LT$libc..unix..linux_like..linux..gnu..termios$u20$as$u20$core..clone..Clone$GT$5clone17h992229dcf75090eaE
libstd-4e66027e5c9dd3e7.so:_ZN82_$LT$libc..unix..linux_like..linux..if_nameindex$u20$as$u20$core..clone..Clone$GT$5clone17hd9027098b4fca338E
libstd-4e66027e5c9dd3e7.so:_ZN82_$LT$libc..unix..linux_like..linux..j1939_filter$u20$as$u20$core..clone..Clone$GT$5clone17h7e7309822a487df2E
libstd-4e66027e5c9dd3e7.so:_ZN82_$LT$libc..unix..linux_like..linux..seccomp_data$u20$as$u20$core..clone..Clone$GT$5clone17hf391c02f27a3c7a6E
libstd-4e66027e5c9dd3e7.so:_ZN82_$LT$libc..unix..linux_like..linux..sockaddr_alg$u20$as$u20$core..clone..Clone$GT$5clone17hf039e40f0d0245fcE
libstd-4e66027e5c9dd3e7.so:_ZN82_$LT$libc..unix..linux_like..linux..sockaddr_can$u20$as$u20$core..clone..Clone$GT$5clone17h50cee63d2daea0aeE
libstd-4e66027e5c9dd3e7.so:_ZN82_$LT$libc..unix..linux_like..linux..uinput_setup$u20$as$u20$core..clone..Clone$GT$5clone17h2e8edfd12f60e473E
libstd-4e66027e5c9dd3e7.so:_ZN82_$LT$object..read..pe..resource..ResourceDirectory$u20$as$u20$core..fmt..Debug$GT$3fmt17hcfa4eca2ce693642E
libstd-4e66027e5c9dd3e7.so:_ZN82_$LT$std..net..tcp..Incoming$u20$as$u20$core..iter..traits..iterator..Iterator$GT$4next17hd718fc3f8ed7347eE
libstd-4e66027e5c9dd3e7.so:_ZN82_$LT$std..net..tcp..TcpStream$u20$as$u20$std..sys..unix..kernel_copy..CopyRead$GT$10properties17h888d90d1aa45e9a9E
libstd-4e66027e5c9dd3e7.so:_ZN82_$LT$std..os..unix..net..ancillary..AncillaryError$u20$as$u20$core..fmt..Debug$GT$3fmt17h0563cf2bd1fa897eE
libstd-4e66027e5c9dd3e7.so:_ZN82_$LT$std..process..ExitStatus$u20$as$u20$std..os..unix..process..ExitStatusExt$GT$11core_dumped17hf5ba37d968f859ecE
libstd-4e66027e5c9dd3e7.so:_ZN82_$LT$std..process..ExitStatus$u20$as$u20$std..os..unix..process..ExitStatusExt$GT$14stopped_signal17h617b835423fa8160E
libstd-4e66027e5c9dd3e7.so:_ZN82_$LT$std..process..ExitStatus$u20$as$u20$std..os..unix..process..ExitStatusExt$GT$6signal17h480325b81142d5e1E
libstd-4e66027e5c9dd3e7.so:_ZN82_$LT$std..process..ExitStatus$u20$as$u20$std..os..unix..process..ExitStatusExt$GT$8from_raw17h11cd16f6d275b00dE
libstd-4e66027e5c9dd3e7.so:_ZN82_$LT$std..process..ExitStatus$u20$as$u20$std..os..unix..process..ExitStatusExt$GT$8into_raw17h2b566370f635b18eE
libstd-4e66027e5c9dd3e7.so:_ZN82_$LT$std..process..ExitStatus$u20$as$u20$std..os..unix..process..ExitStatusExt$GT$9continued17h35248586fb37a9c5E
libstd-4e66027e5c9dd3e7.so:_ZN82_$LT$std..sys..unix..os..Env$u20$as$u20$core..iter..traits..iterator..Iterator$GT$4next17hda79afd16e3d17acE
libstd-4e66027e5c9dd3e7.so:_ZN82_$LT$std..sys..unix..os..Env$u20$as$u20$core..iter..traits..iterator..Iterator$GT$9size_hint17h6bf8aa3f9cd55fb1E
libstd-4e66027e5c9dd3e7.so:_ZN83_$LT$libc..unix..linux_like..linux..gnu..glob64_t$u20$as$u20$core..clone..Clone$GT$5clone17h69d8bff4b3d46dc8E
libstd-4e66027e5c9dd3e7.so:_ZN83_$LT$libc..unix..linux_like..linux..gnu..mallinfo$u20$as$u20$core..clone..Clone$GT$5clone17hd9d22eb7131a58faE
libstd-4e66027e5c9dd3e7.so:_ZN83_$LT$libc..unix..linux_like..linux..inotify_event$u20$as$u20$core..clone..Clone$GT$5clone17h5482b56a692333c7E
libstd-4e66027e5c9dd3e7.so:_ZN83_$LT$libc..unix..linux_like..linux..input_absinfo$u20$as$u20$core..clone..Clone$GT$5clone17h9df5b9325ff9f260E
libstd-4e66027e5c9dd3e7.so:_ZN83_$LT$memchr..memmem..FindIter$u20$as$u20$core..iter..traits..iterator..Iterator$GT$4next17h39d7fa5c620bad9cE
libstd-4e66027e5c9dd3e7.so:_ZN83_$LT$miniz_oxide..deflate..core..HuffmanOxide$u20$as$u20$core..default..Default$GT$7default17h1e1b99877736e7a3E
libstd-4e66027e5c9dd3e7.so:_ZN83_$LT$std..io..buffered..bufwriter..WriterPanicked$u20$as$u20$core..error..Error$GT$11description17hd7314796a5858d16E
libstd-4e66027e5c9dd3e7.so:_ZN83_$LT$std..io..buffered..bufwriter..WriterPanicked$u20$as$u20$core..fmt..Display$GT$3fmt17hadd2f860bff0af71E
libstd-4e66027e5c9dd3e7.so:_ZN83_$LT$std..io..stdio..StdinLock$u20$as$u20$std..sys..unix..kernel_copy..CopyRead$GT$10properties17hbae3e52f7578ffc6E
libstd-4e66027e5c9dd3e7.so:_ZN83_$LT$std..net..tcp..TcpStream$u20$as$u20$std..sys..unix..kernel_copy..CopyWrite$GT$10properties17h184a11d1e2265db8E
libstd-4e66027e5c9dd3e7.so:_ZN83_$LT$std..os..unix..net..ancillary..SocketAncillary$u20$as$u20$core..fmt..Debug$GT$3fmt17h77a9b639243b9b3cE
libstd-4e66027e5c9dd3e7.so:_ZN83_$LT$std..process..ChildStderr$u20$as$u20$std..sys..unix..kernel_copy..CopyRead$GT$10properties17h0b6a3c8db797a88bE
libstd-4e66027e5c9dd3e7.so:_ZN83_$LT$std..process..ChildStdin$u20$as$u20$std..sys..unix..kernel_copy..CopyWrite$GT$10properties17hcdf9afdaa337f81cE
libstd-4e66027e5c9dd3e7.so:_ZN83_$LT$std..process..ChildStdout$u20$as$u20$std..sys..unix..kernel_copy..CopyRead$GT$10properties17h4dc65f80cd949fb2E
libstd-4e66027e5c9dd3e7.so:_ZN83_$LT$std..sys..unix..process..process_common..Stdio$u20$as$u20$core..fmt..Debug$GT$3fmt17h9e5fc51863667b9bE
libstd-4e66027e5c9dd3e7.so:_ZN84_$LT$core..char..EscapeDefault$u20$as$u20$core..iter..traits..iterator..Iterator$GT$3nth17h52bda28c1bf64dc9E
libstd-4e66027e5c9dd3e7.so:_ZN84_$LT$core..char..EscapeDefault$u20$as$u20$core..iter..traits..iterator..Iterator$GT$4last17h28620a4e37c31511E
libstd-4e66027e5c9dd3e7.so:_ZN84_$LT$core..char..EscapeDefault$u20$as$u20$core..iter..traits..iterator..Iterator$GT$4next17haef43990815ce7dcE
libstd-4e66027e5c9dd3e7.so:_ZN84_$LT$core..char..EscapeUnicode$u20$as$u20$core..iter..traits..iterator..Iterator$GT$4last17h4613f25fa5ddfa6cE
libstd-4e66027e5c9dd3e7.so:_ZN84_$LT$core..char..EscapeUnicode$u20$as$u20$core..iter..traits..iterator..Iterator$GT$4next17h3220a4f2e42aa95eE
libstd-4e66027e5c9dd3e7.so:_ZN84_$LT$core..panicking..assert_matches_failed..Pattern$u20$as$u20$core..fmt..Debug$GT$3fmt17h7b3ce02b268633ddE
libstd-4e66027e5c9dd3e7.so:_ZN84_$LT$libc..unix..linux_like..linux..ff_ramp_effect$u20$as$u20$core..clone..Clone$GT$5clone17hb6ff90393c75de2cE
libstd-4e66027e5c9dd3e7.so:_ZN84_$LT$libc..unix..linux_like..linux..gnu..__timeval$u20$as$u20$core..clone..Clone$GT$5clone17h086980faf46207d9E
libstd-4e66027e5c9dd3e7.so:_ZN84_$LT$libc..unix..linux_like..linux..gnu..b32..stat$u20$as$u20$core..clone..Clone$GT$5clone17h5688e0071aff3ff9E
libstd-4e66027e5c9dd3e7.so:_ZN84_$LT$libc..unix..linux_like..linux..gnu..mallinfo2$u20$as$u20$core..clone..Clone$GT$5clone17hfcfe8ed1fe7a9a48E
libstd-4e66027e5c9dd3e7.so:_ZN84_$LT$libc..unix..linux_like..linux..pthread_cond_t$u20$as$u20$core..clone..Clone$GT$5clone17h27531963f23381adE
libstd-4e66027e5c9dd3e7.so:_ZN84_$LT$miniz_oxide..deflate..buffer..HashBuffers$u20$as$u20$core..default..Default$GT$7default17hc07576722448ed9bE
libstd-4e66027e5c9dd3e7.so:_ZN84_$LT$miniz_oxide..deflate..core..CompressionStrategy$u20$as$u20$core..fmt..Debug$GT$3fmt17he13f84777e2d4070E
libstd-4e66027e5c9dd3e7.so:_ZN84_$LT$std..env..Args$u20$as$u20$core..iter..traits..exact_size..ExactSizeIterator$GT$3len17he25a7139abf0ddddE
libstd-4e66027e5c9dd3e7.so:_ZN84_$LT$std..env..Args$u20$as$u20$core..iter..traits..exact_size..ExactSizeIterator$GT$8is_empty17hce097c6e41aa99b4E
libstd-4e66027e5c9dd3e7.so:_ZN84_$LT$std..process..CommandArgs$u20$as$u20$core..iter..traits..iterator..Iterator$GT$4next17h1c7aa8a8dc67d896E
libstd-4e66027e5c9dd3e7.so:_ZN84_$LT$std..process..CommandArgs$u20$as$u20$core..iter..traits..iterator..Iterator$GT$9size_hint17h9d07e9ed622e45f7E
libstd-4e66027e5c9dd3e7.so:_ZN85_$LT$alloc..string..String..retain..SetLenOnDrop$u20$as$u20$core..ops..drop..Drop$GT$4drop17hcf635b6663ebeeacE
libstd-4e66027e5c9dd3e7.so:_ZN85_$LT$core..ascii..EscapeDefault$u20$as$u20$core..iter..traits..iterator..Iterator$GT$4last17h7f9e0cd65363e24dE
libstd-4e66027e5c9dd3e7.so:_ZN85_$LT$core..ascii..EscapeDefault$u20$as$u20$core..iter..traits..iterator..Iterator$GT$9size_hint17h321e3c1598f51ea1E
libstd-4e66027e5c9dd3e7.so:_ZN85_$LT$libc..unix..linux_like..linux..gnu..Elf32_Chdr$u20$as$u20$core..clone..Clone$GT$5clone17h557a4bffad2514a4E
libstd-4e66027e5c9dd3e7.so:_ZN85_$LT$libc..unix..linux_like..linux..gnu..Elf64_Chdr$u20$as$u20$core..clone..Clone$GT$5clone17hca2d8675f1631784E
libstd-4e66027e5c9dd3e7.so:_ZN85_$LT$libc..unix..linux_like..linux..gnu..nl_pktinfo$u20$as$u20$core..clone..Clone$GT$5clone17h14463ba965670291E
libstd-4e66027e5c9dd3e7.so:_ZN85_$LT$libc..unix..linux_like..linux..gnu..ntptimeval$u20$as$u20$core..clone..Clone$GT$5clone17he98ca6263a784e18E
libstd-4e66027e5c9dd3e7.so:_ZN85_$LT$libc..unix..linux_like..linux..pthread_mutex_t$u20$as$u20$core..clone..Clone$GT$5clone17hf82c499280844888E
libstd-4e66027e5c9dd3e7.so:_ZN85_$LT$libc..unix..linux_like..linux..uinput_ff_erase$u20$as$u20$core..clone..Clone$GT$5clone17hd591d72a20d8fbf5E
libstd-4e66027e5c9dd3e7.so:_ZN85_$LT$libc..unix..linux_like..linux..uinput_user_dev$u20$as$u20$core..clone..Clone$GT$5clone17h62fa2dd081183d58E
libstd-4e66027e5c9dd3e7.so:_ZN85_$LT$miniz_oxide..inflate..stream..InflateState$u20$as$u20$core..default..Default$GT$7default17ha10c2194e4a3f366E
libstd-4e66027e5c9dd3e7.so:_ZN85_$LT$object..pe..ImageEpilogueDynamicRelocationHeader$u20$as$u20$core..fmt..Debug$GT$3fmt17h3af01fce1fd058b3E
libstd-4e66027e5c9dd3e7.so:_ZN85_$LT$object..pe..ImagePrologueDynamicRelocationHeader$u20$as$u20$core..fmt..Debug$GT$3fmt17hb5476c94598f6d74E
libstd-4e66027e5c9dd3e7.so:_ZN85_$LT$object..read..pe..relocation..RelocationIterator$u20$as$u20$core..fmt..Debug$GT$3fmt17h0c47dc9d330d09dfE
libstd-4e66027e5c9dd3e7.so:_ZN85_$LT$std..backtrace_rs..backtrace..libunwind..Frame$u20$as$u20$core..clone..Clone$GT$5clone17hd0ca5318974ff501E
libstd-4e66027e5c9dd3e7.so:_ZN85_$LT$std..backtrace_rs..print..BacktraceFrameFmt$u20$as$u20$core..ops..drop..Drop$GT$4drop17hf194747dca1382d0E
libstd-4e66027e5c9dd3e7.so:_ZN85_$LT$std..io..stdio..StderrLock$u20$as$u20$std..sys..unix..kernel_copy..CopyWrite$GT$10properties17h94d3b9cf73ecd90aE
libstd-4e66027e5c9dd3e7.so:_ZN85_$LT$std..io..stdio..StdoutLock$u20$as$u20$std..sys..unix..kernel_copy..CopyWrite$GT$10properties17hd49dc8d2d9cbd787E
libstd-4e66027e5c9dd3e7.so:_ZN85_$LT$std..sys..unix..args..Args$u20$as$u20$core..iter..traits..iterator..Iterator$GT$4next17h972b8fec05763d79E
libstd-4e66027e5c9dd3e7.so:_ZN85_$LT$std..sys..unix..args..Args$u20$as$u20$core..iter..traits..iterator..Iterator$GT$9size_hint17h34727ccefae55769E
libstd-4e66027e5c9dd3e7.so:_ZN85_$LT$std..sys..unix..process..process_common..Command$u20$as$u20$core..fmt..Debug$GT$3fmt17h2171e7ed32090cceE
libstd-4e66027e5c9dd3e7.so:_ZN86_$LT$$RF$std..net..tcp..TcpStream$u20$as$u20$std..sys..unix..kernel_copy..CopyRead$GT$10properties17h7e3d26344c5e40a2E
libstd-4e66027e5c9dd3e7.so:_ZN86_$LT$core..char..CaseMappingIter$u20$as$u20$core..iter..traits..iterator..Iterator$GT$4next17hcc4bcd69a3dee6a5E
libstd-4e66027e5c9dd3e7.so:_ZN86_$LT$core..char..CaseMappingIter$u20$as$u20$core..iter..traits..iterator..Iterator$GT$9size_hint17h7c3d0af223cda023E
libstd-4e66027e5c9dd3e7.so:_ZN86_$LT$core..num..error..TryFromIntError$u20$as$u20$core..convert..From$LT$$u21$$GT$$GT$4from17h71265f97d1eacb2bE
libstd-4e66027e5c9dd3e7.so:_ZN86_$LT$libc..unix..linux_like..linux..ff_rumble_effect$u20$as$u20$core..clone..Clone$GT$5clone17he73a6e1b7774fbffE
libstd-4e66027e5c9dd3e7.so:_ZN86_$LT$libc..unix..linux_like..linux..file_clone_range$u20$as$u20$core..clone..Clone$GT$5clone17h28b08b0131046a93E
libstd-4e66027e5c9dd3e7.so:_ZN86_$LT$libc..unix..linux_like..linux..gnu..nl_mmap_hdr$u20$as$u20$core..clone..Clone$GT$5clone17h777a40fa1b541e66E
libstd-4e66027e5c9dd3e7.so:_ZN86_$LT$libc..unix..linux_like..linux..gnu..nl_mmap_req$u20$as$u20$core..clone..Clone$GT$5clone17h9e8e37b933f1f06bE
libstd-4e66027e5c9dd3e7.so:_ZN86_$LT$libc..unix..linux_like..linux..pthread_rwlock_t$u20$as$u20$core..clone..Clone$GT$5clone17ha2aa450c9c90946bE
libstd-4e66027e5c9dd3e7.so:_ZN86_$LT$libc..unix..linux_like..linux..signalfd_siginfo$u20$as$u20$core..clone..Clone$GT$5clone17h3171c6783f3d3438E
libstd-4e66027e5c9dd3e7.so:_ZN86_$LT$libc..unix..linux_like..linux..uinput_abs_setup$u20$as$u20$core..clone..Clone$GT$5clone17h181b976c64c7d8aaE
libstd-4e66027e5c9dd3e7.so:_ZN86_$LT$libc..unix..linux_like..linux..uinput_ff_upload$u20$as$u20$core..clone..Clone$GT$5clone17h246a7d1a21d03ef2E
libstd-4e66027e5c9dd3e7.so:_ZN86_$LT$memchr..memmem..FindRevIter$u20$as$u20$core..iter..traits..iterator..Iterator$GT$4next17ha06fdb9a87d35b29E
libstd-4e66027e5c9dd3e7.so:_ZN86_$LT$object..read..elf..relocation..RelocationSections$u20$as$u20$core..fmt..Debug$GT$3fmt17h6e178bdf5d562178E
libstd-4e66027e5c9dd3e7.so:_ZN86_$LT$object..read..pe..data_directory..DataDirectories$u20$as$u20$core..fmt..Debug$GT$3fmt17h170368c8815e0344E
libstd-4e66027e5c9dd3e7.so:_ZN86_$LT$object..read..traits..NoDynamicRelocationIterator$u20$as$u20$core..fmt..Debug$GT$3fmt17h7c66435de9c435cdE
libstd-4e66027e5c9dd3e7.so:_ZN86_$LT$std..env..ArgsOs$u20$as$u20$core..iter..traits..exact_size..ExactSizeIterator$GT$3len17h7e625ef5528b515aE
libstd-4e66027e5c9dd3e7.so:_ZN86_$LT$std..env..ArgsOs$u20$as$u20$core..iter..traits..exact_size..ExactSizeIterator$GT$8is_empty17ha5961dc6545a0274E
libstd-4e66027e5c9dd3e7.so:_ZN86_$LT$std..net..tcp..IntoIncoming$u20$as$u20$core..iter..traits..iterator..Iterator$GT$4next17h11fdb7c669d157b8E
libstd-4e66027e5c9dd3e7.so:_ZN86_$LT$std..sys..unix..fs..ReadDir$u20$as$u20$core..iter..traits..iterator..Iterator$GT$4next17h5bef98d417520bceE
libstd-4e66027e5c9dd3e7.so:_ZN86_$LT$std..sys..unix..process..process_common..ExitCode$u20$as$u20$core..fmt..Debug$GT$3fmt17hb6bc163823e8c22eE
libstd-4e66027e5c9dd3e7.so:_ZN87_$LT$$RF$std..net..tcp..TcpStream$u20$as$u20$std..sys..unix..kernel_copy..CopyWrite$GT$10properties17ha6f10d4db1c7000eE
libstd-4e66027e5c9dd3e7.so:_ZN87_$LT$core..str..lossy..Utf8Chunks$u20$as$u20$core..iter..traits..iterator..Iterator$GT$4next17hb8c321fc5e35160dE
libstd-4e66027e5c9dd3e7.so:_ZN87_$LT$libc..unix..linux_like..linux..fanotify_response$u20$as$u20$core..clone..Clone$GT$5clone17he46f627a1f310d4dE
libstd-4e66027e5c9dd3e7.so:_ZN87_$LT$libc..unix..linux_like..linux..gnu..align..sem_t$u20$as$u20$core..clone..Clone$GT$5clone17he6085a87765cf612E
libstd-4e66027e5c9dd3e7.so:_ZN87_$LT$libc..unix..linux_like..linux..gnu..b32..statvfs$u20$as$u20$core..clone..Clone$GT$5clone17h099391929868e672E
libstd-4e66027e5c9dd3e7.so:_ZN87_$LT$libc..unix..linux_like..linux..gnu..b32..sysinfo$u20$as$u20$core..clone..Clone$GT$5clone17h4365c23ef2cb4018E
libstd-4e66027e5c9dd3e7.so:_ZN87_$LT$libc..unix..linux_like..linux..posix_spawnattr_t$u20$as$u20$core..clone..Clone$GT$5clone17hc43bd48aea05c468E
libstd-4e66027e5c9dd3e7.so:_ZN87_$LT$libc..unix..linux_like..linux..sock_extended_err$u20$as$u20$core..clone..Clone$GT$5clone17h871584931497e043E
libstd-4e66027e5c9dd3e7.so:_ZN87_$LT$object..read..pe..import..ImportDescriptorIterator$u20$as$u20$core..fmt..Debug$GT$3fmt17hf8633ebb41aa4feeE
libstd-4e66027e5c9dd3e7.so:_ZN87_$LT$object..read..pe..resource..ResourceDirectoryTable$u20$as$u20$core..fmt..Debug$GT$3fmt17h5f478504813aa8f6E
libstd-4e66027e5c9dd3e7.so:_ZN87_$LT$std..net..tcp..TcpStream$u20$as$u20$std..os..net..linux_ext..tcp..TcpStreamExt$GT$12set_quickack17hbc48ba14ae4e3541E
libstd-4e66027e5c9dd3e7.so:_ZN87_$LT$std..net..tcp..TcpStream$u20$as$u20$std..os..net..linux_ext..tcp..TcpStreamExt$GT$8quickack17h68c211723fddc3ecE
libstd-4e66027e5c9dd3e7.so:_ZN87_$LT$std..process..ExitStatusError$u20$as$u20$std..os..unix..process..ExitStatusExt$GT$11core_dumped17h967cb045e3e667f0E
libstd-4e66027e5c9dd3e7.so:_ZN87_$LT$std..process..ExitStatusError$u20$as$u20$std..os..unix..process..ExitStatusExt$GT$14stopped_signal17h26ed3a813c35ab52E
libstd-4e66027e5c9dd3e7.so:_ZN87_$LT$std..process..ExitStatusError$u20$as$u20$std..os..unix..process..ExitStatusExt$GT$6signal17h6406689c756a8c5bE
libstd-4e66027e5c9dd3e7.so:_ZN87_$LT$std..process..ExitStatusError$u20$as$u20$std..os..unix..process..ExitStatusExt$GT$8from_raw17h0ed38a9bcb8a5cc5E
libstd-4e66027e5c9dd3e7.so:_ZN87_$LT$std..process..ExitStatusError$u20$as$u20$std..os..unix..process..ExitStatusExt$GT$8into_raw17h1606c8c0b190812fE
libstd-4e66027e5c9dd3e7.so:_ZN87_$LT$std..process..ExitStatusError$u20$as$u20$std..os..unix..process..ExitStatusExt$GT$9continued17h55db82cff784ac92E
libstd-4e66027e5c9dd3e7.so:_ZN87_$LT$std..sys..unix..process..process_inner..ExitStatus$u20$as$u20$core..fmt..Debug$GT$3fmt17h8aa89f26d9fa3402E
libstd-4e66027e5c9dd3e7.so:_ZN87_$LT$std..sys_common..once..futex..CompletionGuard$u20$as$u20$core..ops..drop..Drop$GT$4drop17h7469b76520b4c9baE
libstd-4e66027e5c9dd3e7.so:_ZN88_$LT$libc..unix..linux_like..linux..ff_constant_effect$u20$as$u20$core..clone..Clone$GT$5clone17heaa88584cd7132c8E
libstd-4e66027e5c9dd3e7.so:_ZN88_$LT$libc..unix..linux_like..linux..ff_periodic_effect$u20$as$u20$core..clone..Clone$GT$5clone17hec9db61e2822b857E
libstd-4e66027e5c9dd3e7.so:_ZN88_$LT$libc..unix..linux_like..linux..gnu..__exit_status$u20$as$u20$core..clone..Clone$GT$5clone17h97e98fbff5f78d00E
libstd-4e66027e5c9dd3e7.so:_ZN88_$LT$libc..unix..linux_like..linux..gnu..b32..semid_ds$u20$as$u20$core..clone..Clone$GT$5clone17hab3371768ff7d800E
libstd-4e66027e5c9dd3e7.so:_ZN88_$LT$libc..unix..linux_like..linux..gnu..b32..sigset_t$u20$as$u20$core..clone..Clone$GT$5clone17h87a60bf038da18b8E
libstd-4e66027e5c9dd3e7.so:_ZN88_$LT$libc..unix..linux_like..linux..input_keymap_entry$u20$as$u20$core..clone..Clone$GT$5clone17hfecc41e2bda43e0cE
libstd-4e66027e5c9dd3e7.so:_ZN88_$LT$libc..unix..linux_like..linux..pthread_condattr_t$u20$as$u20$core..clone..Clone$GT$5clone17hacd46d869080fccaE
libstd-4e66027e5c9dd3e7.so:_ZN88_$LT$std..env..Args$u20$as$u20$core..iter..traits..double_ended..DoubleEndedIterator$GT$9next_back17h1daec9d95d038c5bE
libstd-4e66027e5c9dd3e7.so:_ZN88_$LT$std..time..Instant$u20$as$u20$core..ops..arith..Add$LT$core..time..Duration$GT$$GT$3add17h14ecb85d1d3c310aE
libstd-4e66027e5c9dd3e7.so:_ZN88_$LT$std..time..Instant$u20$as$u20$core..ops..arith..Sub$LT$core..time..Duration$GT$$GT$3sub17hd7c617ab366d9f2cE
libstd-4e66027e5c9dd3e7.so:_ZN89_$LT$$RF$mut$u20$$u5b$u8$u5d$$u20$as$u20$alloc..ffi..c_str..CString..new..SpecNewImpl$GT$13spec_new_impl17h80feb20222fc7da5E
libstd-4e66027e5c9dd3e7.so:_ZN89_$LT$libc..unix..linux_like..linux..ff_condition_effect$u20$as$u20$core..clone..Clone$GT$5clone17h7fbb5a3d49b53e55E
libstd-4e66027e5c9dd3e7.so:_ZN89_$LT$libc..unix..linux_like..linux..gnu..b32..x86..user$u20$as$u20$core..clone..Clone$GT$5clone17h07dabff27f900e56E
libstd-4e66027e5c9dd3e7.so:_ZN89_$LT$libc..unix..linux_like..linux..pthread_mutexattr_t$u20$as$u20$core..clone..Clone$GT$5clone17h4f9af691310a21e0E
libstd-4e66027e5c9dd3e7.so:_ZN89_$LT$object..pe..ImageThunkData32$u20$as$u20$object..read..pe..import..ImageThunkData$GT$10is_ordinal17h426553e80aa2d4c6E
libstd-4e66027e5c9dd3e7.so:_ZN89_$LT$object..pe..ImageThunkData32$u20$as$u20$object..read..pe..import..ImageThunkData$GT$3raw17h846b46d1643c554cE
libstd-4e66027e5c9dd3e7.so:_ZN89_$LT$object..pe..ImageThunkData32$u20$as$u20$object..read..pe..import..ImageThunkData$GT$7address17h9ad9175b7c6f846aE
libstd-4e66027e5c9dd3e7.so:_ZN89_$LT$object..pe..ImageThunkData32$u20$as$u20$object..read..pe..import..ImageThunkData$GT$7ordinal17he52d4d62a68b4434E
libstd-4e66027e5c9dd3e7.so:_ZN89_$LT$object..pe..ImageThunkData64$u20$as$u20$object..read..pe..import..ImageThunkData$GT$10is_ordinal17h80bfe1acc1818c50E
libstd-4e66027e5c9dd3e7.so:_ZN89_$LT$object..pe..ImageThunkData64$u20$as$u20$object..read..pe..import..ImageThunkData$GT$3raw17hbec10cdfd3458762E
libstd-4e66027e5c9dd3e7.so:_ZN89_$LT$object..pe..ImageThunkData64$u20$as$u20$object..read..pe..import..ImageThunkData$GT$7address17h94d22438a33097feE
libstd-4e66027e5c9dd3e7.so:_ZN89_$LT$object..pe..ImageThunkData64$u20$as$u20$object..read..pe..import..ImageThunkData$GT$7ordinal17h6713141c5d8d3494E
libstd-4e66027e5c9dd3e7.so:_ZN89_$LT$std..backtrace_rs..symbolize..gimli..mmap..Mmap$u20$as$u20$core..ops..drop..Drop$GT$4drop17h6bae4c1d36e3ce28E
libstd-4e66027e5c9dd3e7.so:_ZN89_$LT$std..sys..unix..os..SplitPaths$u20$as$u20$core..iter..traits..iterator..Iterator$GT$4next17h6ec1f4b353383712E
libstd-4e66027e5c9dd3e7.so:_ZN89_$LT$std..sys..unix..os..SplitPaths$u20$as$u20$core..iter..traits..iterator..Iterator$GT$9size_hint17h8e66c17b4cfcb544E
libstd-4e66027e5c9dd3e7.so:_ZN89_$LT$std..sys..unix..process..process_common..CommandArgs$u20$as$u20$core..fmt..Debug$GT$3fmt17h8c13a0be65f1ab6eE
libstd-4e66027e5c9dd3e7.so:_ZN89_$LT$std..sys..unix..process..process_common..ProgramKind$u20$as$u20$core..fmt..Debug$GT$3fmt17h916ee810ef5b806aE
libstd-4e66027e5c9dd3e7.so:_ZN89_$LT$std..sys..unix..process..process_inner..ExitStatus$u20$as$u20$core..fmt..Display$GT$3fmt17h5636ebf2ce235261E
libstd-4e66027e5c9dd3e7.so:_ZN90_$LT$libc..unix..linux_like..linux..gnu..b32..x86..flock$u20$as$u20$core..clone..Clone$GT$5clone17h8f5b5f4cb1672cb7E
libstd-4e66027e5c9dd3e7.so:_ZN90_$LT$libc..unix..linux_like..linux..gnu..statx_timestamp$u20$as$u20$core..clone..Clone$GT$5clone17h352fb3aee0e947f8E
libstd-4e66027e5c9dd3e7.so:_ZN90_$LT$libc..unix..linux_like..linux..pthread_rwlockattr_t$u20$as$u20$core..clone..Clone$GT$5clone17h1ea88048fcabd6b1E
libstd-4e66027e5c9dd3e7.so:_ZN90_$LT$object..read..pe..relocation..RelocationBlockIterator$u20$as$u20$core..fmt..Debug$GT$3fmt17h18362853429c92e0E
libstd-4e66027e5c9dd3e7.so:_ZN90_$LT$std..env..ArgsOs$u20$as$u20$core..iter..traits..double_ended..DoubleEndedIterator$GT$9next_back17h88b8ea247fa2ae8fE
libstd-4e66027e5c9dd3e7.so:_ZN90_$LT$std..fs..File$u20$as$u20$std..sys_common..AsInner$LT$std..sys..unix..fs..File$GT$$GT$8as_inner17hc80c37708ee9204dE
libstd-4e66027e5c9dd3e7.so:_ZN90_$LT$std..net..socket_addr..SocketAddr$u20$as$u20$std..net..socket_addr..ToSocketAddrs$GT$15to_socket_addrs17hd92064af72ec3c0bE
libstd-4e66027e5c9dd3e7.so:_ZN90_$LT$std..panicking..begin_panic_handler..PanicPayload$u20$as$u20$core..panic..BoxMeUp$GT$3get17hfc927620ea103508E
libstd-4e66027e5c9dd3e7.so:_ZN90_$LT$std..panicking..begin_panic_handler..PanicPayload$u20$as$u20$core..panic..BoxMeUp$GT$8take_box17h8b03eee7eb5523e9E
libstd-4e66027e5c9dd3e7.so:_ZN90_$LT$std..sys_common..net..LookupHost$u20$as$u20$core..convert..TryFrom$LT$$RF$str$GT$$GT$8try_from17h57a6cfc846a86bb6E
libstd-4e66027e5c9dd3e7.so:_ZN91_$LT$addr2line..LocationRangeUnitIter$u20$as$u20$core..iter..traits..iterator..Iterator$GT$4next17hdd080f2b2ec2ef4eE
libstd-4e66027e5c9dd3e7.so:_ZN91_$LT$libc..unix..linux_like..linux..gnu..b32..x86..stat64$u20$as$u20$core..clone..Clone$GT$5clone17ha35632cc0aa6d6d8E
libstd-4e66027e5c9dd3e7.so:_ZN91_$LT$libc..unix..linux_like..linux..gnu..b32..x86..statfs$u20$as$u20$core..clone..Clone$GT$5clone17hec1fdc48261edcb0E
libstd-4e66027e5c9dd3e7.so:_ZN91_$LT$libc..unix..linux_like..linux..gnu..sifields_sigchld$u20$as$u20$core..clone..Clone$GT$5clone17h53c245c82f2b7148E
libstd-4e66027e5c9dd3e7.so:_ZN91_$LT$object..read..pe..resource..ResourceDirectoryEntryData$u20$as$u20$core..fmt..Debug$GT$3fmt17haf1d3d3e46646f87E
libstd-4e66027e5c9dd3e7.so:_ZN91_$LT$std..backtrace_rs..symbolize..gimli..mmap..Mmap$u20$as$u20$core..ops..deref..Deref$GT$5deref17h6fbb94d619ca6827E
libstd-4e66027e5c9dd3e7.so:_ZN91_$LT$std..panicking..rust_panic_without_hook..RewrapBox$u20$as$u20$core..panic..BoxMeUp$GT$3get17h83313e35e6bb41f7E
libstd-4e66027e5c9dd3e7.so:_ZN91_$LT$std..panicking..rust_panic_without_hook..RewrapBox$u20$as$u20$core..panic..BoxMeUp$GT$8take_box17h60cc45478df8f26cE
libstd-4e66027e5c9dd3e7.so:_ZN91_$LT$std..process..Stdio$u20$as$u20$core..convert..From$LT$std..process..ChildStdin$GT$$GT$4from17hc521d05dd374b9aeE
libstd-4e66027e5c9dd3e7.so:_ZN91_$LT$std..sys_common..backtrace.._print..DisplayBacktrace$u20$as$u20$core..fmt..Display$GT$3fmt17h591af2ef5535f143E
libstd-4e66027e5c9dd3e7.so:_ZN91_$LT$std..sys_common..net..LookupHost$u20$as$u20$core..iter..traits..iterator..Iterator$GT$4next17h8c6dfdffc34de643E
libstd-4e66027e5c9dd3e7.so:_ZN91_$LT$std..sys_common..wstr..WStrUnits$u20$as$u20$core..iter..traits..iterator..Iterator$GT$4next17h045e64b38994a34fE
libstd-4e66027e5c9dd3e7.so:_ZN91_$LT$std..time..SystemTime$u20$as$u20$core..ops..arith..Add$LT$core..time..Duration$GT$$GT$3add17h9f2be4fb3bffabf1E
libstd-4e66027e5c9dd3e7.so:_ZN91_$LT$std..time..SystemTime$u20$as$u20$core..ops..arith..Sub$LT$core..time..Duration$GT$$GT$3sub17hf2aa8a3c962531eaE
libstd-4e66027e5c9dd3e7.so:_ZN92_$LT$$LP$alloc..string..String$C$u16$RP$$u20$as$u20$std..net..socket_addr..ToSocketAddrs$GT$15to_socket_addrs17h8e216931e1d87984E
libstd-4e66027e5c9dd3e7.so:_ZN92_$LT$alloc..borrow..Cow$LT$str$GT$$u20$as$u20$core..ops..arith..AddAssign$LT$$RF$str$GT$$GT$10add_assign17hdacf6aee2be6208eE
libstd-4e66027e5c9dd3e7.so:_ZN92_$LT$libc..unix..linux_like..linux..__c_anonymous_ifr_ifru$u20$as$u20$core..clone..Clone$GT$5clone17h94feb7e97cfb360cE
libstd-4e66027e5c9dd3e7.so:_ZN92_$LT$libc..unix..linux_like..linux..__c_anonymous_ifru_map$u20$as$u20$core..clone..Clone$GT$5clone17h9485428eb2890eb3E
libstd-4e66027e5c9dd3e7.so:_ZN92_$LT$libc..unix..linux_like..linux..gnu..b32..x86..flock64$u20$as$u20$core..clone..Clone$GT$5clone17h2d6a2aac2ca3a322E
libstd-4e66027e5c9dd3e7.so:_ZN92_$LT$libc..unix..linux_like..linux..gnu..b32..x86..stack_t$u20$as$u20$core..clone..Clone$GT$5clone17he2b7a462715db63dE
libstd-4e66027e5c9dd3e7.so:_ZN92_$LT$std..fs..File$u20$as$u20$std..sys_common..FromInner$LT$std..sys..unix..fs..File$GT$$GT$10from_inner17hdf199147b9f672f9E
libstd-4e66027e5c9dd3e7.so:_ZN92_$LT$std..fs..File$u20$as$u20$std..sys_common..IntoInner$LT$std..sys..unix..fs..File$GT$$GT$10into_inner17h63c2300c287090a7E
libstd-4e66027e5c9dd3e7.so:_ZN92_$LT$std..net..socket_addr..SocketAddrV4$u20$as$u20$std..net..socket_addr..ToSocketAddrs$GT$15to_socket_addrs17h68c64efd736e3d2aE
libstd-4e66027e5c9dd3e7.so:_ZN92_$LT$std..net..socket_addr..SocketAddrV6$u20$as$u20$std..net..socket_addr..ToSocketAddrs$GT$15to_socket_addrs17h2250fc832b4ed7ddE
libstd-4e66027e5c9dd3e7.so:_ZN92_$LT$std..process..Stdio$u20$as$u20$core..convert..From$LT$std..process..ChildStderr$GT$$GT$4from17heb1eb5f43038596eE
libstd-4e66027e5c9dd3e7.so:_ZN92_$LT$std..process..Stdio$u20$as$u20$core..convert..From$LT$std..process..ChildStdout$GT$$GT$4from17h44b6874b56f32bbfE
libstd-4e66027e5c9dd3e7.so:_ZN92_$LT$std..sys..unix..os_str..Buf$u20$as$u20$std..sys_common..AsInner$LT$$u5b$u8$u5d$$GT$$GT$8as_inner17hf1dd4b100a93c258E
libstd-4e66027e5c9dd3e7.so:_ZN92_$LT$std..sys..unix..process..process_inner..ExitStatusError$u20$as$u20$core..fmt..Debug$GT$3fmt17hb3809638f6ad982aE
libstd-4e66027e5c9dd3e7.so:_ZN92_$LT$std..sys_common..wtf8..Wtf8$u20$as$u20$std..sys_common..AsInner$LT$$u5b$u8$u5d$$GT$$GT$8as_inner17hdc5d688d450ed4a9E
libstd-4e66027e5c9dd3e7.so:_ZN93_$LT$alloc..collections..btree..mem..replace..PanicGuard$u20$as$u20$core..ops..drop..Drop$GT$4drop17h9fcd29a90bf797cfE
libstd-4e66027e5c9dd3e7.so:_ZN93_$LT$libc..unix..linux_like..linux..arch..generic..termios2$u20$as$u20$core..clone..Clone$GT$5clone17he1c8b2b62b071152E
libstd-4e66027e5c9dd3e7.so:_ZN93_$LT$libc..unix..linux_like..linux..fanotify_event_metadata$u20$as$u20$core..clone..Clone$GT$5clone17he9aef8ef291f8293E
libstd-4e66027e5c9dd3e7.so:_ZN93_$LT$libc..unix..linux_like..linux..gnu..b32..x86..ipc_perm$u20$as$u20$core..clone..Clone$GT$5clone17h6e00f792eb3db0b4E
libstd-4e66027e5c9dd3e7.so:_ZN93_$LT$libc..unix..linux_like..linux..gnu..b32..x86..msqid_ds$u20$as$u20$core..clone..Clone$GT$5clone17h60a53125ca04f2d8E
libstd-4e66027e5c9dd3e7.so:_ZN93_$LT$libc..unix..linux_like..linux..gnu..b32..x86..shmid_ds$u20$as$u20$core..clone..Clone$GT$5clone17h68048f822f94b16dE
libstd-4e66027e5c9dd3e7.so:_ZN93_$LT$libc..unix..linux_like..linux..gnu..b32..x86..statfs64$u20$as$u20$core..clone..Clone$GT$5clone17h0b52c9c1c71f8ef9E
libstd-4e66027e5c9dd3e7.so:_ZN93_$LT$std..panicking..begin_panic_handler..StrPanicPayload$u20$as$u20$core..panic..BoxMeUp$GT$3get17h5dfc996c3637f7ecE
libstd-4e66027e5c9dd3e7.so:_ZN93_$LT$std..panicking..begin_panic_handler..StrPanicPayload$u20$as$u20$core..panic..BoxMeUp$GT$8take_box17hdf9aeecca8262a0aE
libstd-4e66027e5c9dd3e7.so:_ZN93_$LT$std..sys..unix..fs..FilePermissions$u20$as$u20$std..sys_common..FromInner$LT$u32$GT$$GT$10from_inner17hc1414dbd4e4c289dE
libstd-4e66027e5c9dd3e7.so:_ZN94_$LT$libc..unix..linux_like..linux..gnu..b32..pthread_attr_t$u20$as$u20$core..clone..Clone$GT$5clone17h717b7b482709bf51E
libstd-4e66027e5c9dd3e7.so:_ZN94_$LT$libc..unix..linux_like..linux..gnu..b32..x86..sigaction$u20$as$u20$core..clone..Clone$GT$5clone17h7b96fd25911b8a74E
libstd-4e66027e5c9dd3e7.so:_ZN94_$LT$libc..unix..linux_like..linux..gnu..b32..x86..siginfo_t$u20$as$u20$core..clone..Clone$GT$5clone17h2925e26eb272f0a0E
libstd-4e66027e5c9dd3e7.so:_ZN94_$LT$libc..unix..linux_like..linux..gnu..b32..x86..statvfs64$u20$as$u20$core..clone..Clone$GT$5clone17h9f0b9901aec47e51E
libstd-4e66027e5c9dd3e7.so:_ZN94_$LT$libc..unix..linux_like..linux..gnu..ptrace_syscall_info$u20$as$u20$core..clone..Clone$GT$5clone17hd9fe6a2f5cdff661E
libstd-4e66027e5c9dd3e7.so:_ZN94_$LT$libc..unix..linux_like..linux..non_exhaustive..open_how$u20$as$u20$core..clone..Clone$GT$5clone17h44b4e2e6e78c43e2E
libstd-4e66027e5c9dd3e7.so:_ZN94_$LT$std..time..Instant$u20$as$u20$core..ops..arith..AddAssign$LT$core..time..Duration$GT$$GT$10add_assign17h64a209b4481d3cebE
libstd-4e66027e5c9dd3e7.so:_ZN94_$LT$std..time..Instant$u20$as$u20$core..ops..arith..SubAssign$LT$core..time..Duration$GT$$GT$10sub_assign17h0fb05c1f23418af3E
libstd-4e66027e5c9dd3e7.so:_ZN95_$LT$core..char..EscapeDefault$u20$as$u20$core..iter..traits..exact_size..ExactSizeIterator$GT$3len17h08b225d21282ca8bE
libstd-4e66027e5c9dd3e7.so:_ZN95_$LT$libc..unix..linux_like..linux..gnu..b32..x86..mcontext_t$u20$as$u20$core..clone..Clone$GT$5clone17h9ac96856c1a1acd7E
libstd-4e66027e5c9dd3e7.so:_ZN95_$LT$libc..unix..linux_like..linux..gnu..b32..x86..ucontext_t$u20$as$u20$core..clone..Clone$GT$5clone17h78cdbfa17a68e069E
libstd-4e66027e5c9dd3e7.so:_ZN95_$LT$std..path..Components$u20$as$u20$core..iter..traits..double_ended..DoubleEndedIterator$GT$9next_back17h4b7a814fabcc8da4E
libstd-4e66027e5c9dd3e7.so:_ZN95_$LT$std..process..CommandArgs$u20$as$u20$core..iter..traits..exact_size..ExactSizeIterator$GT$3len17h448b55c92ed52255E
libstd-4e66027e5c9dd3e7.so:_ZN95_$LT$std..process..CommandArgs$u20$as$u20$core..iter..traits..exact_size..ExactSizeIterator$GT$8is_empty17he13846b9f6af06d0E
libstd-4e66027e5c9dd3e7.so:_ZN96_$LT$$LP$std..net..ip_addr..IpAddr$C$u16$RP$$u20$as$u20$std..net..socket_addr..ToSocketAddrs$GT$15to_socket_addrs17heac78922f9bc2ba4E
libstd-4e66027e5c9dd3e7.so:_ZN96_$LT$libc..unix..linux_like..linux..gnu..b32..x86.._libc_fpreg$u20$as$u20$core..clone..Clone$GT$5clone17h10c826b414ea132fE
libstd-4e66027e5c9dd3e7.so:_ZN96_$LT$libc..unix..linux_like..linux..posix_spawn_file_actions_t$u20$as$u20$core..clone..Clone$GT$5clone17haf074356e3509210E
libstd-4e66027e5c9dd3e7.so:_ZN96_$LT$std..io..error..Error$u20$as$u20$core..convert..From$LT$alloc..ffi..c_str..NulError$GT$$GT$4from17hb486d684f21b45d9E
libstd-4e66027e5c9dd3e7.so:_ZN96_$LT$std..os..unix..net..stream..UnixStream$u20$as$u20$std..sys..unix..kernel_copy..CopyRead$GT$10properties17hf21af17831f5c108E
libstd-4e66027e5c9dd3e7.so:_ZN96_$LT$std..sys..unix..args..Args$u20$as$u20$core..iter..traits..exact_size..ExactSizeIterator$GT$3len17h4878fded9fdc7a54E
libstd-4e66027e5c9dd3e7.so:_ZN96_$LT$std..sys_common..process..CommandEnvs$u20$as$u20$core..iter..traits..iterator..Iterator$GT$4next17h0df4542d33595597E
libstd-4e66027e5c9dd3e7.so:_ZN96_$LT$std..sys_common..process..CommandEnvs$u20$as$u20$core..iter..traits..iterator..Iterator$GT$9size_hint17he4bcd8805bb85c05E
libstd-4e66027e5c9dd3e7.so:_ZN97_$LT$alloc..string..String$u20$as$u20$core..convert..From$LT$alloc..boxed..Box$LT$str$GT$$GT$$GT$4from17h513937235dce8432E
libstd-4e66027e5c9dd3e7.so:_ZN97_$LT$core..char..ToLowercase$u20$as$u20$core..iter..traits..double_ended..DoubleEndedIterator$GT$9next_back17h512eab1adc4945baE
libstd-4e66027e5c9dd3e7.so:_ZN97_$LT$core..char..ToUppercase$u20$as$u20$core..iter..traits..double_ended..DoubleEndedIterator$GT$9next_back17hfadcebfa6e89401cE
libstd-4e66027e5c9dd3e7.so:_ZN97_$LT$std..os..unix..net..listener..Incoming$u20$as$u20$core..iter..traits..iterator..Iterator$GT$4next17h92ee864fea0ed4f6E
libstd-4e66027e5c9dd3e7.so:_ZN97_$LT$std..os..unix..net..listener..Incoming$u20$as$u20$core..iter..traits..iterator..Iterator$GT$9size_hint17h6de1914461b2fc65E
libstd-4e66027e5c9dd3e7.so:_ZN97_$LT$std..os..unix..net..stream..UnixStream$u20$as$u20$std..sys..unix..kernel_copy..CopyWrite$GT$10properties17hc557036c3e1c2cb1E
libstd-4e66027e5c9dd3e7.so:_ZN97_$LT$std..time..SystemTime$u20$as$u20$core..ops..arith..AddAssign$LT$core..time..Duration$GT$$GT$10add_assign17h41f02c6df4d43c6cE
libstd-4e66027e5c9dd3e7.so:_ZN97_$LT$std..time..SystemTime$u20$as$u20$core..ops..arith..SubAssign$LT$core..time..Duration$GT$$GT$10sub_assign17he92c26ea45658d7fE
libstd-4e66027e5c9dd3e7.so:_ZN98_$LT$$LP$std..net..ip_addr..Ipv4Addr$C$u16$RP$$u20$as$u20$std..net..socket_addr..ToSocketAddrs$GT$15to_socket_addrs17h0701d7d66d69b227E
libstd-4e66027e5c9dd3e7.so:_ZN98_$LT$$LP$std..net..ip_addr..Ipv6Addr$C$u16$RP$$u20$as$u20$std..net..socket_addr..ToSocketAddrs$GT$15to_socket_addrs17h5e4fd7be970989feE
libstd-4e66027e5c9dd3e7.so:_ZN98_$LT$alloc..string..String$u20$as$u20$core..convert..From$LT$alloc..borrow..Cow$LT$str$GT$$GT$$GT$4from17haccc16f46c46774bE
libstd-4e66027e5c9dd3e7.so:_ZN98_$LT$libc..unix..linux_like..linux..gnu..b32..x86.._libc_fpstate$u20$as$u20$core..clone..Clone$GT$5clone17h3d18467605b29e19E
libstd-4e66027e5c9dd3e7.so:_ZN98_$LT$libc..unix..linux_like..linux..gnu..ptrace_peeksiginfo_args$u20$as$u20$core..clone..Clone$GT$5clone17ha651d69a75a68362E
libstd-4e66027e5c9dd3e7.so:_ZN98_$LT$std..fs..DirEntry$u20$as$u20$std..sys_common..AsInner$LT$std..sys..unix..fs..DirEntry$GT$$GT$8as_inner17ha236c0d00d012afdE
libstd-4e66027e5c9dd3e7.so:_ZN98_$LT$std..fs..FileType$u20$as$u20$std..sys_common..AsInner$LT$std..sys..unix..fs..FileType$GT$$GT$8as_inner17h4fba9f36b2a57483E
libstd-4e66027e5c9dd3e7.so:_ZN98_$LT$std..fs..Metadata$u20$as$u20$std..sys_common..AsInner$LT$std..sys..unix..fs..FileAttr$GT$$GT$8as_inner17h6de8912b82d3cd81E
libstd-4e66027e5c9dd3e7.so:_ZN98_$LT$std..os..unix..net..ancillary..Messages$u20$as$u20$core..iter..traits..iterator..Iterator$GT$4next17h3de5e0dd33501c5bE
libstd-4e66027e5c9dd3e7.so:_ZN98_$LT$std..sys..unix..time..Timespec$u20$as$u20$core..convert..From$LT$libc..unix..timespec$GT$$GT$4from17hd6eafd3f5a216b36E
libstd-4e66027e5c9dd3e7.so:_ZN99_$LT$libc..unix..linux_like..linux..__c_anonymous_sockaddr_can_tp$u20$as$u20$core..clone..Clone$GT$5clone17h330b984fb51a5465E
libstd-4e66027e5c9dd3e7.so:_ZN99_$LT$std..os..unix..net..ancillary..ScmRights$u20$as$u20$core..iter..traits..iterator..Iterator$GT$4next17h0e8abfc524bd51d1E
libstd-4e66027e5c9dd3e7.so:_ZN99_$LT$std..sys..unix..process..process_common..ExitCode$u20$as$u20$core..convert..From$LT$u8$GT$$GT$4from17h4075e760c2f49eb1E
libstd-4e66027e5c9dd3e7.so:_ZN9addr2line13demangle_auto17h946d501cb198d2bbE
libstd-4e66027e5c9dd3e7.so:_ZN9addr2line8demangle17h59c3b2074dad8485E
libstd-4e66027e5c9dd3e7.so:_ZN9addr2line9path_push17hc2d9758a63a9dc95E
libstd-4e66027e5c9dd3e7.so:_ZN9hashbrown3raw11Fallibility17capacity_overflow17h093f4ccb9c10bffaE
libstd-4e66027e5c9dd3e7.so:_ZN9hashbrown3raw11Fallibility9alloc_err17h0c48674e8feccb77E
libstd-4e66027e5c9dd3e7.so:__rdl_oom
libstd-4e66027e5c9dd3e7.so:__rust_alloc
libstd-4e66027e5c9dd3e7.so:__rust_alloc_error_handler
libstd-4e66027e5c9dd3e7.so:__rust_alloc_error_handler_should_panic
libstd-4e66027e5c9dd3e7.so:__rust_alloc_zeroed
libstd-4e66027e5c9dd3e7.so:__rust_dealloc
libstd-4e66027e5c9dd3e7.so:__rust_drop_panic
libstd-4e66027e5c9dd3e7.so:__rust_foreign_exception
libstd-4e66027e5c9dd3e7.so:__rust_panic_cleanup
libstd-4e66027e5c9dd3e7.so:__rust_realloc
libstd-4e66027e5c9dd3e7.so:__rust_start_panic
libstd-4e66027e5c9dd3e7.so:rust_begin_unwind
libstd-4e66027e5c9dd3e7.so:rust_eh_personality
libstd-4e66027e5c9dd3e7.so:rust_metadata_std_29dca34be1f311da
libstd-4e66027e5c9dd3e7.so:rust_panic
libtest-3b98d10432540e4e.so:_ZN13unicode_width6tables9charwidth8TABLES_017hd9bd72ed4256ba1aE
libtest-3b98d10432540e4e.so:_ZN13unicode_width6tables9charwidth8TABLES_117hff6ee0df7f514811E
libtest-3b98d10432540e4e.so:_ZN13unicode_width6tables9charwidth8TABLES_217hfa0d5ad859d73213E
libtest-3b98d10432540e4e.so:_ZN49_$LT$getopts..Opt$u20$as$u20$core..fmt..Debug$GT$3fmt17hc86b8479678212e1E
libtest-3b98d10432540e4e.so:_ZN4test10formatters5junit16parse_class_name17hb687391003d10976E
libtest-3b98d10432540e4e.so:_ZN4test12filter_tests17h2fa5b51ce7b92cd0E
libtest-3b98d10432540e4e.so:_ZN4test13FilteredTests8add_test17h6b0dd1ca3f0e0374E
libtest-3b98d10432540e4e.so:_ZN4test13FilteredTests9add_bench17h264019c17dc17729E
libtest-3b98d10432540e4e.so:_ZN4test13FilteredTests9total_len17hc59d76d2dab43b1dE
libtest-3b98d10432540e4e.so:_ZN4test16test_main_static17h3924443a8c5d525aE
libtest-3b98d10432540e4e.so:_ZN4test22test_main_static_abort17hf19b85e6faee9128E
libtest-3b98d10432540e4e.so:_ZN4test27convert_benchmarks_to_tests17h431071e764dfcb41E
libtest-3b98d10432540e4e.so:_ZN4test3cli10parse_opts17h84e20c46f9094e55E
libtest-3b98d10432540e4e.so:_ZN4test3cli8TestOpts9use_color17h090affb48040605cE
libtest-3b98d10432540e4e.so:_ZN4test4term8terminfo4parm6expand17h57883839d1681f65E
libtest-3b98d10432540e4e.so:_ZN4test4term8terminfo4parm9Variables3new17h6146015b9f7ac45bE
libtest-3b98d10432540e4e.so:_ZN4test4time13TimeThreshold12from_env_var17h6fc26ee9d252f5e8E
libtest-3b98d10432540e4e.so:_ZN4test4time13TimeThreshold3new17h56824501e0e500baE
libtest-3b98d10432540e4e.so:_ZN4test4time15TestTimeOptions11is_critical17h47ef08b7822c08beE
libtest-3b98d10432540e4e.so:_ZN4test4time15TestTimeOptions12new_from_env17h9348b355b715a6e6E
libtest-3b98d10432540e4e.so:_ZN4test4time15TestTimeOptions7is_warn17h77b771e0072a44cbE
libtest-3b98d10432540e4e.so:_ZN4test4time24get_default_test_timeout17he4d831b4f83adb73E
libtest-3b98d10432540e4e.so:_ZN4test5bench17fmt_bench_samples17h682af01b6160c018E
libtest-3b98d10432540e4e.so:_ZN4test5event13CompletedTest3new17ha03b3ec0dc48b6fdE
libtest-3b98d10432540e4e.so:_ZN4test5stats7Summary3new17ha3b6fd8001a87710E
libtest-3b98d10432540e4e.so:_ZN4test5stats9winsorize17hc514991649cc3186E
libtest-3b98d10432540e4e.so:_ZN4test5types6TestFn7padding17h89e417443251c36eE
libtest-3b98d10432540e4e.so:_ZN4test5types8TestDesc11padded_name17h55b65514c94babe1E
libtest-3b98d10432540e4e.so:_ZN4test5types8TestDesc9test_mode17he436bf3d748b97b2E
libtest-3b98d10432540e4e.so:_ZN4test5types8TestName12with_padding17h6a6470ed13f3f63dE
libtest-3b98d10432540e4e.so:_ZN4test5types8TestName7padding17h1cb5ab51859422a6E
libtest-3b98d10432540e4e.so:_ZN4test5types8TestName8as_slice17hcdf20f14db41644fE
libtest-3b98d10432540e4e.so:_ZN4test7console17run_tests_console17h9c178abc18e62ccbE
libtest-3b98d10432540e4e.so:_ZN4test7helpers11concurrency15get_concurrency17hd828850a4b5c31bcE
libtest-3b98d10432540e4e.so:_ZN4test7helpers7metrics6Metric3new17h1dd0a225710ab676E
libtest-3b98d10432540e4e.so:_ZN4test7helpers7metrics9MetricMap11fmt_metrics17h338c79dc5ef1aa10E
libtest-3b98d10432540e4e.so:_ZN4test7helpers7metrics9MetricMap13insert_metric17h1970b82d8b7bbc42E
libtest-3b98d10432540e4e.so:_ZN4test7helpers7metrics9MetricMap3new17h40791ad2339f6c05E
libtest-3b98d10432540e4e.so:_ZN4test7helpers7shuffle13shuffle_tests17h36d61195be0577b1E
libtest-3b98d10432540e4e.so:_ZN4test7helpers7shuffle16get_shuffle_seed17h1d64cf11787c15a4E
libtest-3b98d10432540e4e.so:_ZN4test7options7Options11panic_abort17h852e43f4301e681fE
libtest-3b98d10432540e4e.so:_ZN4test7options7Options14display_output17habbb77d4f8f89474E
libtest-3b98d10432540e4e.so:_ZN4test7options7Options3new17h45645506a3875977E
libtest-3b98d10432540e4e.so:_ZN4test8run_test17haf042fffe3019c6eE
libtest-3b98d10432540e4e.so:_ZN4test9run_tests11RunningTest4join17h9fee4bcdc85b79f6E
libtest-3b98d10432540e4e.so:_ZN4test9run_tests12calc_timeout17h50390a908778e4a3E
libtest-3b98d10432540e4e.so:_ZN4test9run_tests19get_timed_out_tests17h405e8ccd66e20d17E
libtest-3b98d10432540e4e.so:_ZN4test9test_main17h580769a5e4bc2526E
libtest-3b98d10432540e4e.so:_ZN50_$LT$getopts..Fail$u20$as$u20$core..fmt..Debug$GT$3fmt17h2c19fd405b60082bE
libtest-3b98d10432540e4e.so:_ZN50_$LT$getopts..Name$u20$as$u20$core..fmt..Debug$GT$3fmt17hb1acd81c0e1f0255E
libtest-3b98d10432540e4e.so:_ZN51_$LT$getopts..Occur$u20$as$u20$core..fmt..Debug$GT$3fmt17h9b48bbdc44fe7a66E
libtest-3b98d10432540e4e.so:_ZN52_$LT$$u5b$f64$u5d$$u20$as$u20$test..stats..Stats$GT$10percentile17h1bacdcb229e19843E
libtest-3b98d10432540e4e.so:_ZN52_$LT$$u5b$f64$u5d$$u20$as$u20$test..stats..Stats$GT$11std_dev_pct17h370f245514ccb483E
libtest-3b98d10432540e4e.so:_ZN52_$LT$$u5b$f64$u5d$$u20$as$u20$test..stats..Stats$GT$14median_abs_dev17hbf7454e34965feb6E
libtest-3b98d10432540e4e.so:_ZN52_$LT$$u5b$f64$u5d$$u20$as$u20$test..stats..Stats$GT$18median_abs_dev_pct17h9b6a069ba909b46cE
libtest-3b98d10432540e4e.so:_ZN52_$LT$$u5b$f64$u5d$$u20$as$u20$test..stats..Stats$GT$3iqr17h4fd38b6ec2801062E
libtest-3b98d10432540e4e.so:_ZN52_$LT$$u5b$f64$u5d$$u20$as$u20$test..stats..Stats$GT$3max17h61609ce139c42ac6E
libtest-3b98d10432540e4e.so:_ZN52_$LT$$u5b$f64$u5d$$u20$as$u20$test..stats..Stats$GT$3min17h56a2a9104c27518dE
libtest-3b98d10432540e4e.so:_ZN52_$LT$$u5b$f64$u5d$$u20$as$u20$test..stats..Stats$GT$3sum17h83824fae0c8edd87E
libtest-3b98d10432540e4e.so:_ZN52_$LT$$u5b$f64$u5d$$u20$as$u20$test..stats..Stats$GT$3var17h4ba554906f4ac06eE
libtest-3b98d10432540e4e.so:_ZN52_$LT$$u5b$f64$u5d$$u20$as$u20$test..stats..Stats$GT$4mean17he6cf3c3653c49532E
libtest-3b98d10432540e4e.so:_ZN52_$LT$$u5b$f64$u5d$$u20$as$u20$test..stats..Stats$GT$6median17h06772c3ce2d1fdf7E
libtest-3b98d10432540e4e.so:_ZN52_$LT$$u5b$f64$u5d$$u20$as$u20$test..stats..Stats$GT$7std_dev17hde0c3425906d5281E
libtest-3b98d10432540e4e.so:_ZN52_$LT$$u5b$f64$u5d$$u20$as$u20$test..stats..Stats$GT$9quartiles17h1ab704a48d299c73E
libtest-3b98d10432540e4e.so:_ZN52_$LT$getopts..Fail$u20$as$u20$core..error..Error$GT$11description17h9d9814d0be155cdfE
libtest-3b98d10432540e4e.so:_ZN52_$LT$getopts..Fail$u20$as$u20$core..fmt..Display$GT$3fmt17h21a48eb016833271E
libtest-3b98d10432540e4e.so:_ZN52_$LT$getopts..HasArg$u20$as$u20$core..fmt..Debug$GT$3fmt17h19d82d39c3a7e48bE
libtest-3b98d10432540e4e.so:_ZN52_$LT$getopts..Optval$u20$as$u20$core..fmt..Debug$GT$3fmt17hc304f75a92329d91E
libtest-3b98d10432540e4e.so:_ZN53_$LT$getopts..Matches$u20$as$u20$core..fmt..Debug$GT$3fmt17h36bc006d789c0816E
libtest-3b98d10432540e4e.so:_ZN56_$LT$test..cli..TestOpts$u20$as$u20$core..fmt..Debug$GT$3fmt17h811c74f1e1a0abb9E
libtest-3b98d10432540e4e.so:_ZN56_$LT$test..types..TestFn$u20$as$u20$core..fmt..Debug$GT$3fmt17hdf68b59cd3952917E
libtest-3b98d10432540e4e.so:_ZN56_$LT$test..types..TestId$u20$as$u20$core..fmt..Debug$GT$3fmt17h7f0b1d4ceb6539f4E
libtest-3b98d10432540e4e.so:_ZN57_$LT$test..stats..Summary$u20$as$u20$core..fmt..Debug$GT$3fmt17hc2f88aaa7e922d2eE
libtest-3b98d10432540e4e.so:_ZN58_$LT$test..types..TestDesc$u20$as$u20$core..fmt..Debug$GT$3fmt17hf9a7e4e6d9161a33E
libtest-3b98d10432540e4e.so:_ZN58_$LT$test..types..TestName$u20$as$u20$core..fmt..Debug$GT$3fmt17h59db3d2e57196b3aE
libtest-3b98d10432540e4e.so:_ZN58_$LT$test..types..TestType$u20$as$u20$core..fmt..Debug$GT$3fmt17hec5bae7bc9365db9E
libtest-3b98d10432540e4e.so:_ZN59_$LT$getopts..Options$u20$as$u20$core..default..Default$GT$7default17he07f9f9d62c2ef1dE
libtest-3b98d10432540e4e.so:_ZN59_$LT$test..event..TestEvent$u20$as$u20$core..fmt..Debug$GT$3fmt17h16a0f5a2bfac38a5E
libtest-3b98d10432540e4e.so:_ZN59_$LT$test..options..Options$u20$as$u20$core..fmt..Debug$GT$3fmt17h0f7d7010ee34002dE
libtest-3b98d10432540e4e.so:_ZN60_$LT$test..types..TestName$u20$as$u20$core..fmt..Display$GT$3fmt17h287a68317611135bE
libtest-3b98d10432540e4e.so:_ZN61_$LT$test..time..TestExecTime$u20$as$u20$core..fmt..Debug$GT$3fmt17h95e0d0ee01d899b3E
libtest-3b98d10432540e4e.so:_ZN61_$LT$test..types..NamePadding$u20$as$u20$core..fmt..Debug$GT$3fmt17hace7fd8b09ba4d8eE
libtest-3b98d10432540e4e.so:_ZN62_$LT$test..bench..BenchSamples$u20$as$u20$core..fmt..Debug$GT$3fmt17h45d5bd8e9ef41fdeE
libtest-3b98d10432540e4e.so:_ZN62_$LT$test..options..RunIgnored$u20$as$u20$core..fmt..Debug$GT$3fmt17h77070f57bc8abe43E
libtest-3b98d10432540e4e.so:_ZN62_$LT$test..time..TimeThreshold$u20$as$u20$core..fmt..Debug$GT$3fmt17h368d26c68cf8be2eE
libtest-3b98d10432540e4e.so:_ZN63_$LT$test..event..CompletedTest$u20$as$u20$core..fmt..Debug$GT$3fmt17h16bb3ef3f6f8381bE
libtest-3b98d10432540e4e.so:_ZN63_$LT$test..options..ColorConfig$u20$as$u20$core..fmt..Debug$GT$3fmt17h90867b7fee48c45bE
libtest-3b98d10432540e4e.so:_ZN63_$LT$test..options..ShouldPanic$u20$as$u20$core..fmt..Debug$GT$3fmt17h686bcb67a8abfff6E
libtest-3b98d10432540e4e.so:_ZN63_$LT$test..time..TestExecTime$u20$as$u20$core..fmt..Display$GT$3fmt17hd23102cb0dfdca50E
libtest-3b98d10432540e4e.so:_ZN63_$LT$test..types..TestDescAndFn$u20$as$u20$core..fmt..Debug$GT$3fmt17hf2c257b8e2411546E
libtest-3b98d10432540e4e.so:_ZN64_$LT$test..options..OutputFormat$u20$as$u20$core..fmt..Debug$GT$3fmt17h1b7095add2efbd4aE
libtest-3b98d10432540e4e.so:_ZN64_$LT$test..term..terminfo..Error$u20$as$u20$core..fmt..Debug$GT$3fmt17h5fc25635e97d5b2eE
libtest-3b98d10432540e4e.so:_ZN64_$LT$test..time..TestTimeOptions$u20$as$u20$core..fmt..Debug$GT$3fmt17h6d9a60548bcc1c49E
libtest-3b98d10432540e4e.so:_ZN66_$LT$test..term..terminfo..Error$u20$as$u20$core..error..Error$GT$6source17h9edfc8853585505eE
libtest-3b98d10432540e4e.so:_ZN66_$LT$test..term..terminfo..Error$u20$as$u20$core..fmt..Display$GT$3fmt17hcab2185961364094E
libtest-3b98d10432540e4e.so:_ZN66_$LT$test..test_result..TestResult$u20$as$u20$core..fmt..Debug$GT$3fmt17hed1ed7d3c25b3f44E
libtest-3b98d10432540e4e.so:_ZN66_$LT$test..time..TestSuiteExecTime$u20$as$u20$core..fmt..Debug$GT$3fmt17hd13ed1ee77090d32E
libtest-3b98d10432540e4e.so:_ZN67_$LT$test..helpers..metrics..Metric$u20$as$u20$core..fmt..Debug$GT$3fmt17hf23d731d7ae25812E
libtest-3b98d10432540e4e.so:_ZN67_$LT$test..term..terminfo..TermInfo$u20$as$u20$core..fmt..Debug$GT$3fmt17he00cbf9c61a3fce6E
libtest-3b98d10432540e4e.so:_ZN68_$LT$test..time..TestSuiteExecTime$u20$as$u20$core..fmt..Display$GT$3fmt17headf53d08762d712E
libtest-3b98d10432540e4e.so:_ZN7getopts4Name8from_str17h6ba5178d4d8dd817E
libtest-3b98d10432540e4e.so:_ZN7getopts4Name9to_string17h248f7b6edf1c1a91E
libtest-3b98d10432540e4e.so:_ZN7getopts6is_arg17hadd0ae0441a9fdbbE
libtest-3b98d10432540e4e.so:_ZN7getopts7Matches11opt_default17h8f1476435e1758eaE
libtest-3b98d10432540e4e.so:_ZN7getopts7Matches11opt_defined17hd08a53d03eb372e8E
libtest-3b98d10432540e4e.so:_ZN7getopts7Matches11opt_present17ha77096dd76901a59E
libtest-3b98d10432540e4e.so:_ZN7getopts7Matches12opt_strs_pos17h8d96a8d0049345d8E
libtest-3b98d10432540e4e.so:_ZN7getopts7Matches12opts_present17hab6e42686c9387edE
libtest-3b98d10432540e4e.so:_ZN7getopts7Matches13opt_positions17h7c5f71a78eb15094E
libtest-3b98d10432540e4e.so:_ZN7getopts7Matches7opt_str17h6a74644dc6d5c192E
libtest-3b98d10432540e4e.so:_ZN7getopts7Matches7opt_val17hd0f800cc27849a30E
libtest-3b98d10432540e4e.so:_ZN7getopts7Matches8opt_strs17h9fb5de5518781ddfE
libtest-3b98d10432540e4e.so:_ZN7getopts7Matches8opts_str17h6adc1674f0001197E
libtest-3b98d10432540e4e.so:_ZN7getopts7Matches9opt_count17h9ed4d495aa6e3511E
libtest-3b98d10432540e4e.so:_ZN7getopts7Options10optflagopt17h91f83ab6461a8865E
libtest-3b98d10432540e4e.so:_ZN7getopts7Options11short_usage17h9b82be6492ec909dE
libtest-3b98d10432540e4e.so:_ZN7getopts7Options11usage_items17hb9c6078e0d93de9dE
libtest-3b98d10432540e4e.so:_ZN7getopts7Options12optflagmulti17h3516dce754bf95b8E
libtest-3b98d10432540e4e.so:_ZN7getopts7Options13parsing_style17ha4bfd79c22718410E
libtest-3b98d10432540e4e.so:_ZN7getopts7Options3new17h7586530061b5d496E
libtest-3b98d10432540e4e.so:_ZN7getopts7Options3opt17h72b459e1b4914478E
libtest-3b98d10432540e4e.so:_ZN7getopts7Options5usage17h3f0bcfaaebc5957bE
libtest-3b98d10432540e4e.so:_ZN7getopts7Options6optopt17h497c642539a62832E
libtest-3b98d10432540e4e.so:_ZN7getopts7Options6reqopt17hdef2c2d82e9ac9e0E
libtest-3b98d10432540e4e.so:_ZN7getopts7Options7optflag17h8cda8765af0cd248E
libtest-3b98d10432540e4e.so:_ZN7getopts7Options8optmulti17hdd3d91c727d133f1E
libtest-3b98d10432540e4e.so:_ZN7getopts7Options9long_only17h94f6b381cb132541E
libtest-3b98d10432540e4e.so:_ZN7getopts8OptGroup13long_to_short17ha8dcc4363fa8e242E
libtest-3b98d10432540e4e.so:_ZN7getopts8find_opt17hc0b292f84f6e6b87E
libtest-3b98d10432540e4e.so:rust_metadata_test_c0e169d396463398
