librustc_driver-0b75ba01aeee6012.so:LLVMRustStringWriteImpl
librustc_driver-0b75ba01aeee6012.so:_RNvCs1pCIzvU4uEf_9crc32fast4hash
librustc_driver-0b75ba01aeee6012.so:_RNvCs2ANZbKq4FAi_18tracing_subscriber8registry
librustc_driver-0b75ba01aeee6012.so:_RNvCs2BBApAlL7Qg_15rustc_mir_build7provide
librustc_driver-0b75ba01aeee6012.so:_RNvCs2SMw7k9Ard1_13rustc_feature10to_nonzero
librustc_driver-0b75ba01aeee6012.so:_RNvCs2SMw7k9Ard1_13rustc_feature18find_feature_issue
librustc_driver-0b75ba01aeee6012.so:_RNvCs2Z7zEOZAJxv_4atty2is
librustc_driver-0b75ba01aeee6012.so:_RNvCs2Z7zEOZAJxv_4atty4isnt
librustc_driver-0b75ba01aeee6012.so:_RNvCs2iGwUc7EAmY_17rustc_codegen_ssa14provide_extern
librustc_driver-0b75ba01aeee6012.so:_RNvCs2iGwUc7EAmY_17rustc_codegen_ssa27looks_like_rust_object_file
librustc_driver-0b75ba01aeee6012.so:_RNvCs2iGwUc7EAmY_17rustc_codegen_ssa7provide
librustc_driver-0b75ba01aeee6012.so:_RNvCs3YmreoQC60U_12rustc_driver10report_ice
librustc_driver-0b75ba01aeee6012.so:_RNvCs3YmreoQC60U_12rustc_driver12DEFAULT_HOOK
librustc_driver-0b75ba01aeee6012.so:_RNvCs3YmreoQC60U_12rustc_driver13list_metadata
librustc_driver-0b75ba01aeee6012.so:_RNvCs3YmreoQC60U_12rustc_driver14describe_lints
librustc_driver-0b75ba01aeee6012.so:_RNvCs3YmreoQC60U_12rustc_driver14handle_options
librustc_driver-0b75ba01aeee6012.so:_RNvCs3YmreoQC60U_12rustc_driver15init_env_logger
librustc_driver-0b75ba01aeee6012.so:_RNvCs3YmreoQC60U_12rustc_driver16install_ice_hook
librustc_driver-0b75ba01aeee6012.so:_RNvCs3YmreoQC60U_12rustc_driver17try_process_rlink
librustc_driver-0b75ba01aeee6012.so:_RNvCs3YmreoQC60U_12rustc_driver20diagnostics_registry
librustc_driver-0b75ba01aeee6012.so:_RNvCs3YmreoQC60U_12rustc_driver21init_rustc_env_logger
librustc_driver-0b75ba01aeee6012.so:_RNvCs3YmreoQC60U_12rustc_driver27version_at_macro_invocation
librustc_driver-0b75ba01aeee6012.so:_RNvCs3YmreoQC60U_12rustc_driver43init_rustc_env_logger_with_backtrace_option
librustc_driver-0b75ba01aeee6012.so:_RNvCs3YmreoQC60U_12rustc_driver4main
librustc_driver-0b75ba01aeee6012.so:_RNvCs42jfMrdK0mS_5adler13adler32_slice
librustc_driver-0b75ba01aeee6012.so:_RNvCs4slJhCJgzMj_20rustc_baked_icu_data19baked_data_provider
librustc_driver-0b75ba01aeee6012.so:_RNvCs5ESSSXQhO3H_12regex_syntax11escape_into
librustc_driver-0b75ba01aeee6012.so:_RNvCs5ESSSXQhO3H_12regex_syntax12is_word_byte
librustc_driver-0b75ba01aeee6012.so:_RNvCs5ESSSXQhO3H_12regex_syntax17is_meta_character
librustc_driver-0b75ba01aeee6012.so:_RNvCs5ESSSXQhO3H_12regex_syntax17is_word_character
librustc_driver-0b75ba01aeee6012.so:_RNvCs5ESSSXQhO3H_12regex_syntax21try_is_word_character
librustc_driver-0b75ba01aeee6012.so:_RNvCs5ESSSXQhO3H_12regex_syntax6escape
librustc_driver-0b75ba01aeee6012.so:_RNvCs5F1K8OdF89i_18rustc_monomorphize7provide
librustc_driver-0b75ba01aeee6012.so:_RNvCs5xIfTRf70HZ_9rustc_log13stderr_isatty
librustc_driver-0b75ba01aeee6012.so:_RNvCs5xIfTRf70HZ_9rustc_log13stdout_isatty
librustc_driver-0b75ba01aeee6012.so:_RNvCs5xIfTRf70HZ_9rustc_log15init_env_logger
librustc_driver-0b75ba01aeee6012.so:_RNvCs5xIfTRf70HZ_9rustc_log21init_rustc_env_logger
librustc_driver-0b75ba01aeee6012.so:_RNvCs5xIfTRf70HZ_9rustc_log37init_env_logger_with_backtrace_option
librustc_driver-0b75ba01aeee6012.so:_RNvCs5xIfTRf70HZ_9rustc_log43init_rustc_env_logger_with_backtrace_option
librustc_driver-0b75ba01aeee6012.so:_RNvCs6MeAzu9otsf_7stacker15remaining_stack
librustc_driver-0b75ba01aeee6012.so:_RNvCs6MeAzu9otsf_7stacker5__grow
librustc_driver-0b75ba01aeee6012.so:_RNvCs6eP2FAaHkoX_7getopts6is_arg
librustc_driver-0b75ba01aeee6012.so:_RNvCs6eP2FAaHkoX_7getopts8find_opt
librustc_driver-0b75ba01aeee6012.so:_RNvCs7HxnJqpK5Qb_21rustc_symbol_mangling20typeid_for_trait_ref
librustc_driver-0b75ba01aeee6012.so:_RNvCs7HxnJqpK5Qb_21rustc_symbol_mangling33symbol_name_for_instance_in_crate
librustc_driver-0b75ba01aeee6012.so:_RNvCs7HxnJqpK5Qb_21rustc_symbol_mangling7provide
librustc_driver-0b75ba01aeee6012.so:_RNvCs7P330ktdMbn_19rustc_save_analysis11find_config
librustc_driver-0b75ba01aeee6012.so:_RNvCs7VFnuzYgaW2_18rustc_hir_analysis11check_crate
librustc_driver-0b75ba01aeee6012.so:_RNvCs7VFnuzYgaW2_18rustc_hir_analysis12hir_ty_to_ty
librustc_driver-0b75ba01aeee6012.so:_RNvCs7VFnuzYgaW2_18rustc_hir_analysis23hir_trait_to_predicates
librustc_driver-0b75ba01aeee6012.so:_RNvCs7VFnuzYgaW2_18rustc_hir_analysis7provide
librustc_driver-0b75ba01aeee6012.so:_RNvCs7nHlYWzWSzq_11rustc_parse14parse_cfg_attr
librustc_driver-0b75ba01aeee6012.so:_RNvCs7nHlYWzWSzq_11rustc_parse16stream_to_parser
librustc_driver-0b75ba01aeee6012.so:_RNvCs7nHlYWzWSzq_11rustc_parse20maybe_file_to_stream
librustc_driver-0b75ba01aeee6012.so:_RNvCs7nHlYWzWSzq_11rustc_parse20new_parser_from_file
librustc_driver-0b75ba01aeee6012.so:_RNvCs7nHlYWzWSzq_11rustc_parse21parse_crate_from_file
librustc_driver-0b75ba01aeee6012.so:_RNvCs7nHlYWzWSzq_11rustc_parse21source_file_to_stream
librustc_driver-0b75ba01aeee6012.so:_RNvCs7nHlYWzWSzq_11rustc_parse26fake_token_stream_for_item
librustc_driver-0b75ba01aeee6012.so:_RNvCs7nHlYWzWSzq_11rustc_parse26new_parser_from_source_str
librustc_driver-0b75ba01aeee6012.so:_RNvCs7nHlYWzWSzq_11rustc_parse27fake_token_stream_for_crate
librustc_driver-0b75ba01aeee6012.so:_RNvCs7nHlYWzWSzq_11rustc_parse27parse_crate_attrs_from_file
librustc_driver-0b75ba01aeee6012.so:_RNvCs7nHlYWzWSzq_11rustc_parse27parse_crate_from_source_str
librustc_driver-0b75ba01aeee6012.so:_RNvCs7nHlYWzWSzq_11rustc_parse28parse_stream_from_source_str
librustc_driver-0b75ba01aeee6012.so:_RNvCs7nHlYWzWSzq_11rustc_parse32maybe_new_parser_from_source_str
librustc_driver-0b75ba01aeee6012.so:_RNvCs7nHlYWzWSzq_11rustc_parse33parse_crate_attrs_from_source_str
librustc_driver-0b75ba01aeee6012.so:_RNvCs8O1H9KPT4QD_3log10set_logger
librustc_driver-0b75ba01aeee6012.so:_RNvCs8O1H9KPT4QD_3log15set_logger_racy
librustc_driver-0b75ba01aeee6012.so:_RNvCs8O1H9KPT4QD_3log16set_boxed_logger
librustc_driver-0b75ba01aeee6012.so:_RNvCs8O1H9KPT4QD_3log17___private_api_log
librustc_driver-0b75ba01aeee6012.so:_RNvCs8O1H9KPT4QD_3log20MAX_LOG_LEVEL_FILTER
librustc_driver-0b75ba01aeee6012.so:_RNvCs8O1H9KPT4QD_3log21___private_api_enabled
librustc_driver-0b75ba01aeee6012.so:_RNvCs8O1H9KPT4QD_3log6logger
librustc_driver-0b75ba01aeee6012.so:_RNvCs8O5EifQp6yY_8fastrand3f32
librustc_driver-0b75ba01aeee6012.so:_RNvCs8O5EifQp6yY_8fastrand3f64
librustc_driver-0b75ba01aeee6012.so:_RNvCs8saYb8IjRm8_21rustc_data_structures20___noop_fix_for_27438
librustc_driver-0b75ba01aeee6012.so:_RNvCs8udwNclQ4om_16rustc_query_impl15query_callbacks
librustc_driver-0b75ba01aeee6012.so:_RNvCs9EsB5c040Xd_13rustc_privacy7provide
librustc_driver-0b75ba01aeee6012.so:_RNvCs9I0zmOhoApY_18rustc_ast_lowering12lower_to_hir
librustc_driver-0b75ba01aeee6012.so:_RNvCs9Yk5q5as75h_10rustc_lint14new_lint_store
librustc_driver-0b75ba01aeee6012.so:_RNvCs9Yk5q5as75h_10rustc_lint7provide
librustc_driver-0b75ba01aeee6012.so:_RNvCs9puRwE6Jrst_14rustc_borrowck7provide
librustc_driver-0b75ba01aeee6012.so:_RNvCs9sNufDikgEk_8thin_vec12EMPTY_HEADER
librustc_driver-0b75ba01aeee6012.so:_RNvCs9xF1GXCZqXD_18rustc_mir_dataflow18has_rustc_mir_with
librustc_driver-0b75ba01aeee6012.so:_RNvCsahqnHyO9x3C_14rustc_graphviz11escape_html
librustc_driver-0b75ba01aeee6012.so:_RNvCsbLpx0AB4NCb_14rustc_demangle12try_demangle
librustc_driver-0b75ba01aeee6012.so:_RNvCsbLpx0AB4NCb_14rustc_demangle8demangle
librustc_driver-0b75ba01aeee6012.so:_RNvCscefVdIc028Y_11tracing_log12format_trace
librustc_driver-0b75ba01aeee6012.so:_RNvCsczMUV2s8Ncb_12rustc_errors17TRACK_DIAGNOSTICS
librustc_driver-0b75ba01aeee6012.so:_RNvCsczMUV2s8Ncb_12rustc_errors24default_track_diagnostic
librustc_driver-0b75ba01aeee6012.so:_RNvCsczMUV2s8Ncb_12rustc_errors38add_elided_lifetime_in_path_suggestion
librustc_driver-0b75ba01aeee6012.so:_RNvCsd8BDX1MatO8_20rustc_builtin_macros23register_builtin_macros
librustc_driver-0b75ba01aeee6012.so:_RNvCsd9asrSMQEyX_3psm13stack_pointer
librustc_driver-0b75ba01aeee6012.so:_RNvCse9hk8TzeN6s_12rustc_passes7provide
librustc_driver-0b75ba01aeee6012.so:_RNvCseZzBTVrFSnY_9getrandom9getrandom
librustc_driver-0b75ba01aeee6012.so:_RNvCsecYS86TcDhf_14rustc_ty_utils7provide
librustc_driver-0b75ba01aeee6012.so:_RNvCsezg6S8Siq3K_12rustc_traits7provide
librustc_driver-0b75ba01aeee6012.so:_RNvCsgEPoYaRuWls_13generic_array21from_iter_length_fail
librustc_driver-0b75ba01aeee6012.so:_RNvCsgMyL6mnf2N0_19perf_event_open_sys15perf_event_open
librustc_driver-0b75ba01aeee6012.so:_RNvCsgOwEnlkkb0y_16rustc_hir_typeck7provide
librustc_driver-0b75ba01aeee6012.so:_RNvCsgbGF1fahqUQ_4odht12slots_needed
librustc_driver-0b75ba01aeee6012.so:_RNvCsgbGF1fahqUQ_4odht18max_item_count_for
librustc_driver-0b75ba01aeee6012.so:_RNvCsh1oXE7bm4Eb_10rustc_span10SPAN_TRACK
librustc_driver-0b75ba01aeee6012.so:_RNvCsh1oXE7bm4Eb_10rustc_span13normalize_src
librustc_driver-0b75ba01aeee6012.so:_RNvCsh1oXE7bm4Eb_10rustc_span15SESSION_GLOBALS
librustc_driver-0b75ba01aeee6012.so:_RNvCshjMEON3iz53_16rustc_const_eval7provide
librustc_driver-0b75ba01aeee6012.so:_RNvCshn1YiuQfVU7_12rustc_target19target_rustlib_path
librustc_driver-0b75ba01aeee6012.so:_RNvCsiZEOmDhiqRE_11rustc_lexer11is_id_start
librustc_driver-0b75ba01aeee6012.so:_RNvCsiZEOmDhiqRE_11rustc_lexer13is_whitespace
librustc_driver-0b75ba01aeee6012.so:_RNvCsiZEOmDhiqRE_11rustc_lexer13strip_shebang
librustc_driver-0b75ba01aeee6012.so:_RNvCsiZEOmDhiqRE_11rustc_lexer14is_id_continue
librustc_driver-0b75ba01aeee6012.so:_RNvCsiZEOmDhiqRE_11rustc_lexer8is_ident
librustc_driver-0b75ba01aeee6012.so:_RNvCsiZEOmDhiqRE_11rustc_lexer8tokenize
librustc_driver-0b75ba01aeee6012.so:_RNvCsieUtq1L7yhB_13rustc_fs_util16path_to_c_string
librustc_driver-0b75ba01aeee6012.so:_RNvCsieUtq1L7yhB_13rustc_fs_util28fix_windows_verbatim_for_gcc
librustc_driver-0b75ba01aeee6012.so:_RNvCsipHzpiWsw7P_20rustc_error_messages10new_bundle
librustc_driver-0b75ba01aeee6012.so:_RNvCsipHzpiWsw7P_20rustc_error_messages13fluent_bundle
librustc_driver-0b75ba01aeee6012.so:_RNvCsipHzpiWsw7P_20rustc_error_messages22fallback_fluent_bundle
librustc_driver-0b75ba01aeee6012.so:_RNvCsipHzpiWsw7P_20rustc_error_messages37fluent_value_from_str_list_sep_by_and
librustc_driver-0b75ba01aeee6012.so:_RNvCsjRjSeHQZpui_16rustc_hir_pretty11print_crate
librustc_driver-0b75ba01aeee6012.so:_RNvCsjRjSeHQZpui_16rustc_hir_pretty12fn_to_string
librustc_driver-0b75ba01aeee6012.so:_RNvCsjRjSeHQZpui_16rustc_hir_pretty12id_to_string
librustc_driver-0b75ba01aeee6012.so:_RNvCsjRjSeHQZpui_16rustc_hir_pretty12ty_to_string
librustc_driver-0b75ba01aeee6012.so:_RNvCsjRjSeHQZpui_16rustc_hir_pretty14path_to_string
librustc_driver-0b75ba01aeee6012.so:_RNvCsjRjSeHQZpui_16rustc_hir_pretty15qpath_to_string
librustc_driver-0b75ba01aeee6012.so:_RNvCsjRjSeHQZpui_16rustc_hir_pretty18enum_def_to_string
librustc_driver-0b75ba01aeee6012.so:_RNvCsjRjSeHQZpui_16rustc_hir_pretty22path_segment_to_string
librustc_driver-0b75ba01aeee6012.so:_RNvCsjRjSeHQZpui_16rustc_hir_pretty24generic_params_to_string
librustc_driver-0b75ba01aeee6012.so:_RNvCsjVzJsj56K9M_10rustc_llvm28initialize_available_targets
librustc_driver-0b75ba01aeee6012.so:_RNvCsk3skaTAHA6o_8punycode6decode
librustc_driver-0b75ba01aeee6012.so:_RNvCsk3skaTAHA6o_8punycode6encode
librustc_driver-0b75ba01aeee6012.so:_RNvCslNSrLHyiy2w_19rustc_mir_transform7provide
librustc_driver-0b75ba01aeee6012.so:_RNvMCs1pCIzvU4uEf_9crc32fastNtB2_6Hasher16new_with_initial
librustc_driver-0b75ba01aeee6012.so:_RNvMCs1pCIzvU4uEf_9crc32fastNtB2_6Hasher20new_with_initial_len
librustc_driver-0b75ba01aeee6012.so:_RNvMCs1pCIzvU4uEf_9crc32fastNtB2_6Hasher21internal_new_baseline
librustc_driver-0b75ba01aeee6012.so:_RNvMCs1pCIzvU4uEf_9crc32fastNtB2_6Hasher24internal_new_specialized
librustc_driver-0b75ba01aeee6012.so:_RNvMCs1pCIzvU4uEf_9crc32fastNtB2_6Hasher3new
librustc_driver-0b75ba01aeee6012.so:_RNvMCs1pCIzvU4uEf_9crc32fastNtB2_6Hasher5reset
librustc_driver-0b75ba01aeee6012.so:_RNvMCs1pCIzvU4uEf_9crc32fastNtB2_6Hasher6update
librustc_driver-0b75ba01aeee6012.so:_RNvMCs1pCIzvU4uEf_9crc32fastNtB2_6Hasher7combine
librustc_driver-0b75ba01aeee6012.so:_RNvMCs1pCIzvU4uEf_9crc32fastNtB2_6Hasher8finalize
librustc_driver-0b75ba01aeee6012.so:_RNvMCs3BVciWoC1df_18rustc_parse_formatNtB2_9InnerSpan3new
librustc_driver-0b75ba01aeee6012.so:_RNvMCs3Tcv2dxS6si_6flate2NtB2_11Compression3new
librustc_driver-0b75ba01aeee6012.so:_RNvMCs3Tcv2dxS6si_6flate2NtB2_11Compression4best
librustc_driver-0b75ba01aeee6012.so:_RNvMCs3Tcv2dxS6si_6flate2NtB2_11Compression4fast
librustc_driver-0b75ba01aeee6012.so:_RNvMCs3Tcv2dxS6si_6flate2NtB2_11Compression4none
librustc_driver-0b75ba01aeee6012.so:_RNvMCs3Tcv2dxS6si_6flate2NtB2_11Compression5level
librustc_driver-0b75ba01aeee6012.so:_RNvMCs3gJ41u96r5N_18rustc_codegen_llvmNtB2_17TimeTraceProfiler3new
librustc_driver-0b75ba01aeee6012.so:_RNvMCs3yUko0BFNII_8rls_dataNtB2_8Analysis3new
librustc_driver-0b75ba01aeee6012.so:_RNvMCs42jfMrdK0mS_5adlerNtB2_7Adler3211write_slice
librustc_driver-0b75ba01aeee6012.so:_RNvMCs44BqnPnixRB_6thorinNtB2_32MissingReferencedObjectBehaviour12skip_missing
librustc_driver-0b75ba01aeee6012.so:_RNvMCs4C9R4OzljKl_9rustc_abiNtB2_11IntegerType9is_signed
librustc_driver-0b75ba01aeee6012.so:_RNvMCs4xByZhWJfFB_11fixedbitsetNtB2_11FixedBitSet10difference
librustc_driver-0b75ba01aeee6012.so:_RNvMCs4xByZhWJfFB_11fixedbitsetNtB2_11FixedBitSet10union_with
librustc_driver-0b75ba01aeee6012.so:_RNvMCs4xByZhWJfFB_11fixedbitsetNtB2_11FixedBitSet11is_disjoint
librustc_driver-0b75ba01aeee6012.so:_RNvMCs4xByZhWJfFB_11fixedbitsetNtB2_11FixedBitSet11is_superset
librustc_driver-0b75ba01aeee6012.so:_RNvMCs4xByZhWJfFB_11fixedbitsetNtB2_11FixedBitSet12intersection
librustc_driver-0b75ba01aeee6012.so:_RNvMCs4xByZhWJfFB_11fixedbitsetNtB2_11FixedBitSet13with_capacity
librustc_driver-0b75ba01aeee6012.so:_RNvMCs4xByZhWJfFB_11fixedbitsetNtB2_11FixedBitSet14intersect_with
librustc_driver-0b75ba01aeee6012.so:_RNvMCs4xByZhWJfFB_11fixedbitsetNtB2_11FixedBitSet20symmetric_difference
librustc_driver-0b75ba01aeee6012.so:_RNvMCs4xByZhWJfFB_11fixedbitsetNtB2_11FixedBitSet25symmetric_difference_with
librustc_driver-0b75ba01aeee6012.so:_RNvMCs4xByZhWJfFB_11fixedbitsetNtB2_11FixedBitSet4grow
librustc_driver-0b75ba01aeee6012.so:_RNvMCs4xByZhWJfFB_11fixedbitsetNtB2_11FixedBitSet5union
librustc_driver-0b75ba01aeee6012.so:_RNvMCs4xByZhWJfFB_11fixedbitsetNtB2_11FixedBitSet9is_subset
librustc_driver-0b75ba01aeee6012.so:_RNvMCs5rh5k6nS07H_9jobserverNtB2_8Acquired22drop_without_releasing
librustc_driver-0b75ba01aeee6012.so:_RNvMCs6Xk4iZgn9ee_11miniz_oxideNtB2_7MZFlush3new
librustc_driver-0b75ba01aeee6012.so:_RNvMCs6rgqlYjgMMC_10libloadingNtB2_7Library5close
librustc_driver-0b75ba01aeee6012.so:_RNvMCs7NPstCHd46s_7memmap2NtB2_11MmapOptions18map_copy_read_only
librustc_driver-0b75ba01aeee6012.so:_RNvMCs7NPstCHd46s_7memmap2NtB2_11MmapOptions3len
librustc_driver-0b75ba01aeee6012.so:_RNvMCs7NPstCHd46s_7memmap2NtB2_11MmapOptions3map
librustc_driver-0b75ba01aeee6012.so:_RNvMCs7NPstCHd46s_7memmap2NtB2_11MmapOptions3new
librustc_driver-0b75ba01aeee6012.so:_RNvMCs7NPstCHd46s_7memmap2NtB2_11MmapOptions5stack
librustc_driver-0b75ba01aeee6012.so:_RNvMCs7NPstCHd46s_7memmap2NtB2_11MmapOptions6offset
librustc_driver-0b75ba01aeee6012.so:_RNvMCs7NPstCHd46s_7memmap2NtB2_11MmapOptions7map_mut
librustc_driver-0b75ba01aeee6012.so:_RNvMCs7NPstCHd46s_7memmap2NtB2_11MmapOptions7map_raw
librustc_driver-0b75ba01aeee6012.so:_RNvMCs7NPstCHd46s_7memmap2NtB2_11MmapOptions8map_anon
librustc_driver-0b75ba01aeee6012.so:_RNvMCs7NPstCHd46s_7memmap2NtB2_11MmapOptions8map_copy
librustc_driver-0b75ba01aeee6012.so:_RNvMCs7NPstCHd46s_7memmap2NtB2_11MmapOptions8map_exec
librustc_driver-0b75ba01aeee6012.so:_RNvMCs7P330ktdMbn_19rustc_save_analysisNtB2_11SaveContext12get_path_res
librustc_driver-0b75ba01aeee6012.so:_RNvMCs7P330ktdMbn_19rustc_save_analysisNtB2_11SaveContext13get_expr_data
librustc_driver-0b75ba01aeee6012.so:_RNvMCs7P330ktdMbn_19rustc_save_analysisNtB2_11SaveContext13get_item_data
librustc_driver-0b75ba01aeee6012.so:_RNvMCs7P330ktdMbn_19rustc_save_analysisNtB2_11SaveContext13get_path_data
librustc_driver-0b75ba01aeee6012.so:_RNvMCs7P330ktdMbn_19rustc_save_analysisNtB2_11SaveContext14get_field_data
librustc_driver-0b75ba01aeee6012.so:_RNvMCs7P330ktdMbn_19rustc_save_analysisNtB2_11SaveContext15get_method_data
librustc_driver-0b75ba01aeee6012.so:_RNvMCs7P330ktdMbn_19rustc_save_analysisNtB2_11SaveContext18compilation_output
librustc_driver-0b75ba01aeee6012.so:_RNvMCs7P330ktdMbn_19rustc_save_analysisNtB2_11SaveContext18get_field_ref_data
librustc_driver-0b75ba01aeee6012.so:_RNvMCs7P330ktdMbn_19rustc_save_analysisNtB2_11SaveContext19get_external_crates
librustc_driver-0b75ba01aeee6012.so:_RNvMCs7P330ktdMbn_19rustc_save_analysisNtB2_11SaveContext20get_extern_item_data
librustc_driver-0b75ba01aeee6012.so:_RNvMCs7P330ktdMbn_19rustc_save_analysisNtB2_11SaveContext21get_path_segment_data
librustc_driver-0b75ba01aeee6012.so:_RNvMCs7P330ktdMbn_19rustc_save_analysisNtB2_11SaveContext29get_path_segment_data_with_id
librustc_driver-0b75ba01aeee6012.so:_RNvMCs7PFPqSK8ZRQ_12chalk_engineNtB2_9TimeStamp9increment
librustc_driver-0b75ba01aeee6012.so:_RNvMCs8udwNclQ4om_16rustc_query_implNtB2_7Queries6as_dyn
librustc_driver-0b75ba01aeee6012.so:_RNvMCs9Yk5q5as75h_10rustc_lintNtB2_35BuiltinCombinedPreExpansionLintPass3new
librustc_driver-0b75ba01aeee6012.so:_RNvMCs9Yk5q5as75h_10rustc_lintNtB2_35BuiltinCombinedPreExpansionLintPass9get_lints
librustc_driver-0b75ba01aeee6012.so:_RNvMCs9sNufDikgEk_8thin_vecNtB2_6Header3len
librustc_driver-0b75ba01aeee6012.so:_RNvMCs9sNufDikgEk_8thin_vecNtB2_6Header7set_len
librustc_driver-0b75ba01aeee6012.so:_RNvMCsahqnHyO9x3C_14rustc_graphvizNtB2_5Style8as_slice
librustc_driver-0b75ba01aeee6012.so:_RNvMCsbJR9venUT8H_16intl_pluralrulesNtB2_11PluralRules10get_locale
librustc_driver-0b75ba01aeee6012.so:_RNvMCsbJR9venUT8H_16intl_pluralrulesNtB2_11PluralRules11get_locales
librustc_driver-0b75ba01aeee6012.so:_RNvMCsbLpx0AB4NCb_14rustc_demangleNtB2_8Demangle6as_str
librustc_driver-0b75ba01aeee6012.so:_RNvMCscRxR1ne3KXb_8matchersNtB2_7Pattern12new_anchored
librustc_driver-0b75ba01aeee6012.so:_RNvMCscRxR1ne3KXb_8matchersNtB2_7Pattern3new
librustc_driver-0b75ba01aeee6012.so:_RNvMCsczMUV2s8Ncb_12rustc_errorsNtB2_15SuggestionStyle11hide_inline
librustc_driver-0b75ba01aeee6012.so:_RNvMCsd9asrSMQEyX_3psmNtB2_14StackDirection3new
librustc_driver-0b75ba01aeee6012.so:_RNvMCsePhPwSoZdwI_13intl_memoizerNtB2_16IntlLangMemoizer3new
librustc_driver-0b75ba01aeee6012.so:_RNvMCsf8ECK0tLohG_16unic_langid_implNtB2_18LanguageIdentifier10from_bytes
librustc_driver-0b75ba01aeee6012.so:_RNvMCsf8ECK0tLohG_16unic_langid_implNtB2_18LanguageIdentifier10from_parts
librustc_driver-0b75ba01aeee6012.so:_RNvMCsf8ECK0tLohG_16unic_langid_implNtB2_18LanguageIdentifier10into_parts
librustc_driver-0b75ba01aeee6012.so:_RNvMCsf8ECK0tLohG_16unic_langid_implNtB2_18LanguageIdentifier11has_variant
librustc_driver-0b75ba01aeee6012.so:_RNvMCsf8ECK0tLohG_16unic_langid_implNtB2_18LanguageIdentifier12set_variants
librustc_driver-0b75ba01aeee6012.so:_RNvMCsf8ECK0tLohG_16unic_langid_implNtB2_18LanguageIdentifier14clear_variants
librustc_driver-0b75ba01aeee6012.so:_RNvMCsf8ECK0tLohG_16unic_langid_implNtB2_18LanguageIdentifier19character_direction
librustc_driver-0b75ba01aeee6012.so:_RNvMCsf8ECK0tLohG_16unic_langid_implNtB2_18LanguageIdentifier24from_raw_parts_unchecked
librustc_driver-0b75ba01aeee6012.so:_RNvMCsf8ECK0tLohG_16unic_langid_implNtB2_18LanguageIdentifier8variants
librustc_driver-0b75ba01aeee6012.so:_RNvMCsfvMwm3M2twT_12tracing_treeNtB2_4Data3new
librustc_driver-0b75ba01aeee6012.so:_RNvMCsh1oXE7bm4Eb_10rustc_spanNtB2_14SessionGlobals3new
librustc_driver-0b75ba01aeee6012.so:_RNvMCsiyJNtbvviN4_15rustc_lint_defsNtB2_17LintExpectationId14get_lint_index
librustc_driver-0b75ba01aeee6012.so:_RNvMCsiyJNtbvviN4_15rustc_lint_defsNtB2_17LintExpectationId14set_lint_index
librustc_driver-0b75ba01aeee6012.so:_RNvMCsiyJNtbvviN4_15rustc_lint_defsNtB2_17LintExpectationId9is_stable
librustc_driver-0b75ba01aeee6012.so:_RNvMCsiyJNtbvviN4_15rustc_lint_defsNtB2_17LintExpectationId9normalize
librustc_driver-0b75ba01aeee6012.so:_RNvMCsjVzJsj56K9M_10rustc_llvmNtB2_10RustString3len
librustc_driver-0b75ba01aeee6012.so:_RNvMCsjVzJsj56K9M_10rustc_llvmNtB2_10RustString8is_empty
librustc_driver-0b75ba01aeee6012.so:_RNvMCsjr7kdSax2y_9writeableNtB2_10LengthHint5exact
librustc_driver-0b75ba01aeee6012.so:_RNvMCsjr7kdSax2y_9writeableNtB2_10LengthHint7at_most
librustc_driver-0b75ba01aeee6012.so:_RNvMCsjr7kdSax2y_9writeableNtB2_10LengthHint7between
librustc_driver-0b75ba01aeee6012.so:_RNvMCsjr7kdSax2y_9writeableNtB2_10LengthHint7is_zero
librustc_driver-0b75ba01aeee6012.so:_RNvMCsjr7kdSax2y_9writeableNtB2_10LengthHint8at_least
librustc_driver-0b75ba01aeee6012.so:_RNvMCsjr7kdSax2y_9writeableNtB2_10LengthHint8capacity
librustc_driver-0b75ba01aeee6012.so:_RNvMCsjr7kdSax2y_9writeableNtB2_10LengthHint9undefined
librustc_driver-0b75ba01aeee6012.so:_RNvMCskE3VyvieIqV_14unicode_scriptNtNtNtB2_6tables11tables_impl6Script10short_name
librustc_driver-0b75ba01aeee6012.so:_RNvMCskE3VyvieIqV_14unicode_scriptNtNtNtB2_6tables11tables_impl6Script14from_full_name
librustc_driver-0b75ba01aeee6012.so:_RNvMCskE3VyvieIqV_14unicode_scriptNtNtNtB2_6tables11tables_impl6Script14is_recommended
librustc_driver-0b75ba01aeee6012.so:_RNvMCskE3VyvieIqV_14unicode_scriptNtNtNtB2_6tables11tables_impl6Script15from_short_name
librustc_driver-0b75ba01aeee6012.so:_RNvMCskE3VyvieIqV_14unicode_scriptNtNtNtB2_6tables11tables_impl6Script9full_name
librustc_driver-0b75ba01aeee6012.so:_RNvMCskJTYWfBGr7m_8chalk_irNtB2_8Variance5xform
librustc_driver-0b75ba01aeee6012.so:_RNvMCskJTYWfBGr7m_8chalk_irNtB2_8Variance6invert
librustc_driver-0b75ba01aeee6012.so:_RNvMNtCs1Br764BqhVG_6object6commonNtB2_12Architecture12address_size
librustc_driver-0b75ba01aeee6012.so:_RNvMNtCs1uAE8XsYwHC_9icu_locid10extensionsNtB2_13ExtensionType13try_from_byte
librustc_driver-0b75ba01aeee6012.so:_RNvMNtCs1uAE8XsYwHC_9icu_locid10extensionsNtB2_13ExtensionType27try_from_bytes_manual_slice
librustc_driver-0b75ba01aeee6012.so:_RNvMNtCs1uAE8XsYwHC_9icu_locid6langidNtB2_18LanguageIdentifier10strict_cmp
librustc_driver-0b75ba01aeee6012.so:_RNvMNtCs1uAE8XsYwHC_9icu_locid6langidNtB2_18LanguageIdentifier14normalizing_eq
librustc_driver-0b75ba01aeee6012.so:_RNvMNtCs1uAE8XsYwHC_9icu_locid6langidNtB2_18LanguageIdentifier14try_from_bytes
librustc_driver-0b75ba01aeee6012.so:_RNvMNtCs1uAE8XsYwHC_9icu_locid6langidNtB2_18LanguageIdentifier21try_from_locale_bytes
librustc_driver-0b75ba01aeee6012.so:_RNvMNtCs1uAE8XsYwHC_9icu_locid6langidNtB2_18LanguageIdentifier34try_from_bytes_with_single_variant
librustc_driver-0b75ba01aeee6012.so:_RNvMNtCs1uAE8XsYwHC_9icu_locid6localeNtB2_6Locale10strict_cmp
librustc_driver-0b75ba01aeee6012.so:_RNvMNtCs1uAE8XsYwHC_9icu_locid6localeNtB2_6Locale14normalizing_eq
librustc_driver-0b75ba01aeee6012.so:_RNvMNtCs1uAE8XsYwHC_9icu_locid6localeNtB2_6Locale14try_from_bytes
librustc_driver-0b75ba01aeee6012.so:_RNvMNtCs1uAE8XsYwHC_9icu_locid6localeNtB2_6Locale67try_from_bytes_with_single_variant_single_keyword_unicode_extension
librustc_driver-0b75ba01aeee6012.so:_RNvMNtCs1uAE8XsYwHC_9icu_locid6parserNtB2_14SubtagIterator11next_manual
librustc_driver-0b75ba01aeee6012.so:_RNvMNtCs1uAE8XsYwHC_9icu_locid6parserNtB2_14SubtagIterator11peek_manual
librustc_driver-0b75ba01aeee6012.so:_RNvMNtCs2ANZbKq4FAi_18tracing_subscriber3fmtNtB2_10Subscriber3new
librustc_driver-0b75ba01aeee6012.so:_RNvMNtCs2ANZbKq4FAi_18tracing_subscriber3fmtNtB2_10Subscriber7builder
librustc_driver-0b75ba01aeee6012.so:_RNvMNtCs2SMw7k9Ard1_13rustc_feature6activeNtB4_7Feature3set
librustc_driver-0b75ba01aeee6012.so:_RNvMNtCs2iGwUc7EAmY_17rustc_codegen_ssa4baseNtB4_9CrateInfo3new
librustc_driver-0b75ba01aeee6012.so:_RNvMNtCs2iGwUc7EAmY_17rustc_codegen_ssa4methNtB2_12VirtualIndex10from_index
librustc_driver-0b75ba01aeee6012.so:_RNvMNtCs2iGwUc7EAmY_17rustc_codegen_ssa6errorsNtB2_8CopyPath3new
librustc_driver-0b75ba01aeee6012.so:_RNvMNtCs2ldLjt3xnvI_9ansi_term10differenceNtB2_10Difference7between
librustc_driver-0b75ba01aeee6012.so:_RNvMNtCs2ldLjt3xnvI_9ansi_term5styleNtB2_5Style13strikethrough
librustc_driver-0b75ba01aeee6012.so:_RNvMNtCs2ldLjt3xnvI_9ansi_term5styleNtB2_5Style2fg
librustc_driver-0b75ba01aeee6012.so:_RNvMNtCs2ldLjt3xnvI_9ansi_term5styleNtB2_5Style2on
librustc_driver-0b75ba01aeee6012.so:_RNvMNtCs2ldLjt3xnvI_9ansi_term5styleNtB2_5Style3new
librustc_driver-0b75ba01aeee6012.so:_RNvMNtCs2ldLjt3xnvI_9ansi_term5styleNtB2_5Style4bold
librustc_driver-0b75ba01aeee6012.so:_RNvMNtCs2ldLjt3xnvI_9ansi_term5styleNtB2_5Style5blink
librustc_driver-0b75ba01aeee6012.so:_RNvMNtCs2ldLjt3xnvI_9ansi_term5styleNtB2_5Style6dimmed
librustc_driver-0b75ba01aeee6012.so:_RNvMNtCs2ldLjt3xnvI_9ansi_term5styleNtB2_5Style6hidden
librustc_driver-0b75ba01aeee6012.so:_RNvMNtCs2ldLjt3xnvI_9ansi_term5styleNtB2_5Style6italic
librustc_driver-0b75ba01aeee6012.so:_RNvMNtCs2ldLjt3xnvI_9ansi_term5styleNtB2_5Style7reverse
librustc_driver-0b75ba01aeee6012.so:_RNvMNtCs2ldLjt3xnvI_9ansi_term5styleNtB2_5Style8is_plain
librustc_driver-0b75ba01aeee6012.so:_RNvMNtCs2ldLjt3xnvI_9ansi_term5styleNtB2_5Style9underline
librustc_driver-0b75ba01aeee6012.so:_RNvMNtCs2qkp8pQJBHP_17crossbeam_channel7contextNtB2_7Context3new
librustc_driver-0b75ba01aeee6012.so:_RNvMNtCs2x2rcfZ8VIK_16rustc_ast_passes10node_countNtB2_11NodeCounter3new
librustc_driver-0b75ba01aeee6012.so:_RNvMNtCs2zXTrlMMQY6_6object6commonNtB2_12Architecture12address_size
librustc_driver-0b75ba01aeee6012.so:_RNvMNtCs395JlnKyOmX_15unic_emoji_char14emoji_modifierNtB2_13EmojiModifier2of
librustc_driver-0b75ba01aeee6012.so:_RNvMNtCs395JlnKyOmX_15unic_emoji_char14emoji_modifierNtB2_13EmojiModifier7as_bool
librustc_driver-0b75ba01aeee6012.so:_RNvMNtCs395JlnKyOmX_15unic_emoji_char15emoji_componentNtB2_14EmojiComponent2of
librustc_driver-0b75ba01aeee6012.so:_RNvMNtCs395JlnKyOmX_15unic_emoji_char15emoji_componentNtB2_14EmojiComponent7as_bool
librustc_driver-0b75ba01aeee6012.so:_RNvMNtCs395JlnKyOmX_15unic_emoji_char18emoji_presentationNtB2_17EmojiPresentation2of
librustc_driver-0b75ba01aeee6012.so:_RNvMNtCs395JlnKyOmX_15unic_emoji_char18emoji_presentationNtB2_17EmojiPresentation7as_bool
librustc_driver-0b75ba01aeee6012.so:_RNvMNtCs395JlnKyOmX_15unic_emoji_char19emoji_modifier_baseNtB2_17EmojiModifierBase2of
librustc_driver-0b75ba01aeee6012.so:_RNvMNtCs395JlnKyOmX_15unic_emoji_char19emoji_modifier_baseNtB2_17EmojiModifierBase7as_bool
librustc_driver-0b75ba01aeee6012.so:_RNvMNtCs395JlnKyOmX_15unic_emoji_char5emojiNtB2_5Emoji2of
librustc_driver-0b75ba01aeee6012.so:_RNvMNtCs395JlnKyOmX_15unic_emoji_char5emojiNtB2_5Emoji7as_bool
librustc_driver-0b75ba01aeee6012.so:_RNvMNtCs3Tcv2dxS6si_6flate22gzNtB2_8GzHeader16operating_system
librustc_driver-0b75ba01aeee6012.so:_RNvMNtCs3Tcv2dxS6si_6flate22gzNtB2_8GzHeader17mtime_as_datetime
librustc_driver-0b75ba01aeee6012.so:_RNvMNtCs3Tcv2dxS6si_6flate22gzNtB2_8GzHeader5extra
librustc_driver-0b75ba01aeee6012.so:_RNvMNtCs3Tcv2dxS6si_6flate22gzNtB2_8GzHeader5mtime
librustc_driver-0b75ba01aeee6012.so:_RNvMNtCs3Tcv2dxS6si_6flate22gzNtB2_8GzHeader7comment
librustc_driver-0b75ba01aeee6012.so:_RNvMNtCs3Tcv2dxS6si_6flate22gzNtB2_8GzHeader8filename
librustc_driver-0b75ba01aeee6012.so:_RNvMNtCs3Tcv2dxS6si_6flate23memNtB2_15DecompressError16needs_dictionary
librustc_driver-0b75ba01aeee6012.so:_RNvMNtCs3gJ41u96r5N_18rustc_codegen_llvm5llvm_NtNtB2_3ffi14LLVMRustResult11into_result
librustc_driver-0b75ba01aeee6012.so:_RNvMNtCs44BqnPnixRB_6thorin7stringsNtB2_18PackageStringTable13get_or_insert
librustc_driver-0b75ba01aeee6012.so:_RNvMNtCs56hrLJnUVy1_13fluent_bundle4argsNtB2_10FluentArgs13with_capacity
librustc_driver-0b75ba01aeee6012.so:_RNvMNtCs56hrLJnUVy1_13fluent_bundle4argsNtB2_10FluentArgs3new
librustc_driver-0b75ba01aeee6012.so:_RNvMNtCs56hrLJnUVy1_13fluent_bundle4argsNtB2_10FluentArgs4iter
librustc_driver-0b75ba01aeee6012.so:_RNvMNtCs56hrLJnUVy1_13fluent_bundle7messageNtB2_15FluentAttribute2id
librustc_driver-0b75ba01aeee6012.so:_RNvMNtCs56hrLJnUVy1_13fluent_bundle7messageNtB2_15FluentAttribute5value
librustc_driver-0b75ba01aeee6012.so:_RNvMNtCs56hrLJnUVy1_13fluent_bundle8resourceNtB2_14FluentResource6source
librustc_driver-0b75ba01aeee6012.so:_RNvMNtCs56hrLJnUVy1_13fluent_bundle8resourceNtB2_14FluentResource7entries
librustc_driver-0b75ba01aeee6012.so:_RNvMNtCs56hrLJnUVy1_13fluent_bundle8resourceNtB2_14FluentResource7try_new
librustc_driver-0b75ba01aeee6012.so:_RNvMNtCs56hrLJnUVy1_13fluent_bundle8resourceNtB2_14FluentResource9get_entry
librustc_driver-0b75ba01aeee6012.so:_RNvMNtCs57nGyfzsCVp_15rustc_transmute5rustcNtB2_16TransmuteTypeEnv15is_transmutable
librustc_driver-0b75ba01aeee6012.so:_RNvMNtCs57nGyfzsCVp_15rustc_transmute5rustcNtB2_16TransmuteTypeEnv3new
librustc_driver-0b75ba01aeee6012.so:_RNvMNtCs5ESSSXQhO3H_12regex_syntax3astNtB2_5Error14auxiliary_span
librustc_driver-0b75ba01aeee6012.so:_RNvMNtCs5ESSSXQhO3H_12regex_syntax3astNtB2_5Error4kind
librustc_driver-0b75ba01aeee6012.so:_RNvMNtCs5ESSSXQhO3H_12regex_syntax3astNtB2_5Error4span
librustc_driver-0b75ba01aeee6012.so:_RNvMNtCs5ESSSXQhO3H_12regex_syntax3astNtB2_5Error7pattern
librustc_driver-0b75ba01aeee6012.so:_RNvMNtCs5ESSSXQhO3H_12regex_syntax3hirNtB2_5Error4kind
librustc_driver-0b75ba01aeee6012.so:_RNvMNtCs5ESSSXQhO3H_12regex_syntax3hirNtB2_5Error4span
librustc_driver-0b75ba01aeee6012.so:_RNvMNtCs5ESSSXQhO3H_12regex_syntax3hirNtB2_5Error7pattern
librustc_driver-0b75ba01aeee6012.so:_RNvMNtCs5ESSSXQhO3H_12regex_syntax4utf8NtB2_12Utf8Sequence3len
librustc_driver-0b75ba01aeee6012.so:_RNvMNtCs5ESSSXQhO3H_12regex_syntax4utf8NtB2_12Utf8Sequence7matches
librustc_driver-0b75ba01aeee6012.so:_RNvMNtCs5ESSSXQhO3H_12regex_syntax4utf8NtB2_12Utf8Sequence7reverse
librustc_driver-0b75ba01aeee6012.so:_RNvMNtCs5ESSSXQhO3H_12regex_syntax4utf8NtB2_12Utf8Sequence8as_slice
librustc_driver-0b75ba01aeee6012.so:_RNvMNtCs5ESSSXQhO3H_12regex_syntax6parserNtB2_13ParserBuilder10multi_line
librustc_driver-0b75ba01aeee6012.so:_RNvMNtCs5ESSSXQhO3H_12regex_syntax6parserNtB2_13ParserBuilder10nest_limit
librustc_driver-0b75ba01aeee6012.so:_RNvMNtCs5ESSSXQhO3H_12regex_syntax6parserNtB2_13ParserBuilder10swap_greed
librustc_driver-0b75ba01aeee6012.so:_RNvMNtCs5ESSSXQhO3H_12regex_syntax6parserNtB2_13ParserBuilder16case_insensitive
librustc_driver-0b75ba01aeee6012.so:_RNvMNtCs5ESSSXQhO3H_12regex_syntax6parserNtB2_13ParserBuilder17ignore_whitespace
librustc_driver-0b75ba01aeee6012.so:_RNvMNtCs5ESSSXQhO3H_12regex_syntax6parserNtB2_13ParserBuilder18allow_invalid_utf8
librustc_driver-0b75ba01aeee6012.so:_RNvMNtCs5ESSSXQhO3H_12regex_syntax6parserNtB2_13ParserBuilder20dot_matches_new_line
librustc_driver-0b75ba01aeee6012.so:_RNvMNtCs5ESSSXQhO3H_12regex_syntax6parserNtB2_13ParserBuilder3new
librustc_driver-0b75ba01aeee6012.so:_RNvMNtCs5ESSSXQhO3H_12regex_syntax6parserNtB2_13ParserBuilder5build
librustc_driver-0b75ba01aeee6012.so:_RNvMNtCs5ESSSXQhO3H_12regex_syntax6parserNtB2_13ParserBuilder5octal
librustc_driver-0b75ba01aeee6012.so:_RNvMNtCs5ESSSXQhO3H_12regex_syntax6parserNtB2_13ParserBuilder7unicode
librustc_driver-0b75ba01aeee6012.so:_RNvMNtCs5GZdRnKtGw5_15rustc_serialize6opaqueNtB2_10MemEncoder3new
librustc_driver-0b75ba01aeee6012.so:_RNvMNtCs5GZdRnKtGw5_15rustc_serialize6opaqueNtB2_10MemEncoder6finish
librustc_driver-0b75ba01aeee6012.so:_RNvMNtCs6Xk4iZgn9ee_11miniz_oxide7inflateNtB2_11TINFLStatus8from_i32
librustc_driver-0b75ba01aeee6012.so:_RNvMNtCs7HxnJqpK5Qb_21rustc_symbol_mangling2v0NtB2_13SymbolMangler10push_ident
librustc_driver-0b75ba01aeee6012.so:_RNvMNtCs7HxnJqpK5Qb_21rustc_symbol_mangling2v0NtB2_13SymbolMangler18push_disambiguator
librustc_driver-0b75ba01aeee6012.so:_RNvMNtCs7HxnJqpK5Qb_21rustc_symbol_mangling2v0NtB2_13SymbolMangler4push
librustc_driver-0b75ba01aeee6012.so:_RNvMNtCs7HxnJqpK5Qb_21rustc_symbol_mangling6legacyNtB2_10SymbolPath26finalize_pending_component
librustc_driver-0b75ba01aeee6012.so:_RNvMNtCs7P330ktdMbn_19rustc_save_analysis10span_utilsNtB2_9SpanUtils3new
librustc_driver-0b75ba01aeee6012.so:_RNvMNtCs7P330ktdMbn_19rustc_save_analysis12dump_visitorNtB2_11DumpVisitor13process_crate
librustc_driver-0b75ba01aeee6012.so:_RNvMNtCs7P330ktdMbn_19rustc_save_analysis12dump_visitorNtB2_11DumpVisitor15dump_crate_info
librustc_driver-0b75ba01aeee6012.so:_RNvMNtCs7P330ktdMbn_19rustc_save_analysis12dump_visitorNtB2_11DumpVisitor24dump_compilation_options
librustc_driver-0b75ba01aeee6012.so:_RNvMNtCs7P330ktdMbn_19rustc_save_analysis12dump_visitorNtB2_11DumpVisitor3new
librustc_driver-0b75ba01aeee6012.so:_RNvMNtCs7P330ktdMbn_19rustc_save_analysis12dump_visitorNtB2_11DumpVisitor8analysis
librustc_driver-0b75ba01aeee6012.so:_RNvMNtCs7VFnuzYgaW2_18rustc_hir_analysis6boundsNtB2_6Bounds10predicates
librustc_driver-0b75ba01aeee6012.so:_RNvMNtCs7VFnuzYgaW2_18rustc_hir_analysis6boundsNtB2_6Bounds10push_sized
librustc_driver-0b75ba01aeee6012.so:_RNvMNtCs7VFnuzYgaW2_18rustc_hir_analysis6boundsNtB2_6Bounds16push_trait_bound
librustc_driver-0b75ba01aeee6012.so:_RNvMNtCs7VFnuzYgaW2_18rustc_hir_analysis6boundsNtB2_6Bounds17push_region_bound
librustc_driver-0b75ba01aeee6012.so:_RNvMNtCs7VFnuzYgaW2_18rustc_hir_analysis6boundsNtB2_6Bounds21push_projection_bound
librustc_driver-0b75ba01aeee6012.so:_RNvMNtCs7VFnuzYgaW2_18rustc_hir_analysis7astconvDNtB2_7AstConvEL_12ast_ty_to_ty
librustc_driver-0b75ba01aeee6012.so:_RNvMNtCs7VFnuzYgaW2_18rustc_hir_analysis7astconvDNtB2_7AstConvEL_20ast_region_to_region
librustc_driver-0b75ba01aeee6012.so:_RNvMNtCs7VFnuzYgaW2_18rustc_hir_analysis7astconvDNtB2_7AstConvEL_20ast_ty_to_ty_in_path
librustc_driver-0b75ba01aeee6012.so:_RNvMNtCs7VFnuzYgaW2_18rustc_hir_analysis7astconvDNtB2_7AstConvEL_21associated_path_to_ty
librustc_driver-0b75ba01aeee6012.so:_RNvMNtCs7VFnuzYgaW2_18rustc_hir_analysis7astconvDNtB2_7AstConvEL_22ast_path_substs_for_ty
librustc_driver-0b75ba01aeee6012.so:_RNvMNtCs7VFnuzYgaW2_18rustc_hir_analysis7astconvDNtB2_7AstConvEL_26instantiate_mono_trait_ref
librustc_driver-0b75ba01aeee6012.so:_RNvMNtCs7VFnuzYgaW2_18rustc_hir_analysis7astconvDNtB2_7AstConvEL_31def_ids_for_value_path_segments
librustc_driver-0b75ba01aeee6012.so:_RNvMNtCs7VFnuzYgaW2_18rustc_hir_analysis7astconvDNtB2_7AstConvEL_33create_substs_for_associated_item
librustc_driver-0b75ba01aeee6012.so:_RNvMNtCs7VFnuzYgaW2_18rustc_hir_analysis7astconvDNtB2_7AstConvEL_8ty_of_fn
librustc_driver-0b75ba01aeee6012.so:_RNvMNtCs7VFnuzYgaW2_18rustc_hir_analysis7astconvDNtB2_7AstConvEL_9res_to_ty
librustc_driver-0b75ba01aeee6012.so:_RNvMNtCs7VFnuzYgaW2_18rustc_hir_analysis7astconvDNtB2_7AstConvEL_9ty_of_arg
librustc_driver-0b75ba01aeee6012.so:_RNvMNtCs7nHlYWzWSzq_11rustc_parse6errorsNtB2_23ExpectedIdentifierFound3new
librustc_driver-0b75ba01aeee6012.so:_RNvMNtCs7tPUXX4pCjz_14regex_automata10sparse_impINtB2_9SparseDFAINtNtCs5vfOnImlhtK_5alloc3vec3VechEE3new
librustc_driver-0b75ba01aeee6012.so:_RNvMNtCs7tPUXX4pCjz_14regex_automata10sparse_setNtB2_9SparseSet3len
librustc_driver-0b75ba01aeee6012.so:_RNvMNtCs7tPUXX4pCjz_14regex_automata10sparse_setNtB2_9SparseSet3new
librustc_driver-0b75ba01aeee6012.so:_RNvMNtCs7tPUXX4pCjz_14regex_automata10sparse_setNtB2_9SparseSet5clear
librustc_driver-0b75ba01aeee6012.so:_RNvMNtCs7tPUXX4pCjz_14regex_automata10sparse_setNtB2_9SparseSet6insert
librustc_driver-0b75ba01aeee6012.so:_RNvMNtCs7tPUXX4pCjz_14regex_automata10sparse_setNtB2_9SparseSet8contains
librustc_driver-0b75ba01aeee6012.so:_RNvMNtCs7tPUXX4pCjz_14regex_automata3nfaNtB2_3NFA11is_anchored
librustc_driver-0b75ba01aeee6012.so:_RNvMNtCs7tPUXX4pCjz_14regex_automata3nfaNtB2_3NFA11never_match
librustc_driver-0b75ba01aeee6012.so:_RNvMNtCs7tPUXX4pCjz_14regex_automata3nfaNtB2_3NFA12always_match
librustc_driver-0b75ba01aeee6012.so:_RNvMNtCs7tPUXX4pCjz_14regex_automata3nfaNtB2_3NFA12byte_classes
librustc_driver-0b75ba01aeee6012.so:_RNvMNtCs7tPUXX4pCjz_14regex_automata3nfaNtB2_3NFA3len
librustc_driver-0b75ba01aeee6012.so:_RNvMNtCs7tPUXX4pCjz_14regex_automata3nfaNtB2_3NFA5start
librustc_driver-0b75ba01aeee6012.so:_RNvMNtCs7tPUXX4pCjz_14regex_automata3nfaNtB2_3NFA5state
librustc_driver-0b75ba01aeee6012.so:_RNvMNtCs7tPUXX4pCjz_14regex_automata5errorNtB2_5Error17state_id_overflow
librustc_driver-0b75ba01aeee6012.so:_RNvMNtCs7tPUXX4pCjz_14regex_automata5errorNtB2_5Error20premultiply_overflow
librustc_driver-0b75ba01aeee6012.so:_RNvMNtCs7tPUXX4pCjz_14regex_automata5errorNtB2_5Error25unsupported_longest_match
librustc_driver-0b75ba01aeee6012.so:_RNvMNtCs7tPUXX4pCjz_14regex_automata5errorNtB2_5Error4kind
librustc_driver-0b75ba01aeee6012.so:_RNvMNtCs7tPUXX4pCjz_14regex_automata5errorNtB2_5Error9serialize
librustc_driver-0b75ba01aeee6012.so:_RNvMNtCs7tPUXX4pCjz_14regex_automata5regexNtB2_5Regex3new
librustc_driver-0b75ba01aeee6012.so:_RNvMNtCs7tPUXX4pCjz_14regex_automata7classesNtB2_11ByteClasses10from_slice
librustc_driver-0b75ba01aeee6012.so:_RNvMNtCs7tPUXX4pCjz_14regex_automata7classesNtB2_11ByteClasses10singletons
librustc_driver-0b75ba01aeee6012.so:_RNvMNtCs7tPUXX4pCjz_14regex_automata7classesNtB2_11ByteClasses15representatives
librustc_driver-0b75ba01aeee6012.so:_RNvMNtCs7tPUXX4pCjz_14regex_automata7classesNtB2_11ByteClasses5empty
librustc_driver-0b75ba01aeee6012.so:_RNvMNtCs8QjxJP0DI7Q_8rls_span8compilerNtB2_14DiagnosticSpan8rls_span
librustc_driver-0b75ba01aeee6012.so:_RNvMNtCs8Vj2eT1fSnO_15unic_char_range5rangeNtB2_9CharRange10open_right
librustc_driver-0b75ba01aeee6012.so:_RNvMNtCs8Vj2eT1fSnO_15unic_char_range5rangeNtB2_9CharRange22assigned_normal_planes
librustc_driver-0b75ba01aeee6012.so:_RNvMNtCs8Vj2eT1fSnO_15unic_char_range5rangeNtB2_9CharRange3all
librustc_driver-0b75ba01aeee6012.so:_RNvMNtCs8Vj2eT1fSnO_15unic_char_range5rangeNtB2_9CharRange4open
librustc_driver-0b75ba01aeee6012.so:_RNvMNtCs8Vj2eT1fSnO_15unic_char_range5rangeNtB2_9CharRange6closed
librustc_driver-0b75ba01aeee6012.so:_RNvMNtCs8Vj2eT1fSnO_15unic_char_range5rangeNtB2_9CharRange9open_left
librustc_driver-0b75ba01aeee6012.so:_RNvMNtCs8lLsNL5HvpN_5gimli9constantsNtB2_6DwLang19default_lower_bound
librustc_driver-0b75ba01aeee6012.so:_RNvMNtCs8saYb8IjRm8_21rustc_data_structures11fingerprintNtB2_11Fingerprint6to_hex
librustc_driver-0b75ba01aeee6012.so:_RNvMNtCs8saYb8IjRm8_21rustc_data_structures11small_c_strNtB2_9SmallCStr7spilled
librustc_driver-0b75ba01aeee6012.so:_RNvMNtCs8saYb8IjRm8_21rustc_data_structures3svhNtB2_3Svh3new
librustc_driver-0b75ba01aeee6012.so:_RNvMNtCs8saYb8IjRm8_21rustc_data_structures3svhNtB2_3Svh6as_u64
librustc_driver-0b75ba01aeee6012.so:_RNvMNtCs8saYb8IjRm8_21rustc_data_structures3svhNtB2_3Svh9to_string
librustc_driver-0b75ba01aeee6012.so:_RNvMNtCs8saYb8IjRm8_21rustc_data_structures6sip128NtB2_12SipHasher12826slice_write_process_buffer
librustc_driver-0b75ba01aeee6012.so:_RNvMNtCs8saYb8IjRm8_21rustc_data_structures9profilingNtB2_15SelfProfilerRef24verbose_generic_activity
librustc_driver-0b75ba01aeee6012.so:_RNvMNtCs8saYb8IjRm8_21rustc_data_structures9profilingNtB2_15SelfProfilerRef26get_or_alloc_cached_string
librustc_driver-0b75ba01aeee6012.so:_RNvMNtCs8saYb8IjRm8_21rustc_data_structures9profilingNtB2_15SelfProfilerRef3new
librustc_driver-0b75ba01aeee6012.so:_RNvMNtCs8udwNclQ4om_16rustc_query_impl13on_disk_cacheNtB2_15AbsoluteBytePos8to_usize
librustc_driver-0b75ba01aeee6012.so:_RNvMNtCs93julGFyfmy_10serde_json5errorNtB2_5Error4line
librustc_driver-0b75ba01aeee6012.so:_RNvMNtCs93julGFyfmy_10serde_json5errorNtB2_5Error5is_io
librustc_driver-0b75ba01aeee6012.so:_RNvMNtCs93julGFyfmy_10serde_json5errorNtB2_5Error6column
librustc_driver-0b75ba01aeee6012.so:_RNvMNtCs93julGFyfmy_10serde_json5errorNtB2_5Error6is_eof
librustc_driver-0b75ba01aeee6012.so:_RNvMNtCs93julGFyfmy_10serde_json5errorNtB2_5Error7is_data
librustc_driver-0b75ba01aeee6012.so:_RNvMNtCs93julGFyfmy_10serde_json5errorNtB2_5Error8classify
librustc_driver-0b75ba01aeee6012.so:_RNvMNtCs93julGFyfmy_10serde_json5errorNtB2_5Error9is_syntax
librustc_driver-0b75ba01aeee6012.so:_RNvMNtCs9IVbjQok2gJ_12icu_provider3keyNtB2_11DataKeyHash17compute_from_path
librustc_driver-0b75ba01aeee6012.so:_RNvMNtCs9IVbjQok2gJ_12icu_provider3keyNtB2_11DataKeyHash8to_bytes
librustc_driver-0b75ba01aeee6012.so:_RNvMNtCs9KpYfezRtzb_9rustc_ast11tokenstreamNtB2_9TokenTree11token_alone
librustc_driver-0b75ba01aeee6012.so:_RNvMNtCs9KpYfezRtzb_9rustc_ast11tokenstreamNtB2_9TokenTree11token_joint
librustc_driver-0b75ba01aeee6012.so:_RNvMNtCs9KpYfezRtzb_9rustc_ast11tokenstreamNtB2_9TokenTree12eq_unspanned
librustc_driver-0b75ba01aeee6012.so:_RNvMNtCs9KpYfezRtzb_9rustc_ast11tokenstreamNtB2_9TokenTree13uninterpolate
librustc_driver-0b75ba01aeee6012.so:_RNvMNtCs9KpYfezRtzb_9rustc_ast11tokenstreamNtB2_9TokenTree4span
librustc_driver-0b75ba01aeee6012.so:_RNvMNtCs9KpYfezRtzb_9rustc_ast11tokenstreamNtB2_9TokenTree8set_span
librustc_driver-0b75ba01aeee6012.so:_RNvMNtCs9KpYfezRtzb_9rustc_ast4attrNtB2_11MarkedAttrs3new
librustc_driver-0b75ba01aeee6012.so:_RNvMNtCs9KpYfezRtzb_9rustc_ast4attrNtB2_11MarkedAttrs4mark
librustc_driver-0b75ba01aeee6012.so:_RNvMNtCs9KpYfezRtzb_9rustc_ast4attrNtB2_11MarkedAttrs9is_marked
librustc_driver-0b75ba01aeee6012.so:_RNvMNtCs9KpYfezRtzb_9rustc_ast5tokenNtB2_3Lit10from_token
librustc_driver-0b75ba01aeee6012.so:_RNvMNtCs9KpYfezRtzb_9rustc_ast5tokenNtB2_3Lit17is_semantic_float
librustc_driver-0b75ba01aeee6012.so:_RNvMNtCs9KpYfezRtzb_9rustc_ast5tokenNtB2_3Lit3new
librustc_driver-0b75ba01aeee6012.so:_RNvMNtCs9KpYfezRtzb_9rustc_ast5visitNtB2_6FnKind4ctxt
librustc_driver-0b75ba01aeee6012.so:_RNvMNtCs9KpYfezRtzb_9rustc_ast5visitNtB2_6FnKind4decl
librustc_driver-0b75ba01aeee6012.so:_RNvMNtCs9KpYfezRtzb_9rustc_ast5visitNtB2_6FnKind5ident
librustc_driver-0b75ba01aeee6012.so:_RNvMNtCs9KpYfezRtzb_9rustc_ast5visitNtB2_6FnKind6header
librustc_driver-0b75ba01aeee6012.so:_RNvMNtCs9KpYfezRtzb_9rustc_ast7node_idNtB2_6NodeId22placeholder_to_expn_id
librustc_driver-0b75ba01aeee6012.so:_RNvMNtCs9KpYfezRtzb_9rustc_ast7node_idNtB2_6NodeId24placeholder_from_expn_id
librustc_driver-0b75ba01aeee6012.so:_RNvMNtCs9UaAlnGT11v_12rustc_middle2tyNtB2_14MainDefinition13opt_fn_def_id
librustc_driver-0b75ba01aeee6012.so:_RNvMNtCs9UaAlnGT11v_12rustc_middle4lintNtB2_15LintLevelSource4name
librustc_driver-0b75ba01aeee6012.so:_RNvMNtCs9UaAlnGT11v_12rustc_middle4lintNtB2_15LintLevelSource4span
librustc_driver-0b75ba01aeee6012.so:_RNvMNtCs9UaAlnGT11v_12rustc_middle4thirNtB2_3Pat12simple_ident
librustc_driver-0b75ba01aeee6012.so:_RNvMNtCs9UaAlnGT11v_12rustc_middle4thirNtB2_3Pat16wildcard_from_ty
librustc_driver-0b75ba01aeee6012.so:_RNvMNtCs9Yk5q5as75h_10rustc_lint25hidden_unicode_codepointsNtB2_23HiddenUnicodeCodepoints29lint_text_direction_codepoint
librustc_driver-0b75ba01aeee6012.so:_RNvMNtCs9Yk5q5as75h_10rustc_lint7contextNtB2_9LintStore10find_lints
librustc_driver-0b75ba01aeee6012.so:_RNvMNtCs9Yk5q5as75h_10rustc_lint7contextNtB2_9LintStore13is_lint_group
librustc_driver-0b75ba01aeee6012.so:_RNvMNtCs9Yk5q5as75h_10rustc_lint7contextNtB2_9LintStore14register_group
librustc_driver-0b75ba01aeee6012.so:_RNvMNtCs9Yk5q5as75h_10rustc_lint7contextNtB2_9LintStore14register_lints
librustc_driver-0b75ba01aeee6012.so:_RNvMNtCs9Yk5q5as75h_10rustc_lint7contextNtB2_9LintStore15check_lint_name
librustc_driver-0b75ba01aeee6012.so:_RNvMNtCs9Yk5q5as75h_10rustc_lint7contextNtB2_9LintStore15get_lint_groups
librustc_driver-0b75ba01aeee6012.so:_RNvMNtCs9Yk5q5as75h_10rustc_lint7contextNtB2_9LintStore16register_ignored
librustc_driver-0b75ba01aeee6012.so:_RNvMNtCs9Yk5q5as75h_10rustc_lint7contextNtB2_9LintStore16register_removed
librustc_driver-0b75ba01aeee6012.so:_RNvMNtCs9Yk5q5as75h_10rustc_lint7contextNtB2_9LintStore16register_renamed
librustc_driver-0b75ba01aeee6012.so:_RNvMNtCs9Yk5q5as75h_10rustc_lint7contextNtB2_9LintStore20register_group_alias
librustc_driver-0b75ba01aeee6012.so:_RNvMNtCs9Yk5q5as75h_10rustc_lint7contextNtB2_9LintStore23check_lint_name_cmdline
librustc_driver-0b75ba01aeee6012.so:_RNvMNtCs9Yk5q5as75h_10rustc_lint7contextNtB2_9LintStore3new
librustc_driver-0b75ba01aeee6012.so:_RNvMNtCs9Yk5q5as75h_10rustc_lint7contextNtB2_9LintStore9get_lints
librustc_driver-0b75ba01aeee6012.so:_RNvMNtCs9fJVnCDuQRQ_9rustc_hir10intravisitNtB2_6FnKind6header
librustc_driver-0b75ba01aeee6012.so:_RNvMNtCs9fJVnCDuQRQ_9rustc_hir10intravisitNtB2_6FnKind9asyncness
librustc_driver-0b75ba01aeee6012.so:_RNvMNtCs9fJVnCDuQRQ_9rustc_hir10intravisitNtB2_6FnKind9constness
librustc_driver-0b75ba01aeee6012.so:_RNvMNtCs9fJVnCDuQRQ_9rustc_hir10lang_itemsNtB2_13LanguageItems3get
librustc_driver-0b75ba01aeee6012.so:_RNvMNtCs9fJVnCDuQRQ_9rustc_hir10lang_itemsNtB2_13LanguageItems3new
librustc_driver-0b75ba01aeee6012.so:_RNvMNtCs9fJVnCDuQRQ_9rustc_hir10lang_itemsNtB2_13LanguageItems3set
librustc_driver-0b75ba01aeee6012.so:_RNvMNtCs9fJVnCDuQRQ_9rustc_hir10lang_itemsNtB2_13LanguageItems4iter
librustc_driver-0b75ba01aeee6012.so:_RNvMNtCs9fJVnCDuQRQ_9rustc_hir10lang_itemsNtB2_13LanguageItems7require
librustc_driver-0b75ba01aeee6012.so:_RNvMNtCs9fJVnCDuQRQ_9rustc_hir11definitionsNtB2_12DefPathTable31enumerated_keys_and_path_hashes
librustc_driver-0b75ba01aeee6012.so:_RNvMNtCs9fJVnCDuQRQ_9rustc_hir15weak_lang_itemsNtNtB4_10lang_items8LangItem7is_weak
librustc_driver-0b75ba01aeee6012.so:_RNvMNtCs9fJVnCDuQRQ_9rustc_hir15weak_lang_itemsNtNtB4_10lang_items8LangItem9link_name
librustc_driver-0b75ba01aeee6012.so:_RNvMNtCs9fJVnCDuQRQ_9rustc_hir3defNtB2_7DefKind17has_codegen_attrs
librustc_driver-0b75ba01aeee6012.so:_RNvMNtCs9fJVnCDuQRQ_9rustc_hir3defNtB2_7DefKind2ns
librustc_driver-0b75ba01aeee6012.so:_RNvMNtCs9fJVnCDuQRQ_9rustc_hir3defNtB2_7DefKind5descr
librustc_driver-0b75ba01aeee6012.so:_RNvMNtCs9fJVnCDuQRQ_9rustc_hir3defNtB2_7DefKind7article
librustc_driver-0b75ba01aeee6012.so:_RNvMNtCs9fJVnCDuQRQ_9rustc_hir3hirNtB2_9ParamName23normalize_to_macros_2_0
librustc_driver-0b75ba01aeee6012.so:_RNvMNtCs9fJVnCDuQRQ_9rustc_hir3hirNtB2_9ParamName5ident
librustc_driver-0b75ba01aeee6012.so:_RNvMNtCs9puRwE6Jrst_14rustc_borrowck8locationNtB2_13LocationTable10all_points
librustc_driver-0b75ba01aeee6012.so:_RNvMNtCs9puRwE6Jrst_14rustc_borrowck8locationNtB2_13LocationTable11start_index
librustc_driver-0b75ba01aeee6012.so:_RNvMNtCs9puRwE6Jrst_14rustc_borrowck8locationNtB2_13LocationTable11to_location
librustc_driver-0b75ba01aeee6012.so:_RNvMNtCs9puRwE6Jrst_14rustc_borrowck8locationNtB2_13LocationTable9mid_index
librustc_driver-0b75ba01aeee6012.so:_RNvMNtCs9xF1GXCZqXD_18rustc_mir_dataflow15elaborate_dropsNtB2_13DropFlagState5value
librustc_driver-0b75ba01aeee6012.so:_RNvMNtCs9xF1GXCZqXD_18rustc_mir_dataflow5implsNtB2_22MaybeInitializedPlaces3new
librustc_driver-0b75ba01aeee6012.so:_RNvMNtCsBLdkomj5WW_13rustc_session10code_statsNtB2_9CodeStats16print_type_sizes
librustc_driver-0b75ba01aeee6012.so:_RNvMNtCsBLdkomj5WW_13rustc_session10filesearchNtB2_10FileSearch12get_lib_path
librustc_driver-0b75ba01aeee6012.so:_RNvMNtCsBLdkomj5WW_13rustc_session10filesearchNtB2_10FileSearch12search_paths
librustc_driver-0b75ba01aeee6012.so:_RNvMNtCsBLdkomj5WW_13rustc_session10filesearchNtB2_10FileSearch16search_path_dirs
librustc_driver-0b75ba01aeee6012.so:_RNvMNtCsBLdkomj5WW_13rustc_session10filesearchNtB2_10FileSearch27get_self_contained_lib_path
librustc_driver-0b75ba01aeee6012.so:_RNvMNtCsBLdkomj5WW_13rustc_session10filesearchNtB2_10FileSearch3new
librustc_driver-0b75ba01aeee6012.so:_RNvMNtCsBLdkomj5WW_13rustc_session12search_pathsNtB2_8PathKind7matches
librustc_driver-0b75ba01aeee6012.so:_RNvMNtCsBLdkomj5WW_13rustc_session5parseNtB2_10GatedSpans10is_ungated
librustc_driver-0b75ba01aeee6012.so:_RNvMNtCsBLdkomj5WW_13rustc_session5parseNtB2_10GatedSpans11ungate_last
librustc_driver-0b75ba01aeee6012.so:_RNvMNtCsBLdkomj5WW_13rustc_session5parseNtB2_10GatedSpans4gate
librustc_driver-0b75ba01aeee6012.so:_RNvMNtCsBLdkomj5WW_13rustc_session5parseNtB2_10GatedSpans5merge
librustc_driver-0b75ba01aeee6012.so:_RNvMNtCsBLdkomj5WW_13rustc_session5utilsNtNtB4_7session7Session5timer
librustc_driver-0b75ba01aeee6012.so:_RNvMNtCsBLdkomj5WW_13rustc_session6configNtB2_15LinkerPluginLto7enabled
librustc_driver-0b75ba01aeee6012.so:_RNvMNtCsBLdkomj5WW_13rustc_session6errorsNtB2_21ExprParenthesesNeeded11surrounding
librustc_driver-0b75ba01aeee6012.so:_RNvMNtCsBLdkomj5WW_13rustc_session7optionsNtB2_14CodegenOptions19instrument_coverage
librustc_driver-0b75ba01aeee6012.so:_RNvMNtCsBLdkomj5WW_13rustc_session7sessionNtB2_5Limit3new
librustc_driver-0b75ba01aeee6012.so:_RNvMNtCsNX45m2jpYM_12aho_corasick5errorNtB2_5Error17state_id_overflow
librustc_driver-0b75ba01aeee6012.so:_RNvMNtCsNX45m2jpYM_12aho_corasick5errorNtB2_5Error20premultiply_overflow
librustc_driver-0b75ba01aeee6012.so:_RNvMNtCsNX45m2jpYM_12aho_corasick5errorNtB2_5Error4kind
librustc_driver-0b75ba01aeee6012.so:_RNvMNtCsNX45m2jpYM_12aho_corasick6bufferNtB2_6Buffer11free_buffer
librustc_driver-0b75ba01aeee6012.so:_RNvMNtCsNX45m2jpYM_12aho_corasick6bufferNtB2_6Buffer3new
librustc_driver-0b75ba01aeee6012.so:_RNvMNtCsNX45m2jpYM_12aho_corasick6bufferNtB2_6Buffer4roll
librustc_driver-0b75ba01aeee6012.so:_RNvMNtCsNX45m2jpYM_12aho_corasick7classesNtB2_11ByteClasses10singletons
librustc_driver-0b75ba01aeee6012.so:_RNvMNtCsNX45m2jpYM_12aho_corasick7classesNtB2_11ByteClasses15representatives
librustc_driver-0b75ba01aeee6012.so:_RNvMNtCsNX45m2jpYM_12aho_corasick9prefilterNtB2_9Candidate11into_option
librustc_driver-0b75ba01aeee6012.so:_RNvMNtCsbQyOJncyArB_8tempfile3dirNtB2_7TempDir3new
librustc_driver-0b75ba01aeee6012.so:_RNvMNtCsbQyOJncyArB_8tempfile3dirNtB2_7TempDir4path
librustc_driver-0b75ba01aeee6012.so:_RNvMNtCsbQyOJncyArB_8tempfile3dirNtB2_7TempDir5close
librustc_driver-0b75ba01aeee6012.so:_RNvMNtCsbQyOJncyArB_8tempfile3dirNtB2_7TempDir9into_path
librustc_driver-0b75ba01aeee6012.so:_RNvMNtCsbQyOJncyArB_8tempfile7spooledNtB2_15SpooledTempFile10into_inner
librustc_driver-0b75ba01aeee6012.so:_RNvMNtCsbQyOJncyArB_8tempfile7spooledNtB2_15SpooledTempFile3new
librustc_driver-0b75ba01aeee6012.so:_RNvMNtCsbQyOJncyArB_8tempfile7spooledNtB2_15SpooledTempFile4roll
librustc_driver-0b75ba01aeee6012.so:_RNvMNtCsbQyOJncyArB_8tempfile7spooledNtB2_15SpooledTempFile7set_len
librustc_driver-0b75ba01aeee6012.so:_RNvMNtCsbQyOJncyArB_8tempfile7spooledNtB2_15SpooledTempFile9is_rolled
librustc_driver-0b75ba01aeee6012.so:_RNvMNtCscWnDxcYUTll_7tinystr7int_opsNtB2_8Aligned416is_ascii_numeric
librustc_driver-0b75ba01aeee6012.so:_RNvMNtCscWnDxcYUTll_7tinystr7int_opsNtB2_8Aligned418is_ascii_lowercase
librustc_driver-0b75ba01aeee6012.so:_RNvMNtCscWnDxcYUTll_7tinystr7int_opsNtB2_8Aligned418is_ascii_titlecase
librustc_driver-0b75ba01aeee6012.so:_RNvMNtCscWnDxcYUTll_7tinystr7int_opsNtB2_8Aligned418is_ascii_uppercase
librustc_driver-0b75ba01aeee6012.so:_RNvMNtCscWnDxcYUTll_7tinystr7int_opsNtB2_8Aligned418to_ascii_lowercase
librustc_driver-0b75ba01aeee6012.so:_RNvMNtCscWnDxcYUTll_7tinystr7int_opsNtB2_8Aligned418to_ascii_titlecase
librustc_driver-0b75ba01aeee6012.so:_RNvMNtCscWnDxcYUTll_7tinystr7int_opsNtB2_8Aligned418to_ascii_uppercase
librustc_driver-0b75ba01aeee6012.so:_RNvMNtCscWnDxcYUTll_7tinystr7int_opsNtB2_8Aligned419is_ascii_alphabetic
librustc_driver-0b75ba01aeee6012.so:_RNvMNtCscWnDxcYUTll_7tinystr7int_opsNtB2_8Aligned421is_ascii_alphanumeric
librustc_driver-0b75ba01aeee6012.so:_RNvMNtCscWnDxcYUTll_7tinystr7int_opsNtB2_8Aligned429is_ascii_alphabetic_lowercase
librustc_driver-0b75ba01aeee6012.so:_RNvMNtCscWnDxcYUTll_7tinystr7int_opsNtB2_8Aligned429is_ascii_alphabetic_titlecase
librustc_driver-0b75ba01aeee6012.so:_RNvMNtCscWnDxcYUTll_7tinystr7int_opsNtB2_8Aligned429is_ascii_alphabetic_uppercase
librustc_driver-0b75ba01aeee6012.so:_RNvMNtCscWnDxcYUTll_7tinystr7int_opsNtB2_8Aligned43len
librustc_driver-0b75ba01aeee6012.so:_RNvMNtCscefVdIc028Y_11tracing_log10log_tracerNtB2_9LogTracer16init_with_filter
librustc_driver-0b75ba01aeee6012.so:_RNvMNtCscefVdIc028Y_11tracing_log10log_tracerNtB2_9LogTracer3new
librustc_driver-0b75ba01aeee6012.so:_RNvMNtCscefVdIc028Y_11tracing_log10log_tracerNtB2_9LogTracer4init
librustc_driver-0b75ba01aeee6012.so:_RNvMNtCscefVdIc028Y_11tracing_log10log_tracerNtB2_9LogTracer7builder
librustc_driver-0b75ba01aeee6012.so:_RNvMNtCscefVdIc028Y_11tracing_log12trace_loggerNtB2_11TraceLogger3new
librustc_driver-0b75ba01aeee6012.so:_RNvMNtCscefVdIc028Y_11tracing_log12trace_loggerNtB2_11TraceLogger7builder
librustc_driver-0b75ba01aeee6012.so:_RNvMNtCsczMUV2s8Ncb_12rustc_errors4jsonNtB2_11JsonEmitter10ui_testing
librustc_driver-0b75ba01aeee6012.so:_RNvMNtCsczMUV2s8Ncb_12rustc_errors4jsonNtB2_11JsonEmitter3new
librustc_driver-0b75ba01aeee6012.so:_RNvMNtCsczMUV2s8Ncb_12rustc_errors4jsonNtB2_11JsonEmitter5basic
librustc_driver-0b75ba01aeee6012.so:_RNvMNtCsczMUV2s8Ncb_12rustc_errors4jsonNtB2_11JsonEmitter6stderr
librustc_driver-0b75ba01aeee6012.so:_RNvMNtCsczMUV2s8Ncb_12rustc_errors5errorNtB2_14TranslateError3and
librustc_driver-0b75ba01aeee6012.so:_RNvMNtCsczMUV2s8Ncb_12rustc_errors5errorNtB2_14TranslateError5value
librustc_driver-0b75ba01aeee6012.so:_RNvMNtCsczMUV2s8Ncb_12rustc_errors5errorNtB2_14TranslateError6fluent
librustc_driver-0b75ba01aeee6012.so:_RNvMNtCsczMUV2s8Ncb_12rustc_errors5errorNtB2_14TranslateError7message
librustc_driver-0b75ba01aeee6012.so:_RNvMNtCsczMUV2s8Ncb_12rustc_errors5errorNtB2_14TranslateError7primary
librustc_driver-0b75ba01aeee6012.so:_RNvMNtCsczMUV2s8Ncb_12rustc_errors5errorNtB2_14TranslateError9attribute
librustc_driver-0b75ba01aeee6012.so:_RNvMNtCsczMUV2s8Ncb_12rustc_errors7emitterNtB2_22HumanReadableErrorType11new_emitter
librustc_driver-0b75ba01aeee6012.so:_RNvMNtCsczMUV2s8Ncb_12rustc_errors7emitterNtB2_22HumanReadableErrorType5unzip
librustc_driver-0b75ba01aeee6012.so:_RNvMNtCsczMUV2s8Ncb_12rustc_errors8registryNtB2_8Registry20try_find_description
librustc_driver-0b75ba01aeee6012.so:_RNvMNtCsczMUV2s8Ncb_12rustc_errors8registryNtB2_8Registry3new
librustc_driver-0b75ba01aeee6012.so:_RNvMNtCsdSVoBVyZlHf_9measureme8countersNtB2_7Counter16describe_as_json
librustc_driver-0b75ba01aeee6012.so:_RNvMNtCsdSVoBVyZlHf_9measureme8countersNtB2_7Counter7by_name
librustc_driver-0b75ba01aeee6012.so:_RNvMNtCsdSVoBVyZlHf_9measureme8profilerNtB2_8Profiler16record_raw_event
librustc_driver-0b75ba01aeee6012.so:_RNvMNtCsdSVoBVyZlHf_9measureme8profilerNtB2_8Profiler20record_instant_event
librustc_driver-0b75ba01aeee6012.so:_RNvMNtCsdSVoBVyZlHf_9measureme8profilerNtB2_8Profiler20record_integer_event
librustc_driver-0b75ba01aeee6012.so:_RNvMNtCsdSVoBVyZlHf_9measureme8profilerNtB2_8Profiler31finish_recording_interval_event
librustc_driver-0b75ba01aeee6012.so:_RNvMNtCse1REIuXuKCi_5gsgdt11multi_graphNtB2_10MultiGraph3new
librustc_driver-0b75ba01aeee6012.so:_RNvMNtCsePhPwSoZdwI_13intl_memoizer10concurrentNtB2_16IntlLangMemoizer3new
librustc_driver-0b75ba01aeee6012.so:_RNvMNtCsee4YmzppDub_9twox_hash4xxh3NtB2_6Hash649with_seed
librustc_driver-0b75ba01aeee6012.so:_RNvMNtCserdW9TeaKDe_11rustc_infer6traitsINtB2_10ObligationNtNtCs9UaAlnGT11v_12rustc_middle2ty9PredicateE13flip_polarity
librustc_driver-0b75ba01aeee6012.so:_RNvMNtCserdW9TeaKDe_11rustc_infer6traitsINtB2_10ObligationNtNtCs9UaAlnGT11v_12rustc_middle2ty9PredicateE13without_const
librustc_driver-0b75ba01aeee6012.so:_RNvMNtCsf8791Mi6qoe_12tracing_core4spanNtB2_2Id8from_u64
librustc_driver-0b75ba01aeee6012.so:_RNvMNtCsf8791Mi6qoe_12tracing_core4spanNtB2_2Id8into_u64
librustc_driver-0b75ba01aeee6012.so:_RNvMNtCsf8791Mi6qoe_12tracing_core5eventNtB2_5Event13is_contextual
librustc_driver-0b75ba01aeee6012.so:_RNvMNtCsf8791Mi6qoe_12tracing_core5eventNtB2_5Event6fields
librustc_driver-0b75ba01aeee6012.so:_RNvMNtCsf8791Mi6qoe_12tracing_core5eventNtB2_5Event6parent
librustc_driver-0b75ba01aeee6012.so:_RNvMNtCsf8791Mi6qoe_12tracing_core5eventNtB2_5Event7is_root
librustc_driver-0b75ba01aeee6012.so:_RNvMNtCsf8791Mi6qoe_12tracing_core5eventNtB2_5Event8dispatch
librustc_driver-0b75ba01aeee6012.so:_RNvMNtCsf8791Mi6qoe_12tracing_core5eventNtB2_5Event8metadata
librustc_driver-0b75ba01aeee6012.so:_RNvMNtCsf8791Mi6qoe_12tracing_core8callsiteNtB2_15DefaultCallsite3new
librustc_driver-0b75ba01aeee6012.so:_RNvMNtCsf8791Mi6qoe_12tracing_core8callsiteNtB2_15DefaultCallsite8register
librustc_driver-0b75ba01aeee6012.so:_RNvMNtCsf8791Mi6qoe_12tracing_core8metadataNtB2_8Metadata11module_path
librustc_driver-0b75ba01aeee6012.so:_RNvMNtCsf8791Mi6qoe_12tracing_core8metadataNtB2_8Metadata3new
librustc_driver-0b75ba01aeee6012.so:_RNvMNtCsf8791Mi6qoe_12tracing_core8metadataNtB2_8Metadata4file
librustc_driver-0b75ba01aeee6012.so:_RNvMNtCsf8791Mi6qoe_12tracing_core8metadataNtB2_8Metadata4line
librustc_driver-0b75ba01aeee6012.so:_RNvMNtCsf8791Mi6qoe_12tracing_core8metadataNtB2_8Metadata4name
librustc_driver-0b75ba01aeee6012.so:_RNvMNtCsf8791Mi6qoe_12tracing_core8metadataNtB2_8Metadata5level
librustc_driver-0b75ba01aeee6012.so:_RNvMNtCsf8791Mi6qoe_12tracing_core8metadataNtB2_8Metadata6fields
librustc_driver-0b75ba01aeee6012.so:_RNvMNtCsf8791Mi6qoe_12tracing_core8metadataNtB2_8Metadata6target
librustc_driver-0b75ba01aeee6012.so:_RNvMNtCsf8791Mi6qoe_12tracing_core8metadataNtB2_8Metadata7is_span
librustc_driver-0b75ba01aeee6012.so:_RNvMNtCsf8791Mi6qoe_12tracing_core8metadataNtB2_8Metadata8is_event
librustc_driver-0b75ba01aeee6012.so:_RNvMNtCsfTtTHHdmSly_7tracing4spanNtB2_4Span10or_current
librustc_driver-0b75ba01aeee6012.so:_RNvMNtCsfTtTHHdmSly_7tracing4spanNtB2_4Span10record_all
librustc_driver-0b75ba01aeee6012.so:_RNvMNtCsfTtTHHdmSly_7tracing4spanNtB2_4Span2id
librustc_driver-0b75ba01aeee6012.so:_RNvMNtCsfTtTHHdmSly_7tracing4spanNtB2_4Span3new
librustc_driver-0b75ba01aeee6012.so:_RNvMNtCsfTtTHHdmSly_7tracing4spanNtB2_4Span7current
librustc_driver-0b75ba01aeee6012.so:_RNvMNtCsfTtTHHdmSly_7tracing4spanNtB2_4Span8metadata
librustc_driver-0b75ba01aeee6012.so:_RNvMNtCsfTtTHHdmSly_7tracing4spanNtB2_4Span8new_root
librustc_driver-0b75ba01aeee6012.so:_RNvMNtCsfTtTHHdmSly_7tracing4spanNtB2_4Span9make_with
librustc_driver-0b75ba01aeee6012.so:_RNvMNtCsfoFF2VvnVQT_14rustc_metadata6errorsNtB2_20MissingNativeLibrary3new
librustc_driver-0b75ba01aeee6012.so:_RNvMNtCsfvMwm3M2twT_12tracing_tree6formatNtB2_6Config12with_targets
librustc_driver-0b75ba01aeee6012.so:_RNvMNtCsfvMwm3M2twT_12tracing_tree6formatNtB2_6Config15with_thread_ids
librustc_driver-0b75ba01aeee6012.so:_RNvMNtCsfvMwm3M2twT_12tracing_tree6formatNtB2_6Config15with_wraparound
librustc_driver-0b75ba01aeee6012.so:_RNvMNtCsfvMwm3M2twT_12tracing_tree6formatNtB2_6Config17with_indent_lines
librustc_driver-0b75ba01aeee6012.so:_RNvMNtCsfvMwm3M2twT_12tracing_tree6formatNtB2_6Config17with_thread_names
librustc_driver-0b75ba01aeee6012.so:_RNvMNtCsfvMwm3M2twT_12tracing_tree6formatNtB2_6Config17with_verbose_exit
librustc_driver-0b75ba01aeee6012.so:_RNvMNtCsfvMwm3M2twT_12tracing_tree6formatNtB2_6Config18with_verbose_entry
librustc_driver-0b75ba01aeee6012.so:_RNvMNtCsfvMwm3M2twT_12tracing_tree6formatNtB2_6Config21with_bracketed_fields
librustc_driver-0b75ba01aeee6012.so:_RNvMNtCsfvMwm3M2twT_12tracing_tree6formatNtB2_6Config9with_ansi
librustc_driver-0b75ba01aeee6012.so:_RNvMNtCsgOwEnlkkb0y_16rustc_hir_typeck11expectationNtB2_11Expectation9to_option
librustc_driver-0b75ba01aeee6012.so:_RNvMNtCsgOwEnlkkb0y_16rustc_hir_typeck11intrinsicckNtNtB4_7fn_ctxt6FnCtxt15check_transmute
librustc_driver-0b75ba01aeee6012.so:_RNvMNtCsgOwEnlkkb0y_16rustc_hir_typeck16expr_use_visitorNtB2_14ExprUseVisitor12consume_body
librustc_driver-0b75ba01aeee6012.so:_RNvMNtCsgOwEnlkkb0y_16rustc_hir_typeck16expr_use_visitorNtB2_14ExprUseVisitor12consume_expr
librustc_driver-0b75ba01aeee6012.so:_RNvMNtCsgOwEnlkkb0y_16rustc_hir_typeck16expr_use_visitorNtB2_14ExprUseVisitor3new
librustc_driver-0b75ba01aeee6012.so:_RNvMNtCsgOwEnlkkb0y_16rustc_hir_typeck16expr_use_visitorNtB2_14ExprUseVisitor9walk_expr
librustc_driver-0b75ba01aeee6012.so:_RNvMNtCsgOwEnlkkb0y_16rustc_hir_typeck2opNtNtB4_7fn_ctxt6FnCtxt11check_binop
librustc_driver-0b75ba01aeee6012.so:_RNvMNtCsgOwEnlkkb0y_16rustc_hir_typeck2opNtNtB4_7fn_ctxt6FnCtxt15check_user_unop
librustc_driver-0b75ba01aeee6012.so:_RNvMNtCsgOwEnlkkb0y_16rustc_hir_typeck2opNtNtB4_7fn_ctxt6FnCtxt18check_binop_assign
librustc_driver-0b75ba01aeee6012.so:_RNvMNtCsgOwEnlkkb0y_16rustc_hir_typeck4exprNtNtB4_7fn_ctxt6FnCtxt27check_expr_with_expectation
librustc_driver-0b75ba01aeee6012.so:_RNvMNtCsgOwEnlkkb0y_16rustc_hir_typeck5upvarNtNtB4_7fn_ctxt6FnCtxt15closure_analyze
librustc_driver-0b75ba01aeee6012.so:_RNvMNtCsgOwEnlkkb0y_16rustc_hir_typeck6__matchNtNtB4_7fn_ctxt6FnCtxt11check_match
librustc_driver-0b75ba01aeee6012.so:_RNvMNtCsgOwEnlkkb0y_16rustc_hir_typeck6calleeNtNtB4_7fn_ctxt6FnCtxt10check_call
librustc_driver-0b75ba01aeee6012.so:_RNvMNtCsgOwEnlkkb0y_16rustc_hir_typeck6demandNtNtB4_7fn_ctxt6FnCtxt13demand_coerce
librustc_driver-0b75ba01aeee6012.so:_RNvMNtCsgOwEnlkkb0y_16rustc_hir_typeck6demandNtNtB4_7fn_ctxt6FnCtxt13demand_eqtype
librustc_driver-0b75ba01aeee6012.so:_RNvMNtCsgOwEnlkkb0y_16rustc_hir_typeck6demandNtNtB4_7fn_ctxt6FnCtxt14check_for_cast
librustc_driver-0b75ba01aeee6012.so:_RNvMNtCsgOwEnlkkb0y_16rustc_hir_typeck6demandNtNtB4_7fn_ctxt6FnCtxt14demand_suptype
librustc_driver-0b75ba01aeee6012.so:_RNvMNtCsgOwEnlkkb0y_16rustc_hir_typeck6demandNtNtB4_7fn_ctxt6FnCtxt18demand_coerce_diag
librustc_driver-0b75ba01aeee6012.so:_RNvMNtCsgOwEnlkkb0y_16rustc_hir_typeck6demandNtNtB4_7fn_ctxt6FnCtxt18demand_eqtype_diag
librustc_driver-0b75ba01aeee6012.so:_RNvMNtCsgOwEnlkkb0y_16rustc_hir_typeck6demandNtNtB4_7fn_ctxt6FnCtxt19demand_suptype_diag
librustc_driver-0b75ba01aeee6012.so:_RNvMNtCsgOwEnlkkb0y_16rustc_hir_typeck6demandNtNtB4_7fn_ctxt6FnCtxt22get_conversion_methods
librustc_driver-0b75ba01aeee6012.so:_RNvMNtCsgOwEnlkkb0y_16rustc_hir_typeck6demandNtNtB4_7fn_ctxt6FnCtxt23emit_coerce_suggestions
librustc_driver-0b75ba01aeee6012.so:_RNvMNtCsgOwEnlkkb0y_16rustc_hir_typeck6demandNtNtB4_7fn_ctxt6FnCtxt25demand_eqtype_with_origin
librustc_driver-0b75ba01aeee6012.so:_RNvMNtCsgOwEnlkkb0y_16rustc_hir_typeck6demandNtNtB4_7fn_ctxt6FnCtxt26demand_suptype_with_origin
librustc_driver-0b75ba01aeee6012.so:_RNvMNtCsgOwEnlkkb0y_16rustc_hir_typeck6demandNtNtB4_7fn_ctxt6FnCtxt30check_for_range_as_method_call
librustc_driver-0b75ba01aeee6012.so:_RNvMNtCsgOwEnlkkb0y_16rustc_hir_typeck6demandNtNtB4_7fn_ctxt6FnCtxt30emit_type_mismatch_suggestions
librustc_driver-0b75ba01aeee6012.so:_RNvMNtCsgOwEnlkkb0y_16rustc_hir_typeck6demandNtNtB4_7fn_ctxt6FnCtxt9check_ref
librustc_driver-0b75ba01aeee6012.so:_RNvMNtCsgOwEnlkkb0y_16rustc_hir_typeck6methodNtNtB4_7fn_ctxt6FnCtxt12lookup_probe
librustc_driver-0b75ba01aeee6012.so:_RNvMNtCsgOwEnlkkb0y_16rustc_hir_typeck6methodNtNtB4_7fn_ctxt6FnCtxt13lookup_method
librustc_driver-0b75ba01aeee6012.so:_RNvMNtCsgOwEnlkkb0y_16rustc_hir_typeck6methodNtNtB4_7fn_ctxt6FnCtxt13method_exists
librustc_driver-0b75ba01aeee6012.so:_RNvMNtCsgOwEnlkkb0y_16rustc_hir_typeck6methodNtNtB4_7fn_ctxt6FnCtxt16associated_value
librustc_driver-0b75ba01aeee6012.so:_RNvMNtCsgOwEnlkkb0y_16rustc_hir_typeck6methodNtNtB4_7fn_ctxt6FnCtxt27lookup_probe_for_diagnostic
librustc_driver-0b75ba01aeee6012.so:_RNvMNtCsgOwEnlkkb0y_16rustc_hir_typeck6methodNtNtB4_7fn_ctxt6FnCtxt28resolve_fully_qualified_call
librustc_driver-0b75ba01aeee6012.so:_RNvMNtCsgOwEnlkkb0y_16rustc_hir_typeck7closureNtNtB4_7fn_ctxt6FnCtxt18check_expr_closure
librustc_driver-0b75ba01aeee6012.so:_RNvMNtCsgOwEnlkkb0y_16rustc_hir_typeck7fn_ctxtNtB2_6FnCtxt30errors_reported_since_creation
librustc_driver-0b75ba01aeee6012.so:_RNvMNtCsgOwEnlkkb0y_16rustc_hir_typeck7fn_ctxtNtB2_6FnCtxt3new
librustc_driver-0b75ba01aeee6012.so:_RNvMNtCsgOwEnlkkb0y_16rustc_hir_typeck7fn_ctxtNtB2_6FnCtxt4misc
librustc_driver-0b75ba01aeee6012.so:_RNvMNtCsgOwEnlkkb0y_16rustc_hir_typeck7fn_ctxtNtB2_6FnCtxt4sess
librustc_driver-0b75ba01aeee6012.so:_RNvMNtCsgOwEnlkkb0y_16rustc_hir_typeck7fn_ctxtNtB2_6FnCtxt5cause
librustc_driver-0b75ba01aeee6012.so:_RNvMNtCsgOwEnlkkb0y_16rustc_hir_typeck7fn_ctxtNtB2_6FnCtxt8err_ctxt
librustc_driver-0b75ba01aeee6012.so:_RNvMNtCsgOwEnlkkb0y_16rustc_hir_typeck8place_opNtNtB4_7fn_ctxt6FnCtxt31convert_place_derefs_to_mutable
librustc_driver-0b75ba01aeee6012.so:_RNvMNtCsgOwEnlkkb0y_16rustc_hir_typeck9autoderefNtNtB4_7fn_ctxt6FnCtxt12adjust_steps
librustc_driver-0b75ba01aeee6012.so:_RNvMNtCsgOwEnlkkb0y_16rustc_hir_typeck9autoderefNtNtB4_7fn_ctxt6FnCtxt20try_overloaded_deref
librustc_driver-0b75ba01aeee6012.so:_RNvMNtCsgOwEnlkkb0y_16rustc_hir_typeck9autoderefNtNtB4_7fn_ctxt6FnCtxt24adjust_steps_as_infer_ok
librustc_driver-0b75ba01aeee6012.so:_RNvMNtCsgOwEnlkkb0y_16rustc_hir_typeck9autoderefNtNtB4_7fn_ctxt6FnCtxt9autoderef
librustc_driver-0b75ba01aeee6012.so:_RNvMNtCsgOwEnlkkb0y_16rustc_hir_typeck9writebackNtNtB4_7fn_ctxt6FnCtxt25resolve_type_vars_in_body
librustc_driver-0b75ba01aeee6012.so:_RNvMNtCsgagdyLd23oY_4snap10decompressNtB2_7Decoder10decompress
librustc_driver-0b75ba01aeee6012.so:_RNvMNtCsgagdyLd23oY_4snap10decompressNtB2_7Decoder14decompress_vec
librustc_driver-0b75ba01aeee6012.so:_RNvMNtCsgagdyLd23oY_4snap10decompressNtB2_7Decoder3new
librustc_driver-0b75ba01aeee6012.so:_RNvMNtCsgagdyLd23oY_4snap5crc32NtB2_11CheckSummer13crc32c_masked
librustc_driver-0b75ba01aeee6012.so:_RNvMNtCsgagdyLd23oY_4snap5crc32NtB2_11CheckSummer3new
librustc_driver-0b75ba01aeee6012.so:_RNvMNtCsgagdyLd23oY_4snap5frameNtB2_9ChunkType7from_u8
librustc_driver-0b75ba01aeee6012.so:_RNvMNtCsggl17RwMuzL_12rand_xoshiro14xoshiro128plusNtB2_14Xoshiro128Plus4jump
librustc_driver-0b75ba01aeee6012.so:_RNvMNtCsggl17RwMuzL_12rand_xoshiro14xoshiro256plusNtB2_14Xoshiro256Plus4jump
librustc_driver-0b75ba01aeee6012.so:_RNvMNtCsggl17RwMuzL_12rand_xoshiro14xoshiro256plusNtB2_14Xoshiro256Plus9long_jump
librustc_driver-0b75ba01aeee6012.so:_RNvMNtCsggl17RwMuzL_12rand_xoshiro14xoshiro512plusNtB2_14Xoshiro512Plus4jump
librustc_driver-0b75ba01aeee6012.so:_RNvMNtCsggl17RwMuzL_12rand_xoshiro14xoshiro512plusNtB2_14Xoshiro512Plus9long_jump
librustc_driver-0b75ba01aeee6012.so:_RNvMNtCsggl17RwMuzL_12rand_xoshiro16xoroshiro128plusNtB2_16Xoroshiro128Plus4jump
librustc_driver-0b75ba01aeee6012.so:_RNvMNtCsggl17RwMuzL_12rand_xoshiro16xoroshiro128plusNtB2_16Xoroshiro128Plus9long_jump
librustc_driver-0b75ba01aeee6012.so:_RNvMNtCsggl17RwMuzL_12rand_xoshiro18xoshiro128plusplusNtB2_18Xoshiro128PlusPlus4jump
librustc_driver-0b75ba01aeee6012.so:_RNvMNtCsggl17RwMuzL_12rand_xoshiro18xoshiro128plusplusNtB2_18Xoshiro128PlusPlus9long_jump
librustc_driver-0b75ba01aeee6012.so:_RNvMNtCsggl17RwMuzL_12rand_xoshiro18xoshiro128starstarNtB2_18Xoshiro128StarStar4jump
librustc_driver-0b75ba01aeee6012.so:_RNvMNtCsggl17RwMuzL_12rand_xoshiro18xoshiro128starstarNtB2_18Xoshiro128StarStar9long_jump
librustc_driver-0b75ba01aeee6012.so:_RNvMNtCsggl17RwMuzL_12rand_xoshiro18xoshiro256plusplusNtB2_18Xoshiro256PlusPlus4jump
librustc_driver-0b75ba01aeee6012.so:_RNvMNtCsggl17RwMuzL_12rand_xoshiro18xoshiro256plusplusNtB2_18Xoshiro256PlusPlus9long_jump
librustc_driver-0b75ba01aeee6012.so:_RNvMNtCsggl17RwMuzL_12rand_xoshiro18xoshiro256starstarNtB2_18Xoshiro256StarStar4jump
librustc_driver-0b75ba01aeee6012.so:_RNvMNtCsggl17RwMuzL_12rand_xoshiro18xoshiro256starstarNtB2_18Xoshiro256StarStar9long_jump
librustc_driver-0b75ba01aeee6012.so:_RNvMNtCsggl17RwMuzL_12rand_xoshiro18xoshiro512plusplusNtB2_18Xoshiro512PlusPlus4jump
librustc_driver-0b75ba01aeee6012.so:_RNvMNtCsggl17RwMuzL_12rand_xoshiro18xoshiro512plusplusNtB2_18Xoshiro512PlusPlus9long_jump
librustc_driver-0b75ba01aeee6012.so:_RNvMNtCsggl17RwMuzL_12rand_xoshiro18xoshiro512starstarNtB2_18Xoshiro512StarStar4jump
librustc_driver-0b75ba01aeee6012.so:_RNvMNtCsggl17RwMuzL_12rand_xoshiro18xoshiro512starstarNtB2_18Xoshiro512StarStar9long_jump
librustc_driver-0b75ba01aeee6012.so:_RNvMNtCsggl17RwMuzL_12rand_xoshiro20xoroshiro128plusplusNtB2_20Xoroshiro128PlusPlus4jump
librustc_driver-0b75ba01aeee6012.so:_RNvMNtCsggl17RwMuzL_12rand_xoshiro20xoroshiro128plusplusNtB2_20Xoroshiro128PlusPlus9long_jump
librustc_driver-0b75ba01aeee6012.so:_RNvMNtCsggl17RwMuzL_12rand_xoshiro20xoroshiro128starstarNtB2_20Xoroshiro128StarStar4jump
librustc_driver-0b75ba01aeee6012.so:_RNvMNtCsggl17RwMuzL_12rand_xoshiro20xoroshiro128starstarNtB2_20Xoroshiro128StarStar9long_jump
librustc_driver-0b75ba01aeee6012.so:_RNvMNtCsggl17RwMuzL_12rand_xoshiro6commonNtB2_7Seed5124iter
librustc_driver-0b75ba01aeee6012.so:_RNvMNtCsh1oXE7bm4Eb_10rustc_span6symbolNtB2_5Ident13with_span_pos
librustc_driver-0b75ba01aeee6012.so:_RNvMNtCsh1oXE7bm4Eb_10rustc_span6symbolNtB2_5Ident17from_str_and_span
librustc_driver-0b75ba01aeee6012.so:_RNvMNtCsh1oXE7bm4Eb_10rustc_span6symbolNtB2_5Ident19without_first_quote
librustc_driver-0b75ba01aeee6012.so:_RNvMNtCsh1oXE7bm4Eb_10rustc_span6symbolNtB2_5Ident23normalize_to_macros_2_0
librustc_driver-0b75ba01aeee6012.so:_RNvMNtCsh1oXE7bm4Eb_10rustc_span6symbolNtB2_5Ident6as_str
librustc_driver-0b75ba01aeee6012.so:_RNvMNtCsh1oXE7bm4Eb_10rustc_span6symbolNtB2_5Ident8from_str
librustc_driver-0b75ba01aeee6012.so:_RNvMNtCshn1YiuQfVU7_12rustc_target4specNtB2_9LldFlavor6as_str
librustc_driver-0b75ba01aeee6012.so:_RNvMNtCsiCgldwiEP2h_15polonius_engine6outputNtB2_9Algorithm8variants
librustc_driver-0b75ba01aeee6012.so:_RNvMNtCsiEeU9cRUvPU_12rustc_expand4baseNtB2_11Annotatable10expect_arm
librustc_driver-0b75ba01aeee6012.so:_RNvMNtCsiEeU9cRUvPU_12rustc_expand4baseNtB2_11Annotatable11expect_expr
librustc_driver-0b75ba01aeee6012.so:_RNvMNtCsiEeU9cRUvPU_12rustc_expand4baseNtB2_11Annotatable11expect_item
librustc_driver-0b75ba01aeee6012.so:_RNvMNtCsiEeU9cRUvPU_12rustc_expand4baseNtB2_11Annotatable11expect_stmt
librustc_driver-0b75ba01aeee6012.so:_RNvMNtCsiEeU9cRUvPU_12rustc_expand4baseNtB2_11Annotatable12expect_crate
librustc_driver-0b75ba01aeee6012.so:_RNvMNtCsiEeU9cRUvPU_12rustc_expand4baseNtB2_11Annotatable12expect_param
librustc_driver-0b75ba01aeee6012.so:_RNvMNtCsiEeU9cRUvPU_12rustc_expand4baseNtB2_11Annotatable14expect_variant
librustc_driver-0b75ba01aeee6012.so:_RNvMNtCsiEeU9cRUvPU_12rustc_expand4baseNtB2_11Annotatable16expect_field_def
librustc_driver-0b75ba01aeee6012.so:_RNvMNtCsiEeU9cRUvPU_12rustc_expand4baseNtB2_11Annotatable16expect_impl_item
librustc_driver-0b75ba01aeee6012.so:_RNvMNtCsiEeU9cRUvPU_12rustc_expand4baseNtB2_11Annotatable16expect_pat_field
librustc_driver-0b75ba01aeee6012.so:_RNvMNtCsiEeU9cRUvPU_12rustc_expand4baseNtB2_11Annotatable17expect_expr_field
librustc_driver-0b75ba01aeee6012.so:_RNvMNtCsiEeU9cRUvPU_12rustc_expand4baseNtB2_11Annotatable17expect_trait_item
librustc_driver-0b75ba01aeee6012.so:_RNvMNtCsiEeU9cRUvPU_12rustc_expand4baseNtB2_11Annotatable19expect_foreign_item
librustc_driver-0b75ba01aeee6012.so:_RNvMNtCsiEeU9cRUvPU_12rustc_expand4baseNtB2_11Annotatable20expect_generic_param
librustc_driver-0b75ba01aeee6012.so:_RNvMNtCsiEeU9cRUvPU_12rustc_expand4baseNtB2_11Annotatable4span
librustc_driver-0b75ba01aeee6012.so:_RNvMNtCsiEeU9cRUvPU_12rustc_expand4baseNtB2_11Annotatable9to_tokens
librustc_driver-0b75ba01aeee6012.so:_RNvMNtCsiEeU9cRUvPU_12rustc_expand5buildNtNtB4_4base7ExtCtxt10anon_const
librustc_driver-0b75ba01aeee6012.so:_RNvMNtCsiEeU9cRUvPU_12rustc_expand5buildNtNtB4_4base7ExtCtxt10block_expr
librustc_driver-0b75ba01aeee6012.so:_RNvMNtCsiEeU9cRUvPU_12rustc_expand5buildNtNtB4_4base7ExtCtxt10expr_array
librustc_driver-0b75ba01aeee6012.so:_RNvMNtCsiEeU9cRUvPU_12rustc_expand5buildNtNtB4_4base7ExtCtxt10expr_block
librustc_driver-0b75ba01aeee6012.so:_RNvMNtCsiEeU9cRUvPU_12rustc_expand5buildNtNtB4_4base7ExtCtxt10expr_deref
librustc_driver-0b75ba01aeee6012.so:_RNvMNtCsiEeU9cRUvPU_12rustc_expand5buildNtNtB4_4base7ExtCtxt10expr_field
librustc_driver-0b75ba01aeee6012.so:_RNvMNtCsiEeU9cRUvPU_12rustc_expand5buildNtNtB4_4base7ExtCtxt10expr_ident
librustc_driver-0b75ba01aeee6012.so:_RNvMNtCsiEeU9cRUvPU_12rustc_expand5buildNtNtB4_4base7ExtCtxt10expr_match
librustc_driver-0b75ba01aeee6012.so:_RNvMNtCsiEeU9cRUvPU_12rustc_expand5buildNtNtB4_4base7ExtCtxt10expr_tuple
librustc_driver-0b75ba01aeee6012.so:_RNvMNtCsiEeU9cRUvPU_12rustc_expand5buildNtNtB4_4base7ExtCtxt10expr_usize
librustc_driver-0b75ba01aeee6012.so:_RNvMNtCsiEeU9cRUvPU_12rustc_expand5buildNtNtB4_4base7ExtCtxt10item_const
librustc_driver-0b75ba01aeee6012.so:_RNvMNtCsiEeU9cRUvPU_12rustc_expand5buildNtNtB4_4base7ExtCtxt10pat_struct
librustc_driver-0b75ba01aeee6012.so:_RNvMNtCsiEeU9cRUvPU_12rustc_expand5buildNtNtB4_4base7ExtCtxt10path_ident
librustc_driver-0b75ba01aeee6012.so:_RNvMNtCsiEeU9cRUvPU_12rustc_expand5buildNtNtB4_4base7ExtCtxt10stmt_local
librustc_driver-0b75ba01aeee6012.so:_RNvMNtCsiEeU9cRUvPU_12rustc_expand5buildNtNtB4_4base7ExtCtxt11const_ident
librustc_driver-0b75ba01aeee6012.so:_RNvMNtCsiEeU9cRUvPU_12rustc_expand5buildNtNtB4_4base7ExtCtxt11expr_binary
librustc_driver-0b75ba01aeee6012.so:_RNvMNtCsiEeU9cRUvPU_12rustc_expand5buildNtNtB4_4base7ExtCtxt11expr_struct
librustc_driver-0b75ba01aeee6012.so:_RNvMNtCsiEeU9cRUvPU_12rustc_expand5buildNtNtB4_4base7ExtCtxt11item_static
librustc_driver-0b75ba01aeee6012.so:_RNvMNtCsiEeU9cRUvPU_12rustc_expand5buildNtNtB4_4base7ExtCtxt11path_global
librustc_driver-0b75ba01aeee6012.so:_RNvMNtCsiEeU9cRUvPU_12rustc_expand5buildNtNtB4_4base7ExtCtxt11stmt_let_ty
librustc_driver-0b75ba01aeee6012.so:_RNvMNtCsiEeU9cRUvPU_12rustc_expand5buildNtNtB4_4base7ExtCtxt11trait_bound
librustc_driver-0b75ba01aeee6012.so:_RNvMNtCsiEeU9cRUvPU_12rustc_expand5buildNtNtB4_4base7ExtCtxt12expr_addr_of
librustc_driver-0b75ba01aeee6012.so:_RNvMNtCsiEeU9cRUvPU_12rustc_expand5buildNtNtB4_4base7ExtCtxt12stmt_let_pat
librustc_driver-0b75ba01aeee6012.so:_RNvMNtCsiEeU9cRUvPU_12rustc_expand5buildNtNtB4_4base7ExtCtxt13expr_byte_str
librustc_driver-0b75ba01aeee6012.so:_RNvMNtCsiEeU9cRUvPU_12rustc_expand5buildNtNtB4_4base7ExtCtxt14expr_array_ref
librustc_driver-0b75ba01aeee6012.so:_RNvMNtCsiEeU9cRUvPU_12rustc_expand5buildNtNtB4_4base7ExtCtxt14lambda_stmts_1
librustc_driver-0b75ba01aeee6012.so:_RNvMNtCsiEeU9cRUvPU_12rustc_expand5buildNtNtB4_4base7ExtCtxt14poly_trait_ref
librustc_driver-0b75ba01aeee6012.so:_RNvMNtCsiEeU9cRUvPU_12rustc_expand5buildNtNtB4_4base7ExtCtxt15arm_unreachable
librustc_driver-0b75ba01aeee6012.so:_RNvMNtCsiEeU9cRUvPU_12rustc_expand5buildNtNtB4_4base7ExtCtxt15expr_call_ident
librustc_driver-0b75ba01aeee6012.so:_RNvMNtCsiEeU9cRUvPU_12rustc_expand5buildNtNtB4_4base7ExtCtxt15lifetime_static
librustc_driver-0b75ba01aeee6012.so:_RNvMNtCsiEeU9cRUvPU_12rustc_expand5buildNtNtB4_4base7ExtCtxt16attr_nested_word
librustc_driver-0b75ba01aeee6012.so:_RNvMNtCsiEeU9cRUvPU_12rustc_expand5buildNtNtB4_4base7ExtCtxt16expr_call_global
librustc_driver-0b75ba01aeee6012.so:_RNvMNtCsiEeU9cRUvPU_12rustc_expand5buildNtNtB4_4base7ExtCtxt16expr_unreachable
librustc_driver-0b75ba01aeee6012.so:_RNvMNtCsiEeU9cRUvPU_12rustc_expand5buildNtNtB4_4base7ExtCtxt16pat_tuple_struct
librustc_driver-0b75ba01aeee6012.so:_RNvMNtCsiEeU9cRUvPU_12rustc_expand5buildNtNtB4_4base7ExtCtxt17expr_struct_ident
librustc_driver-0b75ba01aeee6012.so:_RNvMNtCsiEeU9cRUvPU_12rustc_expand5buildNtNtB4_4base7ExtCtxt18stmt_let_type_only
librustc_driver-0b75ba01aeee6012.so:_RNvMNtCsiEeU9cRUvPU_12rustc_expand5buildNtNtB4_4base7ExtCtxt19attr_name_value_str
librustc_driver-0b75ba01aeee6012.so:_RNvMNtCsiEeU9cRUvPU_12rustc_expand5buildNtNtB4_4base7ExtCtxt22pat_ident_binding_mode
librustc_driver-0b75ba01aeee6012.so:_RNvMNtCsiEeU9cRUvPU_12rustc_expand5buildNtNtB4_4base7ExtCtxt2ty
librustc_driver-0b75ba01aeee6012.so:_RNvMNtCsiEeU9cRUvPU_12rustc_expand5buildNtNtB4_4base7ExtCtxt3arm
librustc_driver-0b75ba01aeee6012.so:_RNvMNtCsiEeU9cRUvPU_12rustc_expand5buildNtNtB4_4base7ExtCtxt3pat
librustc_driver-0b75ba01aeee6012.so:_RNvMNtCsiEeU9cRUvPU_12rustc_expand5buildNtNtB4_4base7ExtCtxt4expr
librustc_driver-0b75ba01aeee6012.so:_RNvMNtCsiEeU9cRUvPU_12rustc_expand5buildNtNtB4_4base7ExtCtxt4item
librustc_driver-0b75ba01aeee6012.so:_RNvMNtCsiEeU9cRUvPU_12rustc_expand5buildNtNtB4_4base7ExtCtxt4path
librustc_driver-0b75ba01aeee6012.so:_RNvMNtCsiEeU9cRUvPU_12rustc_expand5buildNtNtB4_4base7ExtCtxt5block
librustc_driver-0b75ba01aeee6012.so:_RNvMNtCsiEeU9cRUvPU_12rustc_expand5buildNtNtB4_4base7ExtCtxt5param
librustc_driver-0b75ba01aeee6012.so:_RNvMNtCsiEeU9cRUvPU_12rustc_expand5buildNtNtB4_4base7ExtCtxt5ty_mt
librustc_driver-0b75ba01aeee6012.so:_RNvMNtCsiEeU9cRUvPU_12rustc_expand5buildNtNtB4_4base7ExtCtxt6lambda
librustc_driver-0b75ba01aeee6012.so:_RNvMNtCsiEeU9cRUvPU_12rustc_expand5buildNtNtB4_4base7ExtCtxt6ty_ptr
librustc_driver-0b75ba01aeee6012.so:_RNvMNtCsiEeU9cRUvPU_12rustc_expand5buildNtNtB4_4base7ExtCtxt6ty_ref
librustc_driver-0b75ba01aeee6012.so:_RNvMNtCsiEeU9cRUvPU_12rustc_expand5buildNtNtB4_4base7ExtCtxt7expr_if
librustc_driver-0b75ba01aeee6012.so:_RNvMNtCsiEeU9cRUvPU_12rustc_expand5buildNtNtB4_4base7ExtCtxt7expr_ok
librustc_driver-0b75ba01aeee6012.so:_RNvMNtCsiEeU9cRUvPU_12rustc_expand5buildNtNtB4_4base7ExtCtxt7fn_decl
librustc_driver-0b75ba01aeee6012.so:_RNvMNtCsiEeU9cRUvPU_12rustc_expand5buildNtNtB4_4base7ExtCtxt7lambda0
librustc_driver-0b75ba01aeee6012.so:_RNvMNtCsiEeU9cRUvPU_12rustc_expand5buildNtNtB4_4base7ExtCtxt7lambda1
librustc_driver-0b75ba01aeee6012.so:_RNvMNtCsiEeU9cRUvPU_12rustc_expand5buildNtNtB4_4base7ExtCtxt7pat_lit
librustc_driver-0b75ba01aeee6012.so:_RNvMNtCsiEeU9cRUvPU_12rustc_expand5buildNtNtB4_4base7ExtCtxt7ty_path
librustc_driver-0b75ba01aeee6012.so:_RNvMNtCsiEeU9cRUvPU_12rustc_expand5buildNtNtB4_4base7ExtCtxt7typaram
librustc_driver-0b75ba01aeee6012.so:_RNvMNtCsiEeU9cRUvPU_12rustc_expand5buildNtNtB4_4base7ExtCtxt8expr_str
librustc_driver-0b75ba01aeee6012.so:_RNvMNtCsiEeU9cRUvPU_12rustc_expand5buildNtNtB4_4base7ExtCtxt8expr_try
librustc_driver-0b75ba01aeee6012.so:_RNvMNtCsiEeU9cRUvPU_12rustc_expand5buildNtNtB4_4base7ExtCtxt8expr_u32
librustc_driver-0b75ba01aeee6012.so:_RNvMNtCsiEeU9cRUvPU_12rustc_expand5buildNtNtB4_4base7ExtCtxt8lifetime
librustc_driver-0b75ba01aeee6012.so:_RNvMNtCsiEeU9cRUvPU_12rustc_expand5buildNtNtB4_4base7ExtCtxt8pat_path
librustc_driver-0b75ba01aeee6012.so:_RNvMNtCsiEeU9cRUvPU_12rustc_expand5buildNtNtB4_4base7ExtCtxt8pat_some
librustc_driver-0b75ba01aeee6012.so:_RNvMNtCsiEeU9cRUvPU_12rustc_expand5buildNtNtB4_4base7ExtCtxt8pat_wild
librustc_driver-0b75ba01aeee6012.so:_RNvMNtCsiEeU9cRUvPU_12rustc_expand5buildNtNtB4_4base7ExtCtxt8path_all
librustc_driver-0b75ba01aeee6012.so:_RNvMNtCsiEeU9cRUvPU_12rustc_expand5buildNtNtB4_4base7ExtCtxt8stmt_let
librustc_driver-0b75ba01aeee6012.so:_RNvMNtCsiEeU9cRUvPU_12rustc_expand5buildNtNtB4_4base7ExtCtxt8ty_ident
librustc_driver-0b75ba01aeee6012.so:_RNvMNtCsiEeU9cRUvPU_12rustc_expand5buildNtNtB4_4base7ExtCtxt8ty_infer
librustc_driver-0b75ba01aeee6012.so:_RNvMNtCsiEeU9cRUvPU_12rustc_expand5buildNtNtB4_4base7ExtCtxt9attr_word
librustc_driver-0b75ba01aeee6012.so:_RNvMNtCsiEeU9cRUvPU_12rustc_expand5buildNtNtB4_4base7ExtCtxt9expr_bool
librustc_driver-0b75ba01aeee6012.so:_RNvMNtCsiEeU9cRUvPU_12rustc_expand5buildNtNtB4_4base7ExtCtxt9expr_call
librustc_driver-0b75ba01aeee6012.so:_RNvMNtCsiEeU9cRUvPU_12rustc_expand5buildNtNtB4_4base7ExtCtxt9expr_cast
librustc_driver-0b75ba01aeee6012.so:_RNvMNtCsiEeU9cRUvPU_12rustc_expand5buildNtNtB4_4base7ExtCtxt9expr_char
librustc_driver-0b75ba01aeee6012.so:_RNvMNtCsiEeU9cRUvPU_12rustc_expand5buildNtNtB4_4base7ExtCtxt9expr_fail
librustc_driver-0b75ba01aeee6012.so:_RNvMNtCsiEeU9cRUvPU_12rustc_expand5buildNtNtB4_4base7ExtCtxt9expr_none
librustc_driver-0b75ba01aeee6012.so:_RNvMNtCsiEeU9cRUvPU_12rustc_expand5buildNtNtB4_4base7ExtCtxt9expr_path
librustc_driver-0b75ba01aeee6012.so:_RNvMNtCsiEeU9cRUvPU_12rustc_expand5buildNtNtB4_4base7ExtCtxt9expr_self
librustc_driver-0b75ba01aeee6012.so:_RNvMNtCsiEeU9cRUvPU_12rustc_expand5buildNtNtB4_4base7ExtCtxt9expr_some
librustc_driver-0b75ba01aeee6012.so:_RNvMNtCsiEeU9cRUvPU_12rustc_expand5buildNtNtB4_4base7ExtCtxt9field_imm
librustc_driver-0b75ba01aeee6012.so:_RNvMNtCsiEeU9cRUvPU_12rustc_expand5buildNtNtB4_4base7ExtCtxt9pat_ident
librustc_driver-0b75ba01aeee6012.so:_RNvMNtCsiEeU9cRUvPU_12rustc_expand5buildNtNtB4_4base7ExtCtxt9pat_tuple
librustc_driver-0b75ba01aeee6012.so:_RNvMNtCsiEeU9cRUvPU_12rustc_expand5buildNtNtB4_4base7ExtCtxt9stmt_expr
librustc_driver-0b75ba01aeee6012.so:_RNvMNtCsiEeU9cRUvPU_12rustc_expand5buildNtNtB4_4base7ExtCtxt9stmt_item
librustc_driver-0b75ba01aeee6012.so:_RNvMNtCsiEeU9cRUvPU_12rustc_expand5buildNtNtB4_4base7ExtCtxt9trait_ref
librustc_driver-0b75ba01aeee6012.so:_RNvMNtCsiEeU9cRUvPU_12rustc_expand6configNtB2_17StripUnconfigured14configure_expr
librustc_driver-0b75ba01aeee6012.so:_RNvMNtCsiEeU9cRUvPU_12rustc_expand6configNtB2_17StripUnconfigured16configure_tokens
librustc_driver-0b75ba01aeee6012.so:_RNvMNtCsiEeU9cRUvPU_12rustc_expand6configNtB2_17StripUnconfigured16process_cfg_attr
librustc_driver-0b75ba01aeee6012.so:_RNvMNtCsiEeU9cRUvPU_12rustc_expand6configNtB2_17StripUnconfigured6in_cfg
librustc_driver-0b75ba01aeee6012.so:_RNvMNtCsiEeU9cRUvPU_12rustc_expand6expandNtB2_15AstFragmentKind24supports_macro_expansion
librustc_driver-0b75ba01aeee6012.so:_RNvMNtCsiZEOmDhiqRE_11rustc_lexer6cursorNtB2_6Cursor3new
librustc_driver-0b75ba01aeee6012.so:_RNvMNtCsiZEOmDhiqRE_11rustc_lexer6cursorNtB2_6Cursor4bump
librustc_driver-0b75ba01aeee6012.so:_RNvMNtCsiZEOmDhiqRE_11rustc_lexer8unescapeNtB2_11EscapeError8is_fatal
librustc_driver-0b75ba01aeee6012.so:_RNvMNtCsj89wkcdy9Rv_16rustc_ast_pretty2ppNtB2_7Printer10last_token
librustc_driver-0b75ba01aeee6012.so:_RNvMNtCsj89wkcdy9Rv_16rustc_ast_pretty2ppNtB2_7Printer11scan_string
librustc_driver-0b75ba01aeee6012.so:_RNvMNtCsj89wkcdy9Rv_16rustc_ast_pretty2ppNtB2_7Printer25last_token_still_buffered
librustc_driver-0b75ba01aeee6012.so:_RNvMNtCsj89wkcdy9Rv_16rustc_ast_pretty2ppNtB2_7Printer33replace_last_token_still_buffered
librustc_driver-0b75ba01aeee6012.so:_RNvMNtCsj89wkcdy9Rv_16rustc_ast_pretty2ppNtB2_7Printer3new
librustc_driver-0b75ba01aeee6012.so:_RNvMNtCsj89wkcdy9Rv_16rustc_ast_pretty2ppNtB2_7Printer6offset
librustc_driver-0b75ba01aeee6012.so:_RNvMNtCsj89wkcdy9Rv_16rustc_ast_pretty7helpersNtNtB4_2pp7Printer16space_if_not_bol
librustc_driver-0b75ba01aeee6012.so:_RNvMNtCsj89wkcdy9Rv_16rustc_ast_pretty7helpersNtNtB4_2pp7Printer20hardbreak_if_not_bol
librustc_driver-0b75ba01aeee6012.so:_RNvMNtCsj89wkcdy9Rv_16rustc_ast_pretty7helpersNtNtB4_2pp7Printer4nbsp
librustc_driver-0b75ba01aeee6012.so:_RNvMNtCsj89wkcdy9Rv_16rustc_ast_pretty7helpersNtNtB4_2pp7Printer5popen
librustc_driver-0b75ba01aeee6012.so:_RNvMNtCsj89wkcdy9Rv_16rustc_ast_pretty7helpersNtNtB4_2pp7Printer6pclose
librustc_driver-0b75ba01aeee6012.so:_RNvMNtCsjUNssCUQA8T_10rustc_attr7builtinNtB2_9Stability11is_unstable
librustc_driver-0b75ba01aeee6012.so:_RNvMNtCsjUNssCUQA8T_10rustc_attr7builtinNtB2_9Stability9is_stable
librustc_driver-0b75ba01aeee6012.so:_RNvMNtCsjwWoBr4mZn4_5regex4execNtB2_11ExecBuilder11new_options
librustc_driver-0b75ba01aeee6012.so:_RNvMNtCsjwWoBr4mZn4_5regex4execNtB2_11ExecBuilder20bounded_backtracking
librustc_driver-0b75ba01aeee6012.so:_RNvMNtCsjwWoBr4mZn4_5regex4execNtB2_11ExecBuilder3new
librustc_driver-0b75ba01aeee6012.so:_RNvMNtCsjwWoBr4mZn4_5regex4execNtB2_11ExecBuilder3nfa
librustc_driver-0b75ba01aeee6012.so:_RNvMNtCsjwWoBr4mZn4_5regex4execNtB2_11ExecBuilder5build
librustc_driver-0b75ba01aeee6012.so:_RNvMNtCsjwWoBr4mZn4_5regex4execNtB2_11ExecBuilder5bytes
librustc_driver-0b75ba01aeee6012.so:_RNvMNtCsjwWoBr4mZn4_5regex4execNtB2_11ExecBuilder7unicode
librustc_driver-0b75ba01aeee6012.so:_RNvMNtCsjwWoBr4mZn4_5regex4execNtB2_11ExecBuilder9automatic
librustc_driver-0b75ba01aeee6012.so:_RNvMNtCsjwWoBr4mZn4_5regex4execNtB2_11ExecBuilder9only_utf8
librustc_driver-0b75ba01aeee6012.so:_RNvMNtCsjwWoBr4mZn4_5regex4progNtB2_7Program10uses_bytes
librustc_driver-0b75ba01aeee6012.so:_RNvMNtCsjwWoBr4mZn4_5regex4progNtB2_7Program13needs_dotstar
librustc_driver-0b75ba01aeee6012.so:_RNvMNtCsjwWoBr4mZn4_5regex4progNtB2_7Program14leads_to_match
librustc_driver-0b75ba01aeee6012.so:_RNvMNtCsjwWoBr4mZn4_5regex4progNtB2_7Program16approximate_size
librustc_driver-0b75ba01aeee6012.so:_RNvMNtCsjwWoBr4mZn4_5regex4progNtB2_7Program3new
librustc_driver-0b75ba01aeee6012.so:_RNvMNtCsjwWoBr4mZn4_5regex4progNtB2_7Program4skip
librustc_driver-0b75ba01aeee6012.so:_RNvMNtCsjwWoBr4mZn4_5regex4progNtB2_7Program9only_utf8
librustc_driver-0b75ba01aeee6012.so:_RNvMNtCsjwWoBr4mZn4_5regex5inputNtB2_7InputAt3len
librustc_driver-0b75ba01aeee6012.so:_RNvMNtCsjwWoBr4mZn4_5regex5inputNtB2_7InputAt3pos
librustc_driver-0b75ba01aeee6012.so:_RNvMNtCsjwWoBr4mZn4_5regex5inputNtB2_7InputAt4byte
librustc_driver-0b75ba01aeee6012.so:_RNvMNtCsjwWoBr4mZn4_5regex5inputNtB2_7InputAt4char
librustc_driver-0b75ba01aeee6012.so:_RNvMNtCsjwWoBr4mZn4_5regex5inputNtB2_7InputAt6is_end
librustc_driver-0b75ba01aeee6012.so:_RNvMNtCsjwWoBr4mZn4_5regex5inputNtB2_7InputAt8is_empty
librustc_driver-0b75ba01aeee6012.so:_RNvMNtCsjwWoBr4mZn4_5regex5inputNtB2_7InputAt8is_start
librustc_driver-0b75ba01aeee6012.so:_RNvMNtCsjwWoBr4mZn4_5regex5inputNtB2_7InputAt8next_pos
librustc_driver-0b75ba01aeee6012.so:_RNvMNtCsjwWoBr4mZn4_5regex6sparseNtB2_9SparseSet3len
librustc_driver-0b75ba01aeee6012.so:_RNvMNtCsjwWoBr4mZn4_5regex6sparseNtB2_9SparseSet3new
librustc_driver-0b75ba01aeee6012.so:_RNvMNtCsjwWoBr4mZn4_5regex6sparseNtB2_9SparseSet5clear
librustc_driver-0b75ba01aeee6012.so:_RNvMNtCsjwWoBr4mZn4_5regex6sparseNtB2_9SparseSet6insert
librustc_driver-0b75ba01aeee6012.so:_RNvMNtCsjwWoBr4mZn4_5regex6sparseNtB2_9SparseSet8capacity
librustc_driver-0b75ba01aeee6012.so:_RNvMNtCsjwWoBr4mZn4_5regex6sparseNtB2_9SparseSet8contains
librustc_driver-0b75ba01aeee6012.so:_RNvMNtCsjwWoBr4mZn4_5regex6sparseNtB2_9SparseSet8is_empty
librustc_driver-0b75ba01aeee6012.so:_RNvMNtCsjwWoBr4mZn4_5regex7compileNtB2_8Compiler10size_limit
librustc_driver-0b75ba01aeee6012.so:_RNvMNtCsjwWoBr4mZn4_5regex7compileNtB2_8Compiler3dfa
librustc_driver-0b75ba01aeee6012.so:_RNvMNtCsjwWoBr4mZn4_5regex7compileNtB2_8Compiler3new
librustc_driver-0b75ba01aeee6012.so:_RNvMNtCsjwWoBr4mZn4_5regex7compileNtB2_8Compiler5bytes
librustc_driver-0b75ba01aeee6012.so:_RNvMNtCsjwWoBr4mZn4_5regex7compileNtB2_8Compiler7compile
librustc_driver-0b75ba01aeee6012.so:_RNvMNtCsjwWoBr4mZn4_5regex7compileNtB2_8Compiler7reverse
librustc_driver-0b75ba01aeee6012.so:_RNvMNtCsjwWoBr4mZn4_5regex7compileNtB2_8Compiler9only_utf8
librustc_driver-0b75ba01aeee6012.so:_RNvMNtCsjwWoBr4mZn4_5regex8re_traitNtB2_9Locations3len
librustc_driver-0b75ba01aeee6012.so:_RNvMNtCsjwWoBr4mZn4_5regex8re_traitNtB2_9Locations3pos
librustc_driver-0b75ba01aeee6012.so:_RNvMNtCsjwWoBr4mZn4_5regex8re_traitNtB2_9Locations4iter
librustc_driver-0b75ba01aeee6012.so:_RNvMNtCskCMp3vLItG0_21icu_provider_adapters8fallbackNtB2_16LocaleFallbacker10for_config
librustc_driver-0b75ba01aeee6012.so:_RNvMNtCskCMp3vLItG0_21icu_provider_adapters8fallbackNtB2_16LocaleFallbacker16new_without_data
librustc_driver-0b75ba01aeee6012.so:_RNvMNtCskCMp3vLItG0_21icu_provider_adapters8fallbackNtB2_16LocaleFallbacker7for_key
librustc_driver-0b75ba01aeee6012.so:_RNvMNtCsl3oRsZZKr3x_15rustc_interface9interfaceNtB2_8Compiler14register_lints
librustc_driver-0b75ba01aeee6012.so:_RNvMNtCsl3oRsZZKr3x_15rustc_interface9interfaceNtB2_8Compiler15codegen_backend
librustc_driver-0b75ba01aeee6012.so:_RNvMNtCsl3oRsZZKr3x_15rustc_interface9interfaceNtB2_8Compiler22build_output_filenames
librustc_driver-0b75ba01aeee6012.so:_RNvMNtCsl3oRsZZKr3x_15rustc_interface9interfaceNtB2_8Compiler7session
librustc_driver-0b75ba01aeee6012.so:_RNvMNtCslNSrLHyiy2w_19rustc_mir_transform8simplifyNtB2_11SimplifyCfg3new
librustc_driver-0b75ba01aeee6012.so:_RNvMNtNtCs1Br764BqhVG_6object5write2peNtB2_6Writer10has_relocs
librustc_driver-0b75ba01aeee6012.so:_RNvMNtNtCs1Br764BqhVG_6object5write2peNtB2_6Writer11virtual_len
librustc_driver-0b75ba01aeee6012.so:_RNvMNtNtCs1Br764BqhVG_6object5write2peNtB2_6Writer11write_align
librustc_driver-0b75ba01aeee6012.so:_RNvMNtNtCs1Br764BqhVG_6object5write2peNtB2_6Writer12reserve_file
librustc_driver-0b75ba01aeee6012.so:_RNvMNtNtCs1Br764BqhVG_6object5write2peNtB2_6Writer12reserved_len
librustc_driver-0b75ba01aeee6012.so:_RNvMNtNtCs1Br764BqhVG_6object5write2peNtB2_6Writer13reserve_align
librustc_driver-0b75ba01aeee6012.so:_RNvMNtNtCs1Br764BqhVG_6object5write2peNtB2_6Writer13reserve_until
librustc_driver-0b75ba01aeee6012.so:_RNvMNtNtCs1Br764BqhVG_6object5write2peNtB2_6Writer13write_section
librustc_driver-0b75ba01aeee6012.so:_RNvMNtNtCs1Br764BqhVG_6object5write2peNtB2_6Writer15reserve_section
librustc_driver-0b75ba01aeee6012.so:_RNvMNtNtCs1Br764BqhVG_6object5write2peNtB2_6Writer15reserve_virtual
librustc_driver-0b75ba01aeee6012.so:_RNvMNtNtCs1Br764BqhVG_6object5write2peNtB2_6Writer16write_file_align
librustc_driver-0b75ba01aeee6012.so:_RNvMNtNtCs1Br764BqhVG_6object5write2peNtB2_6Writer16write_nt_headers
librustc_driver-0b75ba01aeee6012.so:_RNvMNtNtCs1Br764BqhVG_6object5write2peNtB2_6Writer17nt_headers_offset
librustc_driver-0b75ba01aeee6012.so:_RNvMNtNtCs1Br764BqhVG_6object5write2peNtB2_6Writer18reserve_dos_header
librustc_driver-0b75ba01aeee6012.so:_RNvMNtNtCs1Br764BqhVG_6object5write2peNtB2_6Writer18reserve_nt_headers
librustc_driver-0b75ba01aeee6012.so:_RNvMNtNtCs1Br764BqhVG_6object5write2peNtB2_6Writer18set_data_directory
librustc_driver-0b75ba01aeee6012.so:_RNvMNtNtCs1Br764BqhVG_6object5write2peNtB2_6Writer19reserve_bss_section
librustc_driver-0b75ba01aeee6012.so:_RNvMNtNtCs1Br764BqhVG_6object5write2peNtB2_6Writer19write_reloc_section
librustc_driver-0b75ba01aeee6012.so:_RNvMNtNtCs1Br764BqhVG_6object5write2peNtB2_6Writer20reserve_data_section
librustc_driver-0b75ba01aeee6012.so:_RNvMNtNtCs1Br764BqhVG_6object5write2peNtB2_6Writer20reserve_rsrc_section
librustc_driver-0b75ba01aeee6012.so:_RNvMNtNtCs1Br764BqhVG_6object5write2peNtB2_6Writer20reserve_text_section
librustc_driver-0b75ba01aeee6012.so:_RNvMNtNtCs1Br764BqhVG_6object5write2peNtB2_6Writer21reserve_edata_section
librustc_driver-0b75ba01aeee6012.so:_RNvMNtNtCs1Br764BqhVG_6object5write2peNtB2_6Writer21reserve_idata_section
librustc_driver-0b75ba01aeee6012.so:_RNvMNtNtCs1Br764BqhVG_6object5write2peNtB2_6Writer21reserve_pdata_section
librustc_driver-0b75ba01aeee6012.so:_RNvMNtNtCs1Br764BqhVG_6object5write2peNtB2_6Writer21reserve_rdata_section
librustc_driver-0b75ba01aeee6012.so:_RNvMNtNtCs1Br764BqhVG_6object5write2peNtB2_6Writer21reserve_reloc_section
librustc_driver-0b75ba01aeee6012.so:_RNvMNtNtCs1Br764BqhVG_6object5write2peNtB2_6Writer21reserve_virtual_until
librustc_driver-0b75ba01aeee6012.so:_RNvMNtNtCs1Br764BqhVG_6object5write2peNtB2_6Writer21reserve_xdata_section
librustc_driver-0b75ba01aeee6012.so:_RNvMNtNtCs1Br764BqhVG_6object5write2peNtB2_6Writer21write_section_headers
librustc_driver-0b75ba01aeee6012.so:_RNvMNtNtCs1Br764BqhVG_6object5write2peNtB2_6Writer22write_empty_dos_header
librustc_driver-0b75ba01aeee6012.so:_RNvMNtNtCs1Br764BqhVG_6object5write2peNtB2_6Writer23reserve_section_headers
librustc_driver-0b75ba01aeee6012.so:_RNvMNtNtCs1Br764BqhVG_6object5write2peNtB2_6Writer23write_certificate_table
librustc_driver-0b75ba01aeee6012.so:_RNvMNtNtCs1Br764BqhVG_6object5write2peNtB2_6Writer23write_custom_dos_header
librustc_driver-0b75ba01aeee6012.so:_RNvMNtNtCs1Br764BqhVG_6object5write2peNtB2_6Writer25reserve_certificate_table
librustc_driver-0b75ba01aeee6012.so:_RNvMNtNtCs1Br764BqhVG_6object5write2peNtB2_6Writer25write_dos_header_and_stub
librustc_driver-0b75ba01aeee6012.so:_RNvMNtNtCs1Br764BqhVG_6object5write2peNtB2_6Writer27reserve_dos_header_and_stub
librustc_driver-0b75ba01aeee6012.so:_RNvMNtNtCs1Br764BqhVG_6object5write2peNtB2_6Writer3len
librustc_driver-0b75ba01aeee6012.so:_RNvMNtNtCs1Br764BqhVG_6object5write2peNtB2_6Writer3new
librustc_driver-0b75ba01aeee6012.so:_RNvMNtNtCs1Br764BqhVG_6object5write2peNtB2_6Writer5write
librustc_driver-0b75ba01aeee6012.so:_RNvMNtNtCs1Br764BqhVG_6object5write2peNtB2_6Writer7reserve
librustc_driver-0b75ba01aeee6012.so:_RNvMNtNtCs1Br764BqhVG_6object5write2peNtB2_6Writer9add_reloc
librustc_driver-0b75ba01aeee6012.so:_RNvMNtNtCs1Br764BqhVG_6object5write2peNtB2_6Writer9pad_until
librustc_driver-0b75ba01aeee6012.so:_RNvMNtNtCs1Br764BqhVG_6object5write4coffNtB4_6Object16add_coff_exports
librustc_driver-0b75ba01aeee6012.so:_RNvMNtNtCs1uAE8XsYwHC_9icu_locid10extensions5otherNtB2_5Other12get_ext_byte
librustc_driver-0b75ba01aeee6012.so:_RNvMNtNtCs1uAE8XsYwHC_9icu_locid10extensions5otherNtB2_5Other18from_vec_unchecked
librustc_driver-0b75ba01aeee6012.so:_RNvMNtNtCs1uAE8XsYwHC_9icu_locid10extensions5otherNtB2_5Other7get_ext
librustc_driver-0b75ba01aeee6012.so:_RNvMNtNtCs1uAE8XsYwHC_9icu_locid10extensions7privateNtB2_7Private18from_vec_unchecked
librustc_driver-0b75ba01aeee6012.so:_RNvMNtNtCs1uAE8XsYwHC_9icu_locid10extensions7privateNtB2_7Private5clear
librustc_driver-0b75ba01aeee6012.so:_RNvMNtNtCs1uAE8XsYwHC_9icu_locid10extensions7unicodeNtB2_7Unicode5clear
librustc_driver-0b75ba01aeee6012.so:_RNvMNtNtCs1uAE8XsYwHC_9icu_locid10extensions7unicodeNtB2_7Unicode8is_empty
librustc_driver-0b75ba01aeee6012.so:_RNvMNtNtCs1uAE8XsYwHC_9icu_locid10extensions9transformNtB2_9Transform5clear
librustc_driver-0b75ba01aeee6012.so:_RNvMNtNtCs1uAE8XsYwHC_9icu_locid10extensions9transformNtB2_9Transform8is_empty
librustc_driver-0b75ba01aeee6012.so:_RNvMNtNtCs1uAE8XsYwHC_9icu_locid7subtags6regionNtB2_6Region13is_alphabetic
librustc_driver-0b75ba01aeee6012.so:_RNvMNtNtCs1uAE8XsYwHC_9icu_locid7subtags6scriptNtB2_6Script12try_from_raw
librustc_driver-0b75ba01aeee6012.so:_RNvMNtNtCs1uAE8XsYwHC_9icu_locid7subtags6scriptNtB2_6Script14try_from_bytes
librustc_driver-0b75ba01aeee6012.so:_RNvMNtNtCs1uAE8XsYwHC_9icu_locid7subtags6scriptNtB2_6Script18from_raw_unchecked
librustc_driver-0b75ba01aeee6012.so:_RNvMNtNtCs1uAE8XsYwHC_9icu_locid7subtags6scriptNtB2_6Script27try_from_bytes_manual_slice
librustc_driver-0b75ba01aeee6012.so:_RNvMNtNtCs1uAE8XsYwHC_9icu_locid7subtags6scriptNtB2_6Script8into_raw
librustc_driver-0b75ba01aeee6012.so:_RNvMNtNtCs1uAE8XsYwHC_9icu_locid7subtags7variantNtB2_7Variant12try_from_raw
librustc_driver-0b75ba01aeee6012.so:_RNvMNtNtCs1uAE8XsYwHC_9icu_locid7subtags7variantNtB2_7Variant14try_from_bytes
librustc_driver-0b75ba01aeee6012.so:_RNvMNtNtCs1uAE8XsYwHC_9icu_locid7subtags7variantNtB2_7Variant18from_raw_unchecked
librustc_driver-0b75ba01aeee6012.so:_RNvMNtNtCs1uAE8XsYwHC_9icu_locid7subtags7variantNtB2_7Variant27try_from_bytes_manual_slice
librustc_driver-0b75ba01aeee6012.so:_RNvMNtNtCs1uAE8XsYwHC_9icu_locid7subtags7variantNtB2_7Variant8into_raw
librustc_driver-0b75ba01aeee6012.so:_RNvMNtNtCs1uAE8XsYwHC_9icu_locid7subtags8variantsNtB2_8Variants18from_vec_unchecked
librustc_driver-0b75ba01aeee6012.so:_RNvMNtNtCs1uAE8XsYwHC_9icu_locid7subtags8variantsNtB2_8Variants5clear
librustc_driver-0b75ba01aeee6012.so:_RNvMNtNtCs2ANZbKq4FAi_18tracing_subscriber6filter3envNtB2_9EnvFilter13add_directive
librustc_driver-0b75ba01aeee6012.so:_RNvMNtNtCs2ANZbKq4FAi_18tracing_subscriber6filter3envNtB2_9EnvFilter13base_interest
librustc_driver-0b75ba01aeee6012.so:_RNvMNtNtCs2ANZbKq4FAi_18tracing_subscriber6filter3envNtB2_9EnvFilter16cares_about_span
librustc_driver-0b75ba01aeee6012.so:_RNvMNtNtCs2ANZbKq4FAi_18tracing_subscriber6filter3envNtB2_9EnvFilter16from_default_env
librustc_driver-0b75ba01aeee6012.so:_RNvMNtNtCs2ANZbKq4FAi_18tracing_subscriber6filter3envNtB2_9EnvFilter20try_from_default_env
librustc_driver-0b75ba01aeee6012.so:_RNvMNtNtCs2ANZbKq4FAi_18tracing_subscriber6filter7targetsNtB2_7Targets3new
librustc_driver-0b75ba01aeee6012.so:_RNvMNtNtCs2ANZbKq4FAi_18tracing_subscriber6filter7targetsNtB2_7Targets4iter
librustc_driver-0b75ba01aeee6012.so:_RNvMNtNtCs2BBApAlL7Qg_15rustc_mir_build4thir2cxNtB2_2Cx16pattern_from_hir
librustc_driver-0b75ba01aeee6012.so:_RNvMNtNtCs2iGwUc7EAmY_17rustc_codegen_ssa12coverageinfo3ffiNtB2_7Counter10expression
librustc_driver-0b75ba01aeee6012.so:_RNvMNtNtCs2iGwUc7EAmY_17rustc_codegen_ssa12coverageinfo3ffiNtB2_7Counter13zero_based_id
librustc_driver-0b75ba01aeee6012.so:_RNvMNtNtCs2iGwUc7EAmY_17rustc_codegen_ssa12coverageinfo3ffiNtB2_7Counter23counter_value_reference
librustc_driver-0b75ba01aeee6012.so:_RNvMNtNtCs2iGwUc7EAmY_17rustc_codegen_ssa12coverageinfo3ffiNtB2_7Counter4zero
librustc_driver-0b75ba01aeee6012.so:_RNvMNtNtCs2iGwUc7EAmY_17rustc_codegen_ssa12coverageinfo3ffiNtB2_7Counter7is_zero
librustc_driver-0b75ba01aeee6012.so:_RNvMNtNtCs2iGwUc7EAmY_17rustc_codegen_ssa12coverageinfo3mapNtB2_16FunctionCoverage11add_counter
librustc_driver-0b75ba01aeee6012.so:_RNvMNtNtCs2iGwUc7EAmY_17rustc_codegen_ssa12coverageinfo3mapNtB2_16FunctionCoverage11source_hash
librustc_driver-0b75ba01aeee6012.so:_RNvMNtNtCs2iGwUc7EAmY_17rustc_codegen_ssa12coverageinfo3mapNtB2_16FunctionCoverage22add_counter_expression
librustc_driver-0b75ba01aeee6012.so:_RNvMNtNtCs2iGwUc7EAmY_17rustc_codegen_ssa12coverageinfo3mapNtB2_16FunctionCoverage22add_unreachable_region
librustc_driver-0b75ba01aeee6012.so:_RNvMNtNtCs2iGwUc7EAmY_17rustc_codegen_ssa12coverageinfo3mapNtB2_16FunctionCoverage24set_function_source_hash
librustc_driver-0b75ba01aeee6012.so:_RNvMNtNtCs2iGwUc7EAmY_17rustc_codegen_ssa12coverageinfo3mapNtB2_16FunctionCoverage35get_expressions_and_counter_regions
librustc_driver-0b75ba01aeee6012.so:_RNvMNtNtCs2iGwUc7EAmY_17rustc_codegen_ssa12coverageinfo3mapNtB2_16FunctionCoverage3new
librustc_driver-0b75ba01aeee6012.so:_RNvMNtNtCs2iGwUc7EAmY_17rustc_codegen_ssa12coverageinfo3mapNtB2_16FunctionCoverage6unused
librustc_driver-0b75ba01aeee6012.so:_RNvMNtNtCs2iGwUc7EAmY_17rustc_codegen_ssa12coverageinfo3mapNtB2_16FunctionCoverage7is_used
librustc_driver-0b75ba01aeee6012.so:_RNvMNtNtCs2iGwUc7EAmY_17rustc_codegen_ssa4back5writeNtB2_12ModuleConfig14bitcode_needed
librustc_driver-0b75ba01aeee6012.so:_RNvMNtNtCs2iGwUc7EAmY_17rustc_codegen_ssa4back5writeNtB2_12ModuleConfig3new
librustc_driver-0b75ba01aeee6012.so:_RNvMNtNtCs2iGwUc7EAmY_17rustc_codegen_ssa4back6linkerDNtB2_6LinkerEL_8take_cmd
librustc_driver-0b75ba01aeee6012.so:_RNvMNtNtCs2iGwUc7EAmY_17rustc_codegen_ssa4back7archiveNtB2_16ArArchiveBuilder3new
librustc_driver-0b75ba01aeee6012.so:_RNvMNtNtCs2iGwUc7EAmY_17rustc_codegen_ssa4back7commandNtB2_7Command11__env_remove
librustc_driver-0b75ba01aeee6012.so:_RNvMNtNtCs2iGwUc7EAmY_17rustc_codegen_ssa4back7commandNtB2_7Command38very_likely_to_exceed_some_spawn_limit
librustc_driver-0b75ba01aeee6012.so:_RNvMNtNtCs2iGwUc7EAmY_17rustc_codegen_ssa4back7commandNtB2_7Command4__arg
librustc_driver-0b75ba01aeee6012.so:_RNvMNtNtCs2iGwUc7EAmY_17rustc_codegen_ssa4back7commandNtB2_7Command4__env
librustc_driver-0b75ba01aeee6012.so:_RNvMNtNtCs2iGwUc7EAmY_17rustc_codegen_ssa4back7commandNtB2_7Command4__new
librustc_driver-0b75ba01aeee6012.so:_RNvMNtNtCs2iGwUc7EAmY_17rustc_codegen_ssa4back7commandNtB2_7Command6output
librustc_driver-0b75ba01aeee6012.so:_RNvMNtNtCs2iGwUc7EAmY_17rustc_codegen_ssa4back7commandNtB2_7Command7command
librustc_driver-0b75ba01aeee6012.so:_RNvMNtNtCs2iGwUc7EAmY_17rustc_codegen_ssa4back7commandNtB2_7Command8get_args
librustc_driver-0b75ba01aeee6012.so:_RNvMNtNtCs2iGwUc7EAmY_17rustc_codegen_ssa4back7commandNtB2_7Command9take_args
librustc_driver-0b75ba01aeee6012.so:_RNvMNtNtCs3gJ41u96r5N_18rustc_codegen_llvm5llvm_3ffiNtB2_23LLVMRustCOFFShortExport3new
librustc_driver-0b75ba01aeee6012.so:_RNvMNtNtCs5ESSSXQhO3H_12regex_syntax3ast7visitorNtB2_11HeapVisitor12induct_class
librustc_driver-0b75ba01aeee6012.so:_RNvMNtNtCs5ESSSXQhO3H_12regex_syntax3ast7visitorNtB2_11HeapVisitor3new
librustc_driver-0b75ba01aeee6012.so:_RNvMNtNtCs5ESSSXQhO3H_12regex_syntax3ast7visitorNtB2_11HeapVisitor3pop
librustc_driver-0b75ba01aeee6012.so:_RNvMNtNtCs5ESSSXQhO3H_12regex_syntax3ast7visitorNtB2_11HeapVisitor9pop_class
librustc_driver-0b75ba01aeee6012.so:_RNvMNtNtCs5ESSSXQhO3H_12regex_syntax3hir7literalNtB2_8Literals10limit_size
librustc_driver-0b75ba01aeee6012.so:_RNvMNtNtCs5ESSSXQhO3H_12regex_syntax3hir7literalNtB2_8Literals11limit_class
librustc_driver-0b75ba01aeee6012.so:_RNvMNtNtCs5ESSSXQhO3H_12regex_syntax3hir7literalNtB2_8Literals11trim_suffix
librustc_driver-0b75ba01aeee6012.so:_RNvMNtNtCs5ESSSXQhO3H_12regex_syntax3hir7literalNtB2_8Literals12all_complete
librustc_driver-0b75ba01aeee6012.so:_RNvMNtNtCs5ESSSXQhO3H_12regex_syntax3hir7literalNtB2_8Literals12any_complete
librustc_driver-0b75ba01aeee6012.so:_RNvMNtNtCs5ESSSXQhO3H_12regex_syntax3hir7literalNtB2_8Literals13cross_product
librustc_driver-0b75ba01aeee6012.so:_RNvMNtNtCs5ESSSXQhO3H_12regex_syntax3hir7literalNtB2_8Literals14add_byte_class
librustc_driver-0b75ba01aeee6012.so:_RNvMNtNtCs5ESSSXQhO3H_12regex_syntax3hir7literalNtB2_8Literals14add_char_class
librustc_driver-0b75ba01aeee6012.so:_RNvMNtNtCs5ESSSXQhO3H_12regex_syntax3hir7literalNtB2_8Literals14contains_empty
librustc_driver-0b75ba01aeee6012.so:_RNvMNtNtCs5ESSSXQhO3H_12regex_syntax3hir7literalNtB2_8Literals14set_limit_size
librustc_driver-0b75ba01aeee6012.so:_RNvMNtNtCs5ESSSXQhO3H_12regex_syntax3hir7literalNtB2_8Literals14union_prefixes
librustc_driver-0b75ba01aeee6012.so:_RNvMNtNtCs5ESSSXQhO3H_12regex_syntax3hir7literalNtB2_8Literals14union_suffixes
librustc_driver-0b75ba01aeee6012.so:_RNvMNtNtCs5ESSSXQhO3H_12regex_syntax3hir7literalNtB2_8Literals15set_limit_class
librustc_driver-0b75ba01aeee6012.so:_RNvMNtNtCs5ESSSXQhO3H_12regex_syntax3hir7literalNtB2_8Literals20unambiguous_prefixes
librustc_driver-0b75ba01aeee6012.so:_RNvMNtNtCs5ESSSXQhO3H_12regex_syntax3hir7literalNtB2_8Literals20unambiguous_suffixes
librustc_driver-0b75ba01aeee6012.so:_RNvMNtNtCs5ESSSXQhO3H_12regex_syntax3hir7literalNtB2_8Literals21longest_common_prefix
librustc_driver-0b75ba01aeee6012.so:_RNvMNtNtCs5ESSSXQhO3H_12regex_syntax3hir7literalNtB2_8Literals21longest_common_suffix
librustc_driver-0b75ba01aeee6012.so:_RNvMNtNtCs5ESSSXQhO3H_12regex_syntax3hir7literalNtB2_8Literals3add
librustc_driver-0b75ba01aeee6012.so:_RNvMNtNtCs5ESSSXQhO3H_12regex_syntax3hir7literalNtB2_8Literals3cut
librustc_driver-0b75ba01aeee6012.so:_RNvMNtNtCs5ESSSXQhO3H_12regex_syntax3hir7literalNtB2_8Literals5clear
librustc_driver-0b75ba01aeee6012.so:_RNvMNtNtCs5ESSSXQhO3H_12regex_syntax3hir7literalNtB2_8Literals5empty
librustc_driver-0b75ba01aeee6012.so:_RNvMNtNtCs5ESSSXQhO3H_12regex_syntax3hir7literalNtB2_8Literals5union
librustc_driver-0b75ba01aeee6012.so:_RNvMNtNtCs5ESSSXQhO3H_12regex_syntax3hir7literalNtB2_8Literals7min_len
librustc_driver-0b75ba01aeee6012.so:_RNvMNtNtCs5ESSSXQhO3H_12regex_syntax3hir7literalNtB2_8Literals7reverse
librustc_driver-0b75ba01aeee6012.so:_RNvMNtNtCs5ESSSXQhO3H_12regex_syntax3hir7literalNtB2_8Literals8is_empty
librustc_driver-0b75ba01aeee6012.so:_RNvMNtNtCs5ESSSXQhO3H_12regex_syntax3hir7literalNtB2_8Literals8literals
librustc_driver-0b75ba01aeee6012.so:_RNvMNtNtCs5ESSSXQhO3H_12regex_syntax3hir7literalNtB2_8Literals8prefixes
librustc_driver-0b75ba01aeee6012.so:_RNvMNtNtCs5ESSSXQhO3H_12regex_syntax3hir7literalNtB2_8Literals8suffixes
librustc_driver-0b75ba01aeee6012.so:_RNvMNtNtCs5ESSSXQhO3H_12regex_syntax3hir7literalNtB2_8Literals8to_empty
librustc_driver-0b75ba01aeee6012.so:_RNvMNtNtCs5ESSSXQhO3H_12regex_syntax3hir7literalNtB2_8Literals9cross_add
librustc_driver-0b75ba01aeee6012.so:_RNvMNtNtCs5ESSSXQhO3H_12regex_syntax3hir7visitorNtB2_11HeapVisitor3new
librustc_driver-0b75ba01aeee6012.so:_RNvMNtNtCs5ESSSXQhO3H_12regex_syntax3hir7visitorNtB2_11HeapVisitor3pop
librustc_driver-0b75ba01aeee6012.so:_RNvMNtNtCs5ESSSXQhO3H_12regex_syntax3hir7visitorNtB2_11HeapVisitor6induct
librustc_driver-0b75ba01aeee6012.so:_RNvMNtNtCs6Xk4iZgn9ee_11miniz_oxide7inflate4coreNtB2_12HuffmanTable3new
librustc_driver-0b75ba01aeee6012.so:_RNvMNtNtCs7VFnuzYgaW2_18rustc_hir_analysis17structured_errors28wrong_number_of_generic_argsNtB2_24WrongNumberOfGenericArgs3new
librustc_driver-0b75ba01aeee6012.so:_RNvMNtNtCs7VFnuzYgaW2_18rustc_hir_analysis5check11intrinsicckNtB2_13InlineAsmCtxt14new_global_asm
librustc_driver-0b75ba01aeee6012.so:_RNvMNtNtCs7VFnuzYgaW2_18rustc_hir_analysis5check11intrinsicckNtB2_13InlineAsmCtxt9check_asm
librustc_driver-0b75ba01aeee6012.so:_RNvMNtNtCs7nHlYWzWSzq_11rustc_parse6parser12attr_wrapperNtB2_11AttrWrapper18maybe_needs_tokens
librustc_driver-0b75ba01aeee6012.so:_RNvMNtNtCs7nHlYWzWSzq_11rustc_parse6parser12attr_wrapperNtB2_11AttrWrapper5empty
librustc_driver-0b75ba01aeee6012.so:_RNvMNtNtCs7nHlYWzWSzq_11rustc_parse6parser12attr_wrapperNtB2_11AttrWrapper8is_empty
librustc_driver-0b75ba01aeee6012.so:_RNvMNtNtCs7nHlYWzWSzq_11rustc_parse6parser3patNtB4_6Parser20parse_pat_no_top_alt
librustc_driver-0b75ba01aeee6012.so:_RNvMNtNtCs7nHlYWzWSzq_11rustc_parse6parser3patNtB4_6Parser23parse_pat_allow_top_alt
librustc_driver-0b75ba01aeee6012.so:_RNvMNtNtCs7nHlYWzWSzq_11rustc_parse6parser4attrNtB4_6Parser14parse_cfg_attr
librustc_driver-0b75ba01aeee6012.so:_RNvMNtNtCs7nHlYWzWSzq_11rustc_parse6parser4attrNtB4_6Parser15parse_attr_item
librustc_driver-0b75ba01aeee6012.so:_RNvMNtNtCs7nHlYWzWSzq_11rustc_parse6parser4attrNtB4_6Parser15parse_attribute
librustc_driver-0b75ba01aeee6012.so:_RNvMNtNtCs7nHlYWzWSzq_11rustc_parse6parser4attrNtB4_6Parser15parse_meta_item
librustc_driver-0b75ba01aeee6012.so:_RNvMNtNtCs7nHlYWzWSzq_11rustc_parse6parser4itemNtB4_6Parser15parse_crate_mod
librustc_driver-0b75ba01aeee6012.so:_RNvMNtNtCs7nHlYWzWSzq_11rustc_parse6parser4itemNtB4_6Parser9parse_mod
librustc_driver-0b75ba01aeee6012.so:_RNvMNtNtCs7nHlYWzWSzq_11rustc_parse6parser4pathNtB4_6Parser10parse_path
librustc_driver-0b75ba01aeee6012.so:_RNvMNtNtCs7nHlYWzWSzq_11rustc_parse6parser4stmtNtB4_6Parser10parse_stmt
librustc_driver-0b75ba01aeee6012.so:_RNvMNtNtCs7nHlYWzWSzq_11rustc_parse6parser4stmtNtB4_6Parser11parse_block
librustc_driver-0b75ba01aeee6012.so:_RNvMNtNtCs7nHlYWzWSzq_11rustc_parse6parser4stmtNtB4_6Parser15parse_full_stmt
librustc_driver-0b75ba01aeee6012.so:_RNvMNtNtCs7nHlYWzWSzq_11rustc_parse6parser4stmtNtB4_6Parser31report_invalid_identifier_error
librustc_driver-0b75ba01aeee6012.so:_RNvMNtNtCs8lLsNL5HvpN_5gimli4read5valueNtB2_9ValueType13from_encoding
librustc_driver-0b75ba01aeee6012.so:_RNvMNtNtCs8lLsNL5HvpN_5gimli4read5valueNtB2_9ValueType8bit_size
librustc_driver-0b75ba01aeee6012.so:_RNvMNtNtCs8lLsNL5HvpN_5gimli5write2opNtB2_10Expression10op_convert
librustc_driver-0b75ba01aeee6012.so:_RNvMNtNtCs8lLsNL5HvpN_5gimli5write2opNtB2_10Expression10set_target
librustc_driver-0b75ba01aeee6012.so:_RNvMNtNtCs8lLsNL5HvpN_5gimli5write2opNtB2_10Expression11op_call_ref
librustc_driver-0b75ba01aeee6012.so:_RNvMNtNtCs8lLsNL5HvpN_5gimli5write2opNtB2_10Expression12op_bit_piece
librustc_driver-0b75ba01aeee6012.so:_RNvMNtNtCs8lLsNL5HvpN_5gimli5write2opNtB2_10Expression13op_const_type
librustc_driver-0b75ba01aeee6012.so:_RNvMNtNtCs8lLsNL5HvpN_5gimli5write2opNtB2_10Expression13op_deref_size
librustc_driver-0b75ba01aeee6012.so:_RNvMNtNtCs8lLsNL5HvpN_5gimli5write2opNtB2_10Expression13op_deref_type
librustc_driver-0b75ba01aeee6012.so:_RNvMNtNtCs8lLsNL5HvpN_5gimli5write2opNtB2_10Expression13op_wasm_local
librustc_driver-0b75ba01aeee6012.so:_RNvMNtNtCs8lLsNL5HvpN_5gimli5write2opNtB2_10Expression13op_wasm_stack
librustc_driver-0b75ba01aeee6012.so:_RNvMNtNtCs8lLsNL5HvpN_5gimli5write2opNtB2_10Expression14op_entry_value
librustc_driver-0b75ba01aeee6012.so:_RNvMNtNtCs8lLsNL5HvpN_5gimli5write2opNtB2_10Expression14op_plus_uconst
librustc_driver-0b75ba01aeee6012.so:_RNvMNtNtCs8lLsNL5HvpN_5gimli5write2opNtB2_10Expression14op_regval_type
librustc_driver-0b75ba01aeee6012.so:_RNvMNtNtCs8lLsNL5HvpN_5gimli5write2opNtB2_10Expression14op_reinterpret
librustc_driver-0b75ba01aeee6012.so:_RNvMNtNtCs8lLsNL5HvpN_5gimli5write2opNtB2_10Expression14op_wasm_global
librustc_driver-0b75ba01aeee6012.so:_RNvMNtNtCs8lLsNL5HvpN_5gimli5write2opNtB2_10Expression14op_xderef_size
librustc_driver-0b75ba01aeee6012.so:_RNvMNtNtCs8lLsNL5HvpN_5gimli5write2opNtB2_10Expression14op_xderef_type
librustc_driver-0b75ba01aeee6012.so:_RNvMNtNtCs8lLsNL5HvpN_5gimli5write2opNtB2_10Expression17op_implicit_value
librustc_driver-0b75ba01aeee6012.so:_RNvMNtNtCs8lLsNL5HvpN_5gimli5write2opNtB2_10Expression19op_implicit_pointer
librustc_driver-0b75ba01aeee6012.so:_RNvMNtNtCs8lLsNL5HvpN_5gimli5write2opNtB2_10Expression20op_gnu_parameter_ref
librustc_driver-0b75ba01aeee6012.so:_RNvMNtNtCs8lLsNL5HvpN_5gimli5write2opNtB2_10Expression2op
librustc_driver-0b75ba01aeee6012.so:_RNvMNtNtCs8lLsNL5HvpN_5gimli5write2opNtB2_10Expression4size
librustc_driver-0b75ba01aeee6012.so:_RNvMNtNtCs8lLsNL5HvpN_5gimli5write2opNtB2_10Expression6op_bra
librustc_driver-0b75ba01aeee6012.so:_RNvMNtNtCs8lLsNL5HvpN_5gimli5write2opNtB2_10Expression6op_reg
librustc_driver-0b75ba01aeee6012.so:_RNvMNtNtCs8lLsNL5HvpN_5gimli5write2opNtB2_10Expression7op_addr
librustc_driver-0b75ba01aeee6012.so:_RNvMNtNtCs8lLsNL5HvpN_5gimli5write2opNtB2_10Expression7op_breg
librustc_driver-0b75ba01aeee6012.so:_RNvMNtNtCs8lLsNL5HvpN_5gimli5write2opNtB2_10Expression7op_call
librustc_driver-0b75ba01aeee6012.so:_RNvMNtNtCs8lLsNL5HvpN_5gimli5write2opNtB2_10Expression7op_pick
librustc_driver-0b75ba01aeee6012.so:_RNvMNtNtCs8lLsNL5HvpN_5gimli5write2opNtB2_10Expression7op_skip
librustc_driver-0b75ba01aeee6012.so:_RNvMNtNtCs8lLsNL5HvpN_5gimli5write2opNtB2_10Expression8op_deref
librustc_driver-0b75ba01aeee6012.so:_RNvMNtNtCs8lLsNL5HvpN_5gimli5write2opNtB2_10Expression8op_fbreg
librustc_driver-0b75ba01aeee6012.so:_RNvMNtNtCs8lLsNL5HvpN_5gimli5write2opNtB2_10Expression8op_piece
librustc_driver-0b75ba01aeee6012.so:_RNvMNtNtCs8lLsNL5HvpN_5gimli5write2opNtB2_10Expression9op_consts
librustc_driver-0b75ba01aeee6012.so:_RNvMNtNtCs8lLsNL5HvpN_5gimli5write2opNtB2_10Expression9op_constu
librustc_driver-0b75ba01aeee6012.so:_RNvMNtNtCs8lLsNL5HvpN_5gimli5write2opNtB2_10Expression9op_xderef
librustc_driver-0b75ba01aeee6012.so:_RNvMNtNtCs8lLsNL5HvpN_5gimli5write3cfiNtB2_10FrameTable7add_cie
librustc_driver-0b75ba01aeee6012.so:_RNvMNtNtCs8lLsNL5HvpN_5gimli5write3cfiNtB2_10FrameTable7add_fde
librustc_driver-0b75ba01aeee6012.so:_RNvMNtNtCs8lLsNL5HvpN_5gimli5write3cfiNtB2_10FrameTable9cie_count
librustc_driver-0b75ba01aeee6012.so:_RNvMNtNtCs8lLsNL5HvpN_5gimli5write3cfiNtB2_10FrameTable9fde_count
librustc_driver-0b75ba01aeee6012.so:_RNvMNtNtCs8lLsNL5HvpN_5gimli5write3locNtB2_17LocationListTable3add
librustc_driver-0b75ba01aeee6012.so:_RNvMNtNtCs8lLsNL5HvpN_5gimli5write4lineNtB2_11LineProgram12end_sequence
librustc_driver-0b75ba01aeee6012.so:_RNvMNtNtCs8lLsNL5HvpN_5gimli5write4lineNtB2_11LineProgram12generate_row
librustc_driver-0b75ba01aeee6012.so:_RNvMNtNtCs8lLsNL5HvpN_5gimli5write4lineNtB2_11LineProgram13add_directory
librustc_driver-0b75ba01aeee6012.so:_RNvMNtNtCs8lLsNL5HvpN_5gimli5write4lineNtB2_11LineProgram13get_directory
librustc_driver-0b75ba01aeee6012.so:_RNvMNtNtCs8lLsNL5HvpN_5gimli5write4lineNtB2_11LineProgram13get_file_info
librustc_driver-0b75ba01aeee6012.so:_RNvMNtNtCs8lLsNL5HvpN_5gimli5write4lineNtB2_11LineProgram14begin_sequence
librustc_driver-0b75ba01aeee6012.so:_RNvMNtNtCs8lLsNL5HvpN_5gimli5write4lineNtB2_11LineProgram17get_file_info_mut
librustc_driver-0b75ba01aeee6012.so:_RNvMNtNtCs8lLsNL5HvpN_5gimli5write4lineNtB2_11LineProgram3new
librustc_driver-0b75ba01aeee6012.so:_RNvMNtNtCs8lLsNL5HvpN_5gimli5write4lineNtB2_11LineProgram4none
librustc_driver-0b75ba01aeee6012.so:_RNvMNtNtCs8lLsNL5HvpN_5gimli5write4lineNtB2_11LineProgram8add_file
librustc_driver-0b75ba01aeee6012.so:_RNvMNtNtCs8lLsNL5HvpN_5gimli5write4lineNtB2_11LineProgram8get_file
librustc_driver-0b75ba01aeee6012.so:_RNvMNtNtCs8lLsNL5HvpN_5gimli5write5rangeNtB2_14RangeListTable3add
librustc_driver-0b75ba01aeee6012.so:_RNvMNtNtCs8plho0yHpPq_14regex_automata3dfa7specialNtB2_7Special12write_to_len
librustc_driver-0b75ba01aeee6012.so:_RNvMNtNtCs8plho0yHpPq_14regex_automata4util5bytesNtB2_14SerializeError16buffer_too_small
librustc_driver-0b75ba01aeee6012.so:_RNvMNtNtCs8plho0yHpPq_14regex_automata4util5startNtB2_5Start10from_usize
librustc_driver-0b75ba01aeee6012.so:_RNvMNtNtCs8plho0yHpPq_14regex_automata4util8alphabetNtB2_4Unit2u8
librustc_driver-0b75ba01aeee6012.so:_RNvMNtNtCs8plho0yHpPq_14regex_automata4util8alphabetNtB2_4Unit3eoi
librustc_driver-0b75ba01aeee6012.so:_RNvMNtNtCs8plho0yHpPq_14regex_automata4util8alphabetNtB2_4Unit5as_u8
librustc_driver-0b75ba01aeee6012.so:_RNvMNtNtCs8plho0yHpPq_14regex_automata4util8alphabetNtB2_4Unit6is_eoi
librustc_driver-0b75ba01aeee6012.so:_RNvMNtNtCs8plho0yHpPq_14regex_automata4util8alphabetNtB2_4Unit8as_usize
librustc_driver-0b75ba01aeee6012.so:_RNvMNtNtCs8plho0yHpPq_14regex_automata4util9prefilterNtB2_9Candidate11into_option
librustc_driver-0b75ba01aeee6012.so:_RNvMNtNtCs8saYb8IjRm8_21rustc_data_structures5flock5linuxNtB2_4Lock17error_unsupported
librustc_driver-0b75ba01aeee6012.so:_RNvMNtNtCs8saYb8IjRm8_21rustc_data_structures5flock5linuxNtB2_4Lock3new
librustc_driver-0b75ba01aeee6012.so:_RNvMNtNtCs9KpYfezRtzb_9rustc_ast4util6parserNtB2_7AssocOp10from_token
librustc_driver-0b75ba01aeee6012.so:_RNvMNtNtCs9KpYfezRtzb_9rustc_ast4util6parserNtB2_7AssocOp10precedence
librustc_driver-0b75ba01aeee6012.so:_RNvMNtNtCs9KpYfezRtzb_9rustc_ast4util6parserNtB2_7AssocOp12to_ast_binop
librustc_driver-0b75ba01aeee6012.so:_RNvMNtNtCs9KpYfezRtzb_9rustc_ast4util6parserNtB2_7AssocOp13is_comparison
librustc_driver-0b75ba01aeee6012.so:_RNvMNtNtCs9KpYfezRtzb_9rustc_ast4util6parserNtB2_7AssocOp14from_ast_binop
librustc_driver-0b75ba01aeee6012.so:_RNvMNtNtCs9KpYfezRtzb_9rustc_ast4util6parserNtB2_7AssocOp14is_assign_like
librustc_driver-0b75ba01aeee6012.so:_RNvMNtNtCs9KpYfezRtzb_9rustc_ast4util6parserNtB2_7AssocOp31can_continue_expr_unambiguously
librustc_driver-0b75ba01aeee6012.so:_RNvMNtNtCs9KpYfezRtzb_9rustc_ast4util6parserNtB2_7AssocOp6fixity
librustc_driver-0b75ba01aeee6012.so:_RNvMNtNtCs9KpYfezRtzb_9rustc_ast4util7literalNtNtB6_3ast7LitKind14from_token_lit
librustc_driver-0b75ba01aeee6012.so:_RNvMNtNtCs9KpYfezRtzb_9rustc_ast6expand9allocatorNtB2_13AllocatorKind7fn_name
librustc_driver-0b75ba01aeee6012.so:_RNvMNtNtCs9UaAlnGT11v_12rustc_middle2ty10adjustmentNtB2_10Adjustment16is_region_borrow
librustc_driver-0b75ba01aeee6012.so:_RNvMNtNtCs9UaAlnGT11v_12rustc_middle2ty11fast_rejectNtB2_14SimplifiedType3def
librustc_driver-0b75ba01aeee6012.so:_RNvMNtNtCs9UaAlnGT11v_12rustc_middle2ty13inhabitednessNtB4_10VariantDef19inhabited_predicate
librustc_driver-0b75ba01aeee6012.so:_RNvMNtNtCs9UaAlnGT11v_12rustc_middle2ty13rvalue_scopesNtB2_12RvalueScopes15temporary_scope
librustc_driver-0b75ba01aeee6012.so:_RNvMNtNtCs9UaAlnGT11v_12rustc_middle2ty13rvalue_scopesNtB2_12RvalueScopes19record_rvalue_scope
librustc_driver-0b75ba01aeee6012.so:_RNvMNtNtCs9UaAlnGT11v_12rustc_middle2ty13rvalue_scopesNtB2_12RvalueScopes3new
librustc_driver-0b75ba01aeee6012.so:_RNvMNtNtCs9UaAlnGT11v_12rustc_middle2ty14typeck_resultsNtB2_13TypeckResults10node_types
librustc_driver-0b75ba01aeee6012.so:_RNvMNtNtCs9UaAlnGT11v_12rustc_middle2ty14typeck_resultsNtB2_13TypeckResults11adjustments
librustc_driver-0b75ba01aeee6012.so:_RNvMNtNtCs9UaAlnGT11v_12rustc_middle2ty14typeck_resultsNtB2_13TypeckResults11expr_ty_opt
librustc_driver-0b75ba01aeee6012.so:_RNvMNtNtCs9UaAlnGT11v_12rustc_middle2ty14typeck_resultsNtB2_13TypeckResults11field_index
librustc_driver-0b75ba01aeee6012.so:_RNvMNtNtCs9UaAlnGT11v_12rustc_middle2ty14typeck_resultsNtB2_13TypeckResults11node_substs
librustc_driver-0b75ba01aeee6012.so:_RNvMNtNtCs9UaAlnGT11v_12rustc_middle2ty14typeck_resultsNtB2_13TypeckResults13field_indices
librustc_driver-0b75ba01aeee6012.so:_RNvMNtNtCs9UaAlnGT11v_12rustc_middle2ty14typeck_resultsNtB2_13TypeckResults13node_type_opt
librustc_driver-0b75ba01aeee6012.so:_RNvMNtNtCs9UaAlnGT11v_12rustc_middle2ty14typeck_resultsNtB2_13TypeckResults14coercion_casts
librustc_driver-0b75ba01aeee6012.so:_RNvMNtNtCs9UaAlnGT11v_12rustc_middle2ty14typeck_resultsNtB2_13TypeckResults14is_method_call
librustc_driver-0b75ba01aeee6012.so:_RNvMNtNtCs9UaAlnGT11v_12rustc_middle2ty14typeck_resultsNtB2_13TypeckResults14node_types_mut
librustc_driver-0b75ba01aeee6012.so:_RNvMNtNtCs9UaAlnGT11v_12rustc_middle2ty14typeck_resultsNtB2_13TypeckResults15adjustments_mut
librustc_driver-0b75ba01aeee6012.so:_RNvMNtNtCs9UaAlnGT11v_12rustc_middle2ty14typeck_resultsNtB2_13TypeckResults15fru_field_types
librustc_driver-0b75ba01aeee6012.so:_RNvMNtNtCs9UaAlnGT11v_12rustc_middle2ty14typeck_resultsNtB2_13TypeckResults15node_substs_mut
librustc_driver-0b75ba01aeee6012.so:_RNvMNtNtCs9UaAlnGT11v_12rustc_middle2ty14typeck_resultsNtB2_13TypeckResults15node_substs_opt
librustc_driver-0b75ba01aeee6012.so:_RNvMNtNtCs9UaAlnGT11v_12rustc_middle2ty14typeck_resultsNtB2_13TypeckResults15opt_field_index
librustc_driver-0b75ba01aeee6012.so:_RNvMNtNtCs9UaAlnGT11v_12rustc_middle2ty14typeck_resultsNtB2_13TypeckResults15pat_adjustments
librustc_driver-0b75ba01aeee6012.so:_RNvMNtNtCs9UaAlnGT11v_12rustc_middle2ty14typeck_resultsNtB2_13TypeckResults16expr_adjustments
librustc_driver-0b75ba01aeee6012.so:_RNvMNtNtCs9UaAlnGT11v_12rustc_middle2ty14typeck_resultsNtB2_13TypeckResults16expr_ty_adjusted
librustc_driver-0b75ba01aeee6012.so:_RNvMNtNtCs9UaAlnGT11v_12rustc_middle2ty14typeck_resultsNtB2_13TypeckResults16is_coercion_cast
librustc_driver-0b75ba01aeee6012.so:_RNvMNtNtCs9UaAlnGT11v_12rustc_middle2ty14typeck_resultsNtB2_13TypeckResults17field_indices_mut
librustc_driver-0b75ba01aeee6012.so:_RNvMNtNtCs9UaAlnGT11v_12rustc_middle2ty14typeck_resultsNtB2_13TypeckResults17liberated_fn_sigs
librustc_driver-0b75ba01aeee6012.so:_RNvMNtNtCs9UaAlnGT11v_12rustc_middle2ty14typeck_resultsNtB2_13TypeckResults17pat_binding_modes
librustc_driver-0b75ba01aeee6012.so:_RNvMNtNtCs9UaAlnGT11v_12rustc_middle2ty14typeck_resultsNtB2_13TypeckResults17set_coercion_cast
librustc_driver-0b75ba01aeee6012.so:_RNvMNtNtCs9UaAlnGT11v_12rustc_middle2ty14typeck_resultsNtB2_13TypeckResults18type_dependent_def
librustc_driver-0b75ba01aeee6012.so:_RNvMNtNtCs9UaAlnGT11v_12rustc_middle2ty14typeck_resultsNtB2_13TypeckResults19fru_field_types_mut
librustc_driver-0b75ba01aeee6012.so:_RNvMNtNtCs9UaAlnGT11v_12rustc_middle2ty14typeck_resultsNtB2_13TypeckResults19pat_adjustments_mut
librustc_driver-0b75ba01aeee6012.so:_RNvMNtNtCs9UaAlnGT11v_12rustc_middle2ty14typeck_resultsNtB2_13TypeckResults19type_dependent_defs
librustc_driver-0b75ba01aeee6012.so:_RNvMNtNtCs9UaAlnGT11v_12rustc_middle2ty14typeck_resultsNtB2_13TypeckResults19user_provided_types
librustc_driver-0b75ba01aeee6012.so:_RNvMNtNtCs9UaAlnGT11v_12rustc_middle2ty14typeck_resultsNtB2_13TypeckResults20closure_kind_origins
librustc_driver-0b75ba01aeee6012.so:_RNvMNtNtCs9UaAlnGT11v_12rustc_middle2ty14typeck_resultsNtB2_13TypeckResults20expr_ty_adjusted_opt
librustc_driver-0b75ba01aeee6012.so:_RNvMNtNtCs9UaAlnGT11v_12rustc_middle2ty14typeck_resultsNtB2_13TypeckResults20extract_binding_mode
librustc_driver-0b75ba01aeee6012.so:_RNvMNtNtCs9UaAlnGT11v_12rustc_middle2ty14typeck_resultsNtB2_13TypeckResults21liberated_fn_sigs_mut
librustc_driver-0b75ba01aeee6012.so:_RNvMNtNtCs9UaAlnGT11v_12rustc_middle2ty14typeck_resultsNtB2_13TypeckResults21pat_binding_modes_mut
librustc_driver-0b75ba01aeee6012.so:_RNvMNtNtCs9UaAlnGT11v_12rustc_middle2ty14typeck_resultsNtB2_13TypeckResults21type_dependent_def_id
librustc_driver-0b75ba01aeee6012.so:_RNvMNtNtCs9UaAlnGT11v_12rustc_middle2ty14typeck_resultsNtB2_13TypeckResults23type_dependent_defs_mut
librustc_driver-0b75ba01aeee6012.so:_RNvMNtNtCs9UaAlnGT11v_12rustc_middle2ty14typeck_resultsNtB2_13TypeckResults23user_provided_types_mut
librustc_driver-0b75ba01aeee6012.so:_RNvMNtNtCs9UaAlnGT11v_12rustc_middle2ty14typeck_resultsNtB2_13TypeckResults24closure_kind_origins_mut
librustc_driver-0b75ba01aeee6012.so:_RNvMNtNtCs9UaAlnGT11v_12rustc_middle2ty14typeck_resultsNtB2_13TypeckResults29get_generator_diagnostic_data
librustc_driver-0b75ba01aeee6012.so:_RNvMNtNtCs9UaAlnGT11v_12rustc_middle2ty14typeck_resultsNtB2_13TypeckResults30closure_min_captures_flattened
librustc_driver-0b75ba01aeee6012.so:_RNvMNtNtCs9UaAlnGT11v_12rustc_middle2ty14typeck_resultsNtB2_13TypeckResults3new
librustc_driver-0b75ba01aeee6012.so:_RNvMNtNtCs9UaAlnGT11v_12rustc_middle2ty14typeck_resultsNtB2_13TypeckResults6pat_ty
librustc_driver-0b75ba01aeee6012.so:_RNvMNtNtCs9UaAlnGT11v_12rustc_middle2ty14typeck_resultsNtB2_13TypeckResults7expr_ty
librustc_driver-0b75ba01aeee6012.so:_RNvMNtNtCs9UaAlnGT11v_12rustc_middle2ty14typeck_resultsNtB2_13TypeckResults9node_type
librustc_driver-0b75ba01aeee6012.so:_RNvMNtNtCs9UaAlnGT11v_12rustc_middle2ty14typeck_resultsNtB2_13TypeckResults9qpath_res
librustc_driver-0b75ba01aeee6012.so:_RNvMNtNtCs9UaAlnGT11v_12rustc_middle2ty25normalize_erasing_regionsNtB2_18NormalizationError20get_type_for_failure
librustc_driver-0b75ba01aeee6012.so:_RNvMNtNtCs9UaAlnGT11v_12rustc_middle2ty3styNtB2_15BoundRegionKind6get_id
librustc_driver-0b75ba01aeee6012.so:_RNvMNtNtCs9UaAlnGT11v_12rustc_middle2ty3styNtB2_15BoundRegionKind8get_name
librustc_driver-0b75ba01aeee6012.so:_RNvMNtNtCs9UaAlnGT11v_12rustc_middle2ty3styNtB2_15BoundRegionKind8is_named
librustc_driver-0b75ba01aeee6012.so:_RNvMNtNtCs9UaAlnGT11v_12rustc_middle2ty4castNtB2_5IntTy9is_signed
librustc_driver-0b75ba01aeee6012.so:_RNvMNtNtCs9UaAlnGT11v_12rustc_middle2ty4walkNtB2_10TypeWalker20skip_current_subtree
librustc_driver-0b75ba01aeee6012.so:_RNvMNtNtCs9UaAlnGT11v_12rustc_middle2ty4walkNtB2_10TypeWalker3new
librustc_driver-0b75ba01aeee6012.so:_RNvMNtNtCs9UaAlnGT11v_12rustc_middle2ty5assocNtB2_9AssocItem11defaultness
librustc_driver-0b75ba01aeee6012.so:_RNvMNtNtCs9UaAlnGT11v_12rustc_middle2ty5assocNtB2_9AssocItem5ident
librustc_driver-0b75ba01aeee6012.so:_RNvMNtNtCs9UaAlnGT11v_12rustc_middle2ty5assocNtB2_9AssocItem9signature
librustc_driver-0b75ba01aeee6012.so:_RNvMNtNtCs9UaAlnGT11v_12rustc_middle2ty5flagsNtB2_15FlagComputation13for_predicate
librustc_driver-0b75ba01aeee6012.so:_RNvMNtNtCs9UaAlnGT11v_12rustc_middle2ty5flagsNtB2_15FlagComputation8for_kind
librustc_driver-0b75ba01aeee6012.so:_RNvMNtNtCs9UaAlnGT11v_12rustc_middle2ty5flagsNtB2_15FlagComputation9for_const
librustc_driver-0b75ba01aeee6012.so:_RNvMNtNtCs9UaAlnGT11v_12rustc_middle2ty6__matchNtB2_5Match3new
librustc_driver-0b75ba01aeee6012.so:_RNvMNtNtCs9UaAlnGT11v_12rustc_middle2ty7bindingNtB2_11BindingMode7convert
librustc_driver-0b75ba01aeee6012.so:_RNvMNtNtCs9UaAlnGT11v_12rustc_middle2ty7closureNtB2_7UpvarId3new
librustc_driver-0b75ba01aeee6012.so:_RNvMNtNtCs9UaAlnGT11v_12rustc_middle2ty8genericsNtB2_19GenericParamDefKind12is_synthetic
librustc_driver-0b75ba01aeee6012.so:_RNvMNtNtCs9UaAlnGT11v_12rustc_middle2ty8genericsNtB2_19GenericParamDefKind14is_ty_or_const
librustc_driver-0b75ba01aeee6012.so:_RNvMNtNtCs9UaAlnGT11v_12rustc_middle2ty8genericsNtB2_19GenericParamDefKind5descr
librustc_driver-0b75ba01aeee6012.so:_RNvMNtNtCs9UaAlnGT11v_12rustc_middle2ty8genericsNtB2_19GenericParamDefKind6to_ord
librustc_driver-0b75ba01aeee6012.so:_RNvMNtNtCs9UaAlnGT11v_12rustc_middle2ty8instanceNtB2_8Instance25upstream_monomorphization
librustc_driver-0b75ba01aeee6012.so:_RNvMNtNtCs9UaAlnGT11v_12rustc_middle2ty8instanceNtB2_8Instance2ty
librustc_driver-0b75ba01aeee6012.so:_RNvMNtNtCs9UaAlnGT11v_12rustc_middle2ty9trait_defNtB2_10TraitImpls13blanket_impls
librustc_driver-0b75ba01aeee6012.so:_RNvMNtNtCs9UaAlnGT11v_12rustc_middle2ty9trait_defNtB2_10TraitImpls17non_blanket_impls
librustc_driver-0b75ba01aeee6012.so:_RNvMNtNtCs9UaAlnGT11v_12rustc_middle3hir5placeNtB2_14PlaceWithHirId3new
librustc_driver-0b75ba01aeee6012.so:_RNvMNtNtCs9UaAlnGT11v_12rustc_middle3mir10terminatorNtB2_13SwitchTargets11all_targets
librustc_driver-0b75ba01aeee6012.so:_RNvMNtNtCs9UaAlnGT11v_12rustc_middle3mir10terminatorNtB2_13SwitchTargets15all_targets_mut
librustc_driver-0b75ba01aeee6012.so:_RNvMNtNtCs9UaAlnGT11v_12rustc_middle3mir10terminatorNtB2_13SwitchTargets16target_for_value
librustc_driver-0b75ba01aeee6012.so:_RNvMNtNtCs9UaAlnGT11v_12rustc_middle3mir10terminatorNtB2_13SwitchTargets4iter
librustc_driver-0b75ba01aeee6012.so:_RNvMNtNtCs9UaAlnGT11v_12rustc_middle3mir10terminatorNtB2_13SwitchTargets9otherwise
librustc_driver-0b75ba01aeee6012.so:_RNvMNtNtCs9UaAlnGT11v_12rustc_middle3mir10terminatorNtB2_13SwitchTargets9static_if
librustc_driver-0b75ba01aeee6012.so:_RNvMNtNtCs9UaAlnGT11v_12rustc_middle3mir12basic_blocksNtB2_11BasicBlocks20invalidate_cfg_cache
librustc_driver-0b75ba01aeee6012.so:_RNvMNtNtCs9UaAlnGT11v_12rustc_middle3mir3tcxNtB2_7PlaceTy13projection_ty
librustc_driver-0b75ba01aeee6012.so:_RNvMNtNtCs9UaAlnGT11v_12rustc_middle3mir3tcxNtB2_7PlaceTy8field_ty
librustc_driver-0b75ba01aeee6012.so:_RNvMNtNtCs9UaAlnGT11v_12rustc_middle3mir4monoNtB2_8MonoItem10local_span
librustc_driver-0b75ba01aeee6012.so:_RNvMNtNtCs9UaAlnGT11v_12rustc_middle3mir4monoNtB2_8MonoItem11symbol_name
librustc_driver-0b75ba01aeee6012.so:_RNvMNtNtCs9UaAlnGT11v_12rustc_middle3mir4monoNtB2_8MonoItem13is_generic_fn
librustc_driver-0b75ba01aeee6012.so:_RNvMNtNtCs9UaAlnGT11v_12rustc_middle3mir4monoNtB2_8MonoItem13size_estimate
librustc_driver-0b75ba01aeee6012.so:_RNvMNtNtCs9UaAlnGT11v_12rustc_middle3mir4monoNtB2_8MonoItem15is_instantiable
librustc_driver-0b75ba01aeee6012.so:_RNvMNtNtCs9UaAlnGT11v_12rustc_middle3mir4monoNtB2_8MonoItem15is_user_defined
librustc_driver-0b75ba01aeee6012.so:_RNvMNtNtCs9UaAlnGT11v_12rustc_middle3mir4monoNtB2_8MonoItem16codegen_dep_node
librustc_driver-0b75ba01aeee6012.so:_RNvMNtNtCs9UaAlnGT11v_12rustc_middle3mir4monoNtB2_8MonoItem16explicit_linkage
librustc_driver-0b75ba01aeee6012.so:_RNvMNtNtCs9UaAlnGT11v_12rustc_middle3mir4monoNtB2_8MonoItem18instantiation_mode
librustc_driver-0b75ba01aeee6012.so:_RNvMNtNtCs9UaAlnGT11v_12rustc_middle3mir4monoNtB2_8MonoItem5krate
librustc_driver-0b75ba01aeee6012.so:_RNvMNtNtCs9UaAlnGT11v_12rustc_middle3mir4monoNtB2_8MonoItem6def_id
librustc_driver-0b75ba01aeee6012.so:_RNvMNtNtCs9UaAlnGT11v_12rustc_middle3mir5patchNtB2_8MirPatch10add_assign
librustc_driver-0b75ba01aeee6012.so:_RNvMNtNtCs9UaAlnGT11v_12rustc_middle3mir5patchNtB2_8MirPatch10is_patched
librustc_driver-0b75ba01aeee6012.so:_RNvMNtNtCs9UaAlnGT11v_12rustc_middle3mir5patchNtB2_8MirPatch12new_internal
librustc_driver-0b75ba01aeee6012.so:_RNvMNtNtCs9UaAlnGT11v_12rustc_middle3mir5patchNtB2_8MirPatch12resume_block
librustc_driver-0b75ba01aeee6012.so:_RNvMNtNtCs9UaAlnGT11v_12rustc_middle3mir5patchNtB2_8MirPatch13add_statement
librustc_driver-0b75ba01aeee6012.so:_RNvMNtNtCs9UaAlnGT11v_12rustc_middle3mir5patchNtB2_8MirPatch14terminator_loc
librustc_driver-0b75ba01aeee6012.so:_RNvMNtNtCs9UaAlnGT11v_12rustc_middle3mir5patchNtB2_8MirPatch16patch_terminator
librustc_driver-0b75ba01aeee6012.so:_RNvMNtNtCs9UaAlnGT11v_12rustc_middle3mir5patchNtB2_8MirPatch21source_info_for_index
librustc_driver-0b75ba01aeee6012.so:_RNvMNtNtCs9UaAlnGT11v_12rustc_middle3mir5patchNtB2_8MirPatch22new_internal_with_info
librustc_driver-0b75ba01aeee6012.so:_RNvMNtNtCs9UaAlnGT11v_12rustc_middle3mir5patchNtB2_8MirPatch24source_info_for_location
librustc_driver-0b75ba01aeee6012.so:_RNvMNtNtCs9UaAlnGT11v_12rustc_middle3mir5patchNtB2_8MirPatch3new
librustc_driver-0b75ba01aeee6012.so:_RNvMNtNtCs9UaAlnGT11v_12rustc_middle3mir5patchNtB2_8MirPatch5apply
librustc_driver-0b75ba01aeee6012.so:_RNvMNtNtCs9UaAlnGT11v_12rustc_middle3mir5patchNtB2_8MirPatch8new_temp
librustc_driver-0b75ba01aeee6012.so:_RNvMNtNtCs9UaAlnGT11v_12rustc_middle3mir5patchNtB2_8MirPatch9new_block
librustc_driver-0b75ba01aeee6012.so:_RNvMNtNtCs9UaAlnGT11v_12rustc_middle3mir5queryNtB2_24UnsafetyViolationDetails20description_and_note
librustc_driver-0b75ba01aeee6012.so:_RNvMNtNtCs9UaAlnGT11v_12rustc_middle3mir6syntaxNtB2_8MirPhase4name
librustc_driver-0b75ba01aeee6012.so:_RNvMNtNtCs9UaAlnGT11v_12rustc_middle3mir6syntaxNtB2_8MirPhase6reveal
librustc_driver-0b75ba01aeee6012.so:_RNvMNtNtCs9UaAlnGT11v_12rustc_middle3mir9interpretNtB2_8GlobalId7display
librustc_driver-0b75ba01aeee6012.so:_RNvMNtNtCs9UaAlnGT11v_12rustc_middle3mir9traversalNtB2_8Preorder3new
librustc_driver-0b75ba01aeee6012.so:_RNvMNtNtCs9UaAlnGT11v_12rustc_middle6middle10lang_itemsNtNtNtB6_2ty7context6TyCtxt11is_fn_trait
librustc_driver-0b75ba01aeee6012.so:_RNvMNtNtCs9UaAlnGT11v_12rustc_middle6middle10lang_itemsNtNtNtB6_2ty7context6TyCtxt17require_lang_item
librustc_driver-0b75ba01aeee6012.so:_RNvMNtNtCs9UaAlnGT11v_12rustc_middle6middle10lang_itemsNtNtNtB6_2ty7context6TyCtxt25fn_trait_kind_from_def_id
librustc_driver-0b75ba01aeee6012.so:_RNvMNtNtCs9UaAlnGT11v_12rustc_middle6middle12lib_featuresNtB2_11LibFeatures6to_vec
librustc_driver-0b75ba01aeee6012.so:_RNvMNtNtCs9UaAlnGT11v_12rustc_middle6middle16codegen_fn_attrsNtB2_14CodegenFnAttrs15requests_inline
librustc_driver-0b75ba01aeee6012.so:_RNvMNtNtCs9UaAlnGT11v_12rustc_middle6middle16codegen_fn_attrsNtB2_14CodegenFnAttrs25contains_extern_indicator
librustc_driver-0b75ba01aeee6012.so:_RNvMNtNtCs9UaAlnGT11v_12rustc_middle6middle16codegen_fn_attrsNtB2_14CodegenFnAttrs3new
librustc_driver-0b75ba01aeee6012.so:_RNvMNtNtCs9UaAlnGT11v_12rustc_middle6middle16exported_symbolsNtB2_17SymbolExportLevel18is_below_threshold
librustc_driver-0b75ba01aeee6012.so:_RNvMNtNtCs9UaAlnGT11v_12rustc_middle6middle7privacyNtB2_5Level10all_levels
librustc_driver-0b75ba01aeee6012.so:_RNvMNtNtCs9UaAlnGT11v_12rustc_middle6middle9stabilityNtB2_16DeprecationEntry11same_origin
librustc_driver-0b75ba01aeee6012.so:_RNvMNtNtCs9UaAlnGT11v_12rustc_middle6middle9stabilityNtB2_16DeprecationEntry5local
librustc_driver-0b75ba01aeee6012.so:_RNvMNtNtCs9UaAlnGT11v_12rustc_middle6middle9stabilityNtB2_16DeprecationEntry8external
librustc_driver-0b75ba01aeee6012.so:_RNvMNtNtCs9UaAlnGT11v_12rustc_middle6traits20specialization_graphNtB2_5Graph3new
librustc_driver-0b75ba01aeee6012.so:_RNvMNtNtCs9UaAlnGT11v_12rustc_middle6traits20specialization_graphNtB2_5Graph6parent
librustc_driver-0b75ba01aeee6012.so:_RNvMNtNtCs9UaAlnGT11v_12rustc_middle6traits6selectNtB2_16EvaluationResult18is_stack_dependent
librustc_driver-0b75ba01aeee6012.so:_RNvMNtNtCs9UaAlnGT11v_12rustc_middle6traits6selectNtB2_16EvaluationResult25must_apply_modulo_regions
librustc_driver-0b75ba01aeee6012.so:_RNvMNtNtCs9UaAlnGT11v_12rustc_middle6traits6selectNtB2_16EvaluationResult30must_apply_considering_regions
librustc_driver-0b75ba01aeee6012.so:_RNvMNtNtCs9UaAlnGT11v_12rustc_middle6traits6selectNtB2_16EvaluationResult9may_apply
librustc_driver-0b75ba01aeee6012.so:_RNvMNtNtCs9puRwE6Jrst_14rustc_borrowck11diagnostics19bound_region_errorsNtB2_12UniverseInfo5other
librustc_driver-0b75ba01aeee6012.so:_RNvMNtNtCs9puRwE6Jrst_14rustc_borrowck12region_infer6valuesNtB2_19RegionValueElements11to_location
librustc_driver-0b75ba01aeee6012.so:_RNvMNtNtCs9puRwE6Jrst_14rustc_borrowck12region_infer6valuesNtB2_19RegionValueElements14point_in_range
librustc_driver-0b75ba01aeee6012.so:_RNvMNtNtCs9puRwE6Jrst_14rustc_borrowck12region_infer6valuesNtB2_19RegionValueElements19point_from_location
librustc_driver-0b75ba01aeee6012.so:_RNvMNtNtCs9xF1GXCZqXD_18rustc_mir_dataflow5impls16storage_livenessNtB2_16MaybeStorageLive3new
librustc_driver-0b75ba01aeee6012.so:_RNvMNtNtCs9xF1GXCZqXD_18rustc_mir_dataflow9framework8graphvizNtB2_11OutputStyle17num_state_columns
librustc_driver-0b75ba01aeee6012.so:_RNvMNtNtCsNX45m2jpYM_12aho_corasick6packed7patternNtB2_8Patterns3add
librustc_driver-0b75ba01aeee6012.so:_RNvMNtNtCsNX45m2jpYM_12aho_corasick6packed7patternNtB2_8Patterns3len
librustc_driver-0b75ba01aeee6012.so:_RNvMNtNtCsNX45m2jpYM_12aho_corasick6packed7patternNtB2_8Patterns5reset
librustc_driver-0b75ba01aeee6012.so:_RNvMNtNtCsNX45m2jpYM_12aho_corasick6packed9rabinkarpNtB2_9RabinKarp7find_at
librustc_driver-0b75ba01aeee6012.so:_RNvMNtNtCsb8kExLKizBh_7zerovec11flexzerovec5ownedNtB2_16FlexZeroVecOwned10from_slice
librustc_driver-0b75ba01aeee6012.so:_RNvMNtNtCsb8kExLKizBh_7zerovec11flexzerovec5ownedNtB2_16FlexZeroVecOwned10pop_sorted
librustc_driver-0b75ba01aeee6012.so:_RNvMNtNtCsb8kExLKizBh_7zerovec11flexzerovec5ownedNtB2_16FlexZeroVecOwned13insert_sorted
librustc_driver-0b75ba01aeee6012.so:_RNvMNtNtCsb8kExLKizBh_7zerovec11flexzerovec5ownedNtB2_16FlexZeroVecOwned4push
librustc_driver-0b75ba01aeee6012.so:_RNvMNtNtCsb8kExLKizBh_7zerovec11flexzerovec5ownedNtB2_16FlexZeroVecOwned6insert
librustc_driver-0b75ba01aeee6012.so:_RNvMNtNtCsb8kExLKizBh_7zerovec11flexzerovec5ownedNtB2_16FlexZeroVecOwned6remove
librustc_driver-0b75ba01aeee6012.so:_RNvMNtNtCsb8kExLKizBh_7zerovec11flexzerovec5ownedNtB2_16FlexZeroVecOwned8as_slice
librustc_driver-0b75ba01aeee6012.so:_RNvMNtNtCsb8kExLKizBh_7zerovec11flexzerovec5ownedNtB2_16FlexZeroVecOwned9new_empty
librustc_driver-0b75ba01aeee6012.so:_RNvMNtNtCsb8kExLKizBh_7zerovec11flexzerovec5sliceNtB2_13FlexZeroSlice10iter_pairs
librustc_driver-0b75ba01aeee6012.so:_RNvMNtNtCsb8kExLKizBh_7zerovec11flexzerovec5sliceNtB2_13FlexZeroSlice16parse_byte_slice
librustc_driver-0b75ba01aeee6012.so:_RNvMNtNtCsb8kExLKizBh_7zerovec3ule5multiNtB2_14MultiFieldsULE38new_from_lengths_partially_initialized
librustc_driver-0b75ba01aeee6012.so:_RNvMNtNtCsbQUXP7oyqOP_21rustc_trait_selection5solve7fulfillNtB2_15FulfillmentCtxt3new
librustc_driver-0b75ba01aeee6012.so:_RNvMNtNtCsbQUXP7oyqOP_21rustc_trait_selection6traits4utilNtB2_23TraitAliasExpansionInfo19label_with_exp_info
librustc_driver-0b75ba01aeee6012.so:_RNvMNtNtCsbQUXP7oyqOP_21rustc_trait_selection6traits4utilNtB2_23TraitAliasExpansionInfo3new
librustc_driver-0b75ba01aeee6012.so:_RNvMNtNtCsbQUXP7oyqOP_21rustc_trait_selection6traits4utilNtB2_23TraitAliasExpansionInfo3top
librustc_driver-0b75ba01aeee6012.so:_RNvMNtNtCsbQUXP7oyqOP_21rustc_trait_selection6traits4utilNtB2_23TraitAliasExpansionInfo6bottom
librustc_driver-0b75ba01aeee6012.so:_RNvMNtNtCsbQUXP7oyqOP_21rustc_trait_selection6traits4utilNtB2_23TraitAliasExpansionInfo9trait_ref
librustc_driver-0b75ba01aeee6012.so:_RNvMNtNtCsbQUXP7oyqOP_21rustc_trait_selection6traits6selectNtB2_24IntercrateAmbiguityCause25intercrate_ambiguity_hint
librustc_driver-0b75ba01aeee6012.so:_RNvMNtNtCsbQUXP7oyqOP_21rustc_trait_selection6traits6selectNtB2_24IntercrateAmbiguityCause29add_intercrate_ambiguity_hint
librustc_driver-0b75ba01aeee6012.so:_RNvMNtNtCsbzNEmrZraM0_18rustc_query_system9dep_graph5debugNtB2_13DepNodeFilter11accepts_all
librustc_driver-0b75ba01aeee6012.so:_RNvMNtNtCsbzNEmrZraM0_18rustc_query_system9dep_graph5debugNtB2_13DepNodeFilter3new
librustc_driver-0b75ba01aeee6012.so:_RNvMNtNtCse1REIuXuKCi_5gsgdt4diff10diff_graphNtB2_9DiffGraph3new
librustc_driver-0b75ba01aeee6012.so:_RNvMNtNtCse1REIuXuKCi_5gsgdt4diff11match_graphNtB2_8Matching3new
librustc_driver-0b75ba01aeee6012.so:_RNvMNtNtCserdW9TeaKDe_11rustc_infer5infer10projectionNtB4_9InferCtxt16infer_projection
librustc_driver-0b75ba01aeee6012.so:_RNvMNtNtCserdW9TeaKDe_11rustc_infer5infer12opaque_typesNtB4_9InferCtxt18handle_opaque_type
librustc_driver-0b75ba01aeee6012.so:_RNvMNtNtCserdW9TeaKDe_11rustc_infer5infer12opaque_typesNtB4_9InferCtxt18opaque_type_origin
librustc_driver-0b75ba01aeee6012.so:_RNvMNtNtCserdW9TeaKDe_11rustc_infer5infer12opaque_typesNtB4_9InferCtxt27register_member_constraints
librustc_driver-0b75ba01aeee6012.so:_RNvMNtNtCserdW9TeaKDe_11rustc_infer5infer15error_reportingNtB2_11TypeErrCtxt8err_ctxt
librustc_driver-0b75ba01aeee6012.so:_RNvMNtNtCserdW9TeaKDe_11rustc_infer5infer2atNtB4_9InferCtxt4fork
librustc_driver-0b75ba01aeee6012.so:_RNvMNtNtCserdW9TeaKDe_11rustc_infer5infer5fudgeNtB4_9InferCtxt16variable_lengths
librustc_driver-0b75ba01aeee6012.so:_RNvMNtNtCserdW9TeaKDe_11rustc_infer5infer7combineNtB4_9InferCtxt20unify_const_variable
librustc_driver-0b75ba01aeee6012.so:_RNvMNtNtCserdW9TeaKDe_11rustc_infer5infer7combineNtB4_9InferCtxt20unify_float_variable
librustc_driver-0b75ba01aeee6012.so:_RNvMNtNtCserdW9TeaKDe_11rustc_infer5infer7combineNtB4_9InferCtxt23unify_integral_variable
librustc_driver-0b75ba01aeee6012.so:_RNvMNtNtCserdW9TeaKDe_11rustc_infer5infer7freshenNtB2_13TypeFreshener3new
librustc_driver-0b75ba01aeee6012.so:_RNvMNtNtCserdW9TeaKDe_11rustc_infer6errors16note_and_explainNtB2_14DescriptionCtx6add_to
librustc_driver-0b75ba01aeee6012.so:_RNvMNtNtCserdW9TeaKDe_11rustc_infer6traits15error_reportingNtNtB6_5infer9InferCtxt28report_extra_impl_obligation
librustc_driver-0b75ba01aeee6012.so:_RNvMNtNtCserdW9TeaKDe_11rustc_infer6traits4utilNtB2_12PredicateSet3new
librustc_driver-0b75ba01aeee6012.so:_RNvMNtNtCserdW9TeaKDe_11rustc_infer6traits4utilNtB2_12PredicateSet6insert
librustc_driver-0b75ba01aeee6012.so:_RNvMNtNtCsf8ECK0tLohG_16unic_langid_impl7subtags6regionNtB2_6Region10from_bytes
librustc_driver-0b75ba01aeee6012.so:_RNvMNtNtCsf8ECK0tLohG_16unic_langid_impl7subtags6regionNtB2_6Region18from_raw_unchecked
librustc_driver-0b75ba01aeee6012.so:_RNvMNtNtCsf8ECK0tLohG_16unic_langid_impl7subtags6regionNtB2_6Region6as_str
librustc_driver-0b75ba01aeee6012.so:_RNvMNtNtCsf8ECK0tLohG_16unic_langid_impl7subtags6scriptNtB2_6Script10from_bytes
librustc_driver-0b75ba01aeee6012.so:_RNvMNtNtCsf8ECK0tLohG_16unic_langid_impl7subtags6scriptNtB2_6Script18from_raw_unchecked
librustc_driver-0b75ba01aeee6012.so:_RNvMNtNtCsf8ECK0tLohG_16unic_langid_impl7subtags6scriptNtB2_6Script6as_str
librustc_driver-0b75ba01aeee6012.so:_RNvMNtNtCsf8ECK0tLohG_16unic_langid_impl7subtags7variantNtB2_7Variant10from_bytes
librustc_driver-0b75ba01aeee6012.so:_RNvMNtNtCsf8ECK0tLohG_16unic_langid_impl7subtags7variantNtB2_7Variant18from_raw_unchecked
librustc_driver-0b75ba01aeee6012.so:_RNvMNtNtCsf8ECK0tLohG_16unic_langid_impl7subtags7variantNtB2_7Variant6as_str
librustc_driver-0b75ba01aeee6012.so:_RNvMNtNtCsf8ECK0tLohG_16unic_langid_impl7subtags8languageNtB2_8Language10from_bytes
librustc_driver-0b75ba01aeee6012.so:_RNvMNtNtCsf8ECK0tLohG_16unic_langid_impl7subtags8languageNtB2_8Language18from_raw_unchecked
librustc_driver-0b75ba01aeee6012.so:_RNvMNtNtCsf8ECK0tLohG_16unic_langid_impl7subtags8languageNtB2_8Language5clear
librustc_driver-0b75ba01aeee6012.so:_RNvMNtNtCsf8ECK0tLohG_16unic_langid_impl7subtags8languageNtB2_8Language6as_str
librustc_driver-0b75ba01aeee6012.so:_RNvMNtNtCsf8ECK0tLohG_16unic_langid_impl7subtags8languageNtB2_8Language8is_empty
librustc_driver-0b75ba01aeee6012.so:_RNvMNtNtCsgOwEnlkkb0y_16rustc_hir_typeck6method7suggestNtNtB6_7fn_ctxt6FnCtxt14suggest_derive
librustc_driver-0b75ba01aeee6012.so:_RNvMNtNtCsgOwEnlkkb0y_16rustc_hir_typeck6method7suggestNtNtB6_7fn_ctxt6FnCtxt19report_method_error
librustc_driver-0b75ba01aeee6012.so:_RNvMNtNtCsgOwEnlkkb0y_16rustc_hir_typeck6method7suggestNtNtB6_7fn_ctxt6FnCtxt28report_no_match_method_error
librustc_driver-0b75ba01aeee6012.so:_RNvMNtNtCsgOwEnlkkb0y_16rustc_hir_typeck7fn_ctxt11suggestionsNtB4_6FnCtxt21extract_callable_info
librustc_driver-0b75ba01aeee6012.so:_RNvMNtNtCsgOwEnlkkb0y_16rustc_hir_typeck7fn_ctxt11suggestionsNtB4_6FnCtxt25suggest_deref_ref_or_into
librustc_driver-0b75ba01aeee6012.so:_RNvMNtNtCsgOwEnlkkb0y_16rustc_hir_typeck7fn_ctxt11suggestionsNtB4_6FnCtxt25suggest_missing_semicolon
librustc_driver-0b75ba01aeee6012.so:_RNvMNtNtCsgOwEnlkkb0y_16rustc_hir_typeck7fn_ctxt11suggestionsNtB4_6FnCtxt31suggest_remove_last_method_call
librustc_driver-0b75ba01aeee6012.so:_RNvMNtNtCsgOwEnlkkb0y_16rustc_hir_typeck7fn_ctxt11suggestionsNtB4_6FnCtxt32suggest_mismatched_types_on_tail
librustc_driver-0b75ba01aeee6012.so:_RNvMNtNtCsgOwEnlkkb0y_16rustc_hir_typeck7fn_ctxt5__implNtB4_6FnCtxt11get_fn_decl
librustc_driver-0b75ba01aeee6012.so:_RNvMNtNtCsgOwEnlkkb0y_16rustc_hir_typeck7fn_ctxt5__implNtB4_6FnCtxt11node_ty_opt
librustc_driver-0b75ba01aeee6012.so:_RNvMNtNtCsgOwEnlkkb0y_16rustc_hir_typeck7fn_ctxt5__implNtB4_6FnCtxt12write_substs
librustc_driver-0b75ba01aeee6012.so:_RNvMNtNtCsgOwEnlkkb0y_16rustc_hir_typeck7fn_ctxt5__implNtB4_6FnCtxt13add_wf_bounds
librustc_driver-0b75ba01aeee6012.so:_RNvMNtNtCsgOwEnlkkb0y_16rustc_hir_typeck7fn_ctxt5__implNtB4_6FnCtxt13handle_raw_ty
librustc_driver-0b75ba01aeee6012.so:_RNvMNtNtCsgOwEnlkkb0y_16rustc_hir_typeck7fn_ctxt5__implNtB4_6FnCtxt14register_bound
librustc_driver-0b75ba01aeee6012.so:_RNvMNtNtCsgOwEnlkkb0y_16rustc_hir_typeck7fn_ctxt5__implNtB4_6FnCtxt17apply_adjustments
librustc_driver-0b75ba01aeee6012.so:_RNvMNtNtCsgOwEnlkkb0y_16rustc_hir_typeck7fn_ctxt5__implNtB4_6FnCtxt17write_field_index
librustc_driver-0b75ba01aeee6012.so:_RNvMNtNtCsgOwEnlkkb0y_16rustc_hir_typeck7fn_ctxt5__implNtB4_6FnCtxt17write_method_call
librustc_driver-0b75ba01aeee6012.so:_RNvMNtNtCsgOwEnlkkb0y_16rustc_hir_typeck7fn_ctxt5__implNtB4_6FnCtxt18const_arg_to_const
librustc_driver-0b75ba01aeee6012.so:_RNvMNtNtCsgOwEnlkkb0y_16rustc_hir_typeck7fn_ctxt5__implNtB4_6FnCtxt18require_type_meets
librustc_driver-0b75ba01aeee6012.so:_RNvMNtNtCsgOwEnlkkb0y_16rustc_hir_typeck7fn_ctxt5__implNtB4_6FnCtxt21array_length_to_const
librustc_driver-0b75ba01aeee6012.so:_RNvMNtNtCsgOwEnlkkb0y_16rustc_hir_typeck7fn_ctxt5__implNtB4_6FnCtxt21require_type_is_sized
librustc_driver-0b75ba01aeee6012.so:_RNvMNtNtCsgOwEnlkkb0y_16rustc_hir_typeck7fn_ctxt5__implNtB4_6FnCtxt22instantiate_value_path
librustc_driver-0b75ba01aeee6012.so:_RNvMNtNtCsgOwEnlkkb0y_16rustc_hir_typeck7fn_ctxt5__implNtB4_6FnCtxt22register_wf_obligation
librustc_driver-0b75ba01aeee6012.so:_RNvMNtNtCsgOwEnlkkb0y_16rustc_hir_typeck7fn_ctxt5__implNtB4_6FnCtxt26structurally_resolved_type
librustc_driver-0b75ba01aeee6012.so:_RNvMNtNtCsgOwEnlkkb0y_16rustc_hir_typeck7fn_ctxt5__implNtB4_6FnCtxt26write_user_type_annotation
librustc_driver-0b75ba01aeee6012.so:_RNvMNtNtCsgOwEnlkkb0y_16rustc_hir_typeck7fn_ctxt5__implNtB4_6FnCtxt29to_ty_saving_user_provided_ty
librustc_driver-0b75ba01aeee6012.so:_RNvMNtNtCsgOwEnlkkb0y_16rustc_hir_typeck7fn_ctxt5__implNtB4_6FnCtxt30require_type_is_sized_deferred
librustc_driver-0b75ba01aeee6012.so:_RNvMNtNtCsgOwEnlkkb0y_16rustc_hir_typeck7fn_ctxt5__implNtB4_6FnCtxt30self_type_matches_expected_vid
librustc_driver-0b75ba01aeee6012.so:_RNvMNtNtCsgOwEnlkkb0y_16rustc_hir_typeck7fn_ctxt5__implNtB4_6FnCtxt32probe_instantiate_query_response
librustc_driver-0b75ba01aeee6012.so:_RNvMNtNtCsgOwEnlkkb0y_16rustc_hir_typeck7fn_ctxt5__implNtB4_6FnCtxt38write_user_type_annotation_from_substs
librustc_driver-0b75ba01aeee6012.so:_RNvMNtNtCsgOwEnlkkb0y_16rustc_hir_typeck7fn_ctxt5__implNtB4_6FnCtxt39resolve_ty_and_res_fully_qualified_call
librustc_driver-0b75ba01aeee6012.so:_RNvMNtNtCsgOwEnlkkb0y_16rustc_hir_typeck7fn_ctxt5__implNtB4_6FnCtxt3tag
librustc_driver-0b75ba01aeee6012.so:_RNvMNtNtCsgOwEnlkkb0y_16rustc_hir_typeck7fn_ctxt5__implNtB4_6FnCtxt5to_ty
librustc_driver-0b75ba01aeee6012.so:_RNvMNtNtCsgOwEnlkkb0y_16rustc_hir_typeck7fn_ctxt5__implNtB4_6FnCtxt7node_ty
librustc_driver-0b75ba01aeee6012.so:_RNvMNtNtCsgOwEnlkkb0y_16rustc_hir_typeck7fn_ctxt5__implNtB4_6FnCtxt8field_ty
librustc_driver-0b75ba01aeee6012.so:_RNvMNtNtCsgOwEnlkkb0y_16rustc_hir_typeck7fn_ctxt5__implNtB4_6FnCtxt8local_ty
librustc_driver-0b75ba01aeee6012.so:_RNvMNtNtCsgOwEnlkkb0y_16rustc_hir_typeck7fn_ctxt6checksNtB4_6FnCtxt10check_stmt
librustc_driver-0b75ba01aeee6012.so:_RNvMNtNtCsgOwEnlkkb0y_16rustc_hir_typeck7fn_ctxt6checksNtB4_6FnCtxt16check_decl_local
librustc_driver-0b75ba01aeee6012.so:_RNvMNtNtCsgOwEnlkkb0y_16rustc_hir_typeck7fn_ctxt6checksNtB4_6FnCtxt17check_struct_path
librustc_driver-0b75ba01aeee6012.so:_RNvMNtNtCsgOwEnlkkb0y_16rustc_hir_typeck7fn_ctxt6checksNtB4_6FnCtxt20check_block_no_value
librustc_driver-0b75ba01aeee6012.so:_RNvMNtNtCsgOwEnlkkb0y_16rustc_hir_typeck7fn_ctxt6checksNtB4_6FnCtxt22check_decl_initializer
librustc_driver-0b75ba01aeee6012.so:_RNvMNtNtCshJrk7kqXY5v_5serde2de4utf8NtB2_6Encode6as_str
librustc_driver-0b75ba01aeee6012.so:_RNvMNtNtCshJrk7kqXY5v_5serde2de6formatNtB2_3Buf3new
librustc_driver-0b75ba01aeee6012.so:_RNvMNtNtCshJrk7kqXY5v_5serde2de6formatNtB2_3Buf6as_str
librustc_driver-0b75ba01aeee6012.so:_RNvMNtNtCshjMEON3iz53_16rustc_const_eval10const_eval7machineNtB2_14CheckAlignment12should_check
librustc_driver-0b75ba01aeee6012.so:_RNvMNtNtCshjMEON3iz53_16rustc_const_eval4util9call_kindNtB2_18CallDesugaringKind12trait_def_id
librustc_driver-0b75ba01aeee6012.so:_RNvMNtNtCshjMEON3iz53_16rustc_const_eval9interpret12eval_contextNtB2_9SpanGuard3new
librustc_driver-0b75ba01aeee6012.so:_RNvMNtNtCshjMEON3iz53_16rustc_const_eval9interpret12eval_contextNtB2_9SpanGuard5enter
librustc_driver-0b75ba01aeee6012.so:_RNvMNtNtCshjMEON3iz53_16rustc_const_eval9transform12check_constsNtB2_7ConstCx10const_kind
librustc_driver-0b75ba01aeee6012.so:_RNvMNtNtCshjMEON3iz53_16rustc_const_eval9transform12check_constsNtB2_7ConstCx18new_with_param_env
librustc_driver-0b75ba01aeee6012.so:_RNvMNtNtCshjMEON3iz53_16rustc_const_eval9transform12check_constsNtB2_7ConstCx24is_const_stable_const_fn
librustc_driver-0b75ba01aeee6012.so:_RNvMNtNtCshjMEON3iz53_16rustc_const_eval9transform12check_constsNtB2_7ConstCx3new
librustc_driver-0b75ba01aeee6012.so:_RNvMNtNtCshjMEON3iz53_16rustc_const_eval9transform12check_constsNtB2_7ConstCx6def_id
librustc_driver-0b75ba01aeee6012.so:_RNvMNtNtCshjMEON3iz53_16rustc_const_eval9transform12check_constsNtB2_7ConstCx6fn_sig
librustc_driver-0b75ba01aeee6012.so:_RNvMNtNtCshn1YiuQfVU7_12rustc_target3abi4callNtB2_13ArgAttributes3ext
librustc_driver-0b75ba01aeee6012.so:_RNvMNtNtCshn1YiuQfVU7_12rustc_target3abi4callNtB2_13ArgAttributes3new
librustc_driver-0b75ba01aeee6012.so:_RNvMNtNtCshn1YiuQfVU7_12rustc_target3abi4callNtB2_13ArgAttributes3set
librustc_driver-0b75ba01aeee6012.so:_RNvMNtNtCshn1YiuQfVU7_12rustc_target3abi4callNtB2_13ArgAttributes8contains
librustc_driver-0b75ba01aeee6012.so:_RNvMNtNtCshn1YiuQfVU7_12rustc_target3asm3armNtB2_20ArmInlineAsmRegClass13suggest_class
librustc_driver-0b75ba01aeee6012.so:_RNvMNtNtCshn1YiuQfVU7_12rustc_target3asm3armNtB2_20ArmInlineAsmRegClass15supported_types
librustc_driver-0b75ba01aeee6012.so:_RNvMNtNtCshn1YiuQfVU7_12rustc_target3asm3armNtB2_20ArmInlineAsmRegClass15valid_modifiers
librustc_driver-0b75ba01aeee6012.so:_RNvMNtNtCshn1YiuQfVU7_12rustc_target3asm3armNtB2_20ArmInlineAsmRegClass16default_modifier
librustc_driver-0b75ba01aeee6012.so:_RNvMNtNtCshn1YiuQfVU7_12rustc_target3asm3armNtB2_20ArmInlineAsmRegClass16suggest_modifier
librustc_driver-0b75ba01aeee6012.so:_RNvMNtNtCshn1YiuQfVU7_12rustc_target3asm3avrNtB2_20AvrInlineAsmRegClass13suggest_class
librustc_driver-0b75ba01aeee6012.so:_RNvMNtNtCshn1YiuQfVU7_12rustc_target3asm3avrNtB2_20AvrInlineAsmRegClass15supported_types
librustc_driver-0b75ba01aeee6012.so:_RNvMNtNtCshn1YiuQfVU7_12rustc_target3asm3avrNtB2_20AvrInlineAsmRegClass15valid_modifiers
librustc_driver-0b75ba01aeee6012.so:_RNvMNtNtCshn1YiuQfVU7_12rustc_target3asm3avrNtB2_20AvrInlineAsmRegClass16default_modifier
librustc_driver-0b75ba01aeee6012.so:_RNvMNtNtCshn1YiuQfVU7_12rustc_target3asm3avrNtB2_20AvrInlineAsmRegClass16suggest_modifier
librustc_driver-0b75ba01aeee6012.so:_RNvMNtNtCshn1YiuQfVU7_12rustc_target3asm3bpfNtB2_20BpfInlineAsmRegClass13suggest_class
librustc_driver-0b75ba01aeee6012.so:_RNvMNtNtCshn1YiuQfVU7_12rustc_target3asm3bpfNtB2_20BpfInlineAsmRegClass15supported_types
librustc_driver-0b75ba01aeee6012.so:_RNvMNtNtCshn1YiuQfVU7_12rustc_target3asm3bpfNtB2_20BpfInlineAsmRegClass15valid_modifiers
librustc_driver-0b75ba01aeee6012.so:_RNvMNtNtCshn1YiuQfVU7_12rustc_target3asm3bpfNtB2_20BpfInlineAsmRegClass16default_modifier
librustc_driver-0b75ba01aeee6012.so:_RNvMNtNtCshn1YiuQfVU7_12rustc_target3asm3bpfNtB2_20BpfInlineAsmRegClass16suggest_modifier
librustc_driver-0b75ba01aeee6012.so:_RNvMNtNtCshn1YiuQfVU7_12rustc_target3asm3x86NtB2_20X86InlineAsmRegClass13suggest_class
librustc_driver-0b75ba01aeee6012.so:_RNvMNtNtCshn1YiuQfVU7_12rustc_target3asm3x86NtB2_20X86InlineAsmRegClass15supported_types
librustc_driver-0b75ba01aeee6012.so:_RNvMNtNtCshn1YiuQfVU7_12rustc_target3asm3x86NtB2_20X86InlineAsmRegClass15valid_modifiers
librustc_driver-0b75ba01aeee6012.so:_RNvMNtNtCshn1YiuQfVU7_12rustc_target3asm3x86NtB2_20X86InlineAsmRegClass16default_modifier
librustc_driver-0b75ba01aeee6012.so:_RNvMNtNtCshn1YiuQfVU7_12rustc_target3asm3x86NtB2_20X86InlineAsmRegClass16suggest_modifier
librustc_driver-0b75ba01aeee6012.so:_RNvMNtNtCshn1YiuQfVU7_12rustc_target3asm4mipsNtB2_21MipsInlineAsmRegClass13suggest_class
librustc_driver-0b75ba01aeee6012.so:_RNvMNtNtCshn1YiuQfVU7_12rustc_target3asm4mipsNtB2_21MipsInlineAsmRegClass15supported_types
librustc_driver-0b75ba01aeee6012.so:_RNvMNtNtCshn1YiuQfVU7_12rustc_target3asm4mipsNtB2_21MipsInlineAsmRegClass15valid_modifiers
librustc_driver-0b75ba01aeee6012.so:_RNvMNtNtCshn1YiuQfVU7_12rustc_target3asm4mipsNtB2_21MipsInlineAsmRegClass16default_modifier
librustc_driver-0b75ba01aeee6012.so:_RNvMNtNtCshn1YiuQfVU7_12rustc_target3asm4mipsNtB2_21MipsInlineAsmRegClass16suggest_modifier
librustc_driver-0b75ba01aeee6012.so:_RNvMNtNtCshn1YiuQfVU7_12rustc_target3asm4wasmNtB2_21WasmInlineAsmRegClass13suggest_class
librustc_driver-0b75ba01aeee6012.so:_RNvMNtNtCshn1YiuQfVU7_12rustc_target3asm4wasmNtB2_21WasmInlineAsmRegClass15supported_types
librustc_driver-0b75ba01aeee6012.so:_RNvMNtNtCshn1YiuQfVU7_12rustc_target3asm4wasmNtB2_21WasmInlineAsmRegClass15valid_modifiers
librustc_driver-0b75ba01aeee6012.so:_RNvMNtNtCshn1YiuQfVU7_12rustc_target3asm4wasmNtB2_21WasmInlineAsmRegClass16default_modifier
librustc_driver-0b75ba01aeee6012.so:_RNvMNtNtCshn1YiuQfVU7_12rustc_target3asm4wasmNtB2_21WasmInlineAsmRegClass16suggest_modifier
librustc_driver-0b75ba01aeee6012.so:_RNvMNtNtCshn1YiuQfVU7_12rustc_target3asm5nvptxNtB2_22NvptxInlineAsmRegClass13suggest_class
librustc_driver-0b75ba01aeee6012.so:_RNvMNtNtCshn1YiuQfVU7_12rustc_target3asm5nvptxNtB2_22NvptxInlineAsmRegClass15supported_types
librustc_driver-0b75ba01aeee6012.so:_RNvMNtNtCshn1YiuQfVU7_12rustc_target3asm5nvptxNtB2_22NvptxInlineAsmRegClass15valid_modifiers
librustc_driver-0b75ba01aeee6012.so:_RNvMNtNtCshn1YiuQfVU7_12rustc_target3asm5nvptxNtB2_22NvptxInlineAsmRegClass16default_modifier
librustc_driver-0b75ba01aeee6012.so:_RNvMNtNtCshn1YiuQfVU7_12rustc_target3asm5nvptxNtB2_22NvptxInlineAsmRegClass16suggest_modifier
librustc_driver-0b75ba01aeee6012.so:_RNvMNtNtCshn1YiuQfVU7_12rustc_target3asm5riscvNtB2_22RiscVInlineAsmRegClass13suggest_class
librustc_driver-0b75ba01aeee6012.so:_RNvMNtNtCshn1YiuQfVU7_12rustc_target3asm5riscvNtB2_22RiscVInlineAsmRegClass15supported_types
librustc_driver-0b75ba01aeee6012.so:_RNvMNtNtCshn1YiuQfVU7_12rustc_target3asm5riscvNtB2_22RiscVInlineAsmRegClass15valid_modifiers
librustc_driver-0b75ba01aeee6012.so:_RNvMNtNtCshn1YiuQfVU7_12rustc_target3asm5riscvNtB2_22RiscVInlineAsmRegClass16default_modifier
librustc_driver-0b75ba01aeee6012.so:_RNvMNtNtCshn1YiuQfVU7_12rustc_target3asm5riscvNtB2_22RiscVInlineAsmRegClass16suggest_modifier
librustc_driver-0b75ba01aeee6012.so:_RNvMNtNtCshn1YiuQfVU7_12rustc_target3asm5s390xNtB2_22S390xInlineAsmRegClass13suggest_class
librustc_driver-0b75ba01aeee6012.so:_RNvMNtNtCshn1YiuQfVU7_12rustc_target3asm5s390xNtB2_22S390xInlineAsmRegClass15supported_types
librustc_driver-0b75ba01aeee6012.so:_RNvMNtNtCshn1YiuQfVU7_12rustc_target3asm5s390xNtB2_22S390xInlineAsmRegClass15valid_modifiers
librustc_driver-0b75ba01aeee6012.so:_RNvMNtNtCshn1YiuQfVU7_12rustc_target3asm5s390xNtB2_22S390xInlineAsmRegClass16default_modifier
librustc_driver-0b75ba01aeee6012.so:_RNvMNtNtCshn1YiuQfVU7_12rustc_target3asm5s390xNtB2_22S390xInlineAsmRegClass16suggest_modifier
librustc_driver-0b75ba01aeee6012.so:_RNvMNtNtCshn1YiuQfVU7_12rustc_target3asm5spirvNtB2_22SpirVInlineAsmRegClass13suggest_class
librustc_driver-0b75ba01aeee6012.so:_RNvMNtNtCshn1YiuQfVU7_12rustc_target3asm5spirvNtB2_22SpirVInlineAsmRegClass15supported_types
librustc_driver-0b75ba01aeee6012.so:_RNvMNtNtCshn1YiuQfVU7_12rustc_target3asm5spirvNtB2_22SpirVInlineAsmRegClass15valid_modifiers
librustc_driver-0b75ba01aeee6012.so:_RNvMNtNtCshn1YiuQfVU7_12rustc_target3asm5spirvNtB2_22SpirVInlineAsmRegClass16default_modifier
librustc_driver-0b75ba01aeee6012.so:_RNvMNtNtCshn1YiuQfVU7_12rustc_target3asm5spirvNtB2_22SpirVInlineAsmRegClass16suggest_modifier
librustc_driver-0b75ba01aeee6012.so:_RNvMNtNtCshn1YiuQfVU7_12rustc_target3asm6msp430NtB2_23Msp430InlineAsmRegClass13suggest_class
librustc_driver-0b75ba01aeee6012.so:_RNvMNtNtCshn1YiuQfVU7_12rustc_target3asm6msp430NtB2_23Msp430InlineAsmRegClass15supported_types
librustc_driver-0b75ba01aeee6012.so:_RNvMNtNtCshn1YiuQfVU7_12rustc_target3asm6msp430NtB2_23Msp430InlineAsmRegClass15valid_modifiers
librustc_driver-0b75ba01aeee6012.so:_RNvMNtNtCshn1YiuQfVU7_12rustc_target3asm6msp430NtB2_23Msp430InlineAsmRegClass16default_modifier
librustc_driver-0b75ba01aeee6012.so:_RNvMNtNtCshn1YiuQfVU7_12rustc_target3asm6msp430NtB2_23Msp430InlineAsmRegClass16suggest_modifier
librustc_driver-0b75ba01aeee6012.so:_RNvMNtNtCshn1YiuQfVU7_12rustc_target3asm7aarch64NtB2_24AArch64InlineAsmRegClass13suggest_class
librustc_driver-0b75ba01aeee6012.so:_RNvMNtNtCshn1YiuQfVU7_12rustc_target3asm7aarch64NtB2_24AArch64InlineAsmRegClass15supported_types
librustc_driver-0b75ba01aeee6012.so:_RNvMNtNtCshn1YiuQfVU7_12rustc_target3asm7aarch64NtB2_24AArch64InlineAsmRegClass15valid_modifiers
librustc_driver-0b75ba01aeee6012.so:_RNvMNtNtCshn1YiuQfVU7_12rustc_target3asm7aarch64NtB2_24AArch64InlineAsmRegClass16default_modifier
librustc_driver-0b75ba01aeee6012.so:_RNvMNtNtCshn1YiuQfVU7_12rustc_target3asm7aarch64NtB2_24AArch64InlineAsmRegClass16suggest_modifier
librustc_driver-0b75ba01aeee6012.so:_RNvMNtNtCshn1YiuQfVU7_12rustc_target3asm7hexagonNtB2_24HexagonInlineAsmRegClass13suggest_class
librustc_driver-0b75ba01aeee6012.so:_RNvMNtNtCshn1YiuQfVU7_12rustc_target3asm7hexagonNtB2_24HexagonInlineAsmRegClass15supported_types
librustc_driver-0b75ba01aeee6012.so:_RNvMNtNtCshn1YiuQfVU7_12rustc_target3asm7hexagonNtB2_24HexagonInlineAsmRegClass15valid_modifiers
librustc_driver-0b75ba01aeee6012.so:_RNvMNtNtCshn1YiuQfVU7_12rustc_target3asm7hexagonNtB2_24HexagonInlineAsmRegClass16default_modifier
librustc_driver-0b75ba01aeee6012.so:_RNvMNtNtCshn1YiuQfVU7_12rustc_target3asm7hexagonNtB2_24HexagonInlineAsmRegClass16suggest_modifier
librustc_driver-0b75ba01aeee6012.so:_RNvMNtNtCshn1YiuQfVU7_12rustc_target3asm7powerpcNtB2_24PowerPCInlineAsmRegClass13suggest_class
librustc_driver-0b75ba01aeee6012.so:_RNvMNtNtCshn1YiuQfVU7_12rustc_target3asm7powerpcNtB2_24PowerPCInlineAsmRegClass15supported_types
librustc_driver-0b75ba01aeee6012.so:_RNvMNtNtCshn1YiuQfVU7_12rustc_target3asm7powerpcNtB2_24PowerPCInlineAsmRegClass15valid_modifiers
librustc_driver-0b75ba01aeee6012.so:_RNvMNtNtCshn1YiuQfVU7_12rustc_target3asm7powerpcNtB2_24PowerPCInlineAsmRegClass16default_modifier
librustc_driver-0b75ba01aeee6012.so:_RNvMNtNtCshn1YiuQfVU7_12rustc_target3asm7powerpcNtB2_24PowerPCInlineAsmRegClass16suggest_modifier
librustc_driver-0b75ba01aeee6012.so:_RNvMNtNtCshn1YiuQfVU7_12rustc_target4spec3abiNtB2_3Abi16supports_varargs
librustc_driver-0b75ba01aeee6012.so:_RNvMNtNtCsj89wkcdy9Rv_16rustc_ast_pretty2pp11convenienceNtB4_7Printer12break_offset
librustc_driver-0b75ba01aeee6012.so:_RNvMNtNtCsj89wkcdy9Rv_16rustc_ast_pretty2pp11convenienceNtB4_7Printer12visual_align
librustc_driver-0b75ba01aeee6012.so:_RNvMNtNtCsj89wkcdy9Rv_16rustc_ast_pretty2pp11convenienceNtB4_7Printer14trailing_comma
librustc_driver-0b75ba01aeee6012.so:_RNvMNtNtCsj89wkcdy9Rv_16rustc_ast_pretty2pp11convenienceNtB4_7Printer20hardbreak_tok_offset
librustc_driver-0b75ba01aeee6012.so:_RNvMNtNtCsj89wkcdy9Rv_16rustc_ast_pretty2pp11convenienceNtB4_7Printer20is_beginning_of_line
librustc_driver-0b75ba01aeee6012.so:_RNvMNtNtCsj89wkcdy9Rv_16rustc_ast_pretty2pp11convenienceNtB4_7Printer23trailing_comma_or_space
librustc_driver-0b75ba01aeee6012.so:_RNvMNtNtCsj89wkcdy9Rv_16rustc_ast_pretty2pp11convenienceNtB4_7Printer3end
librustc_driver-0b75ba01aeee6012.so:_RNvMNtNtCsj89wkcdy9Rv_16rustc_ast_pretty2pp11convenienceNtB4_7Printer3eof
librustc_driver-0b75ba01aeee6012.so:_RNvMNtNtCsj89wkcdy9Rv_16rustc_ast_pretty2pp11convenienceNtB4_7Printer4cbox
librustc_driver-0b75ba01aeee6012.so:_RNvMNtNtCsj89wkcdy9Rv_16rustc_ast_pretty2pp11convenienceNtB4_7Printer4ibox
librustc_driver-0b75ba01aeee6012.so:_RNvMNtNtCsj89wkcdy9Rv_16rustc_ast_pretty2pp11convenienceNtB4_7Printer4rbox
librustc_driver-0b75ba01aeee6012.so:_RNvMNtNtCsj89wkcdy9Rv_16rustc_ast_pretty2pp11convenienceNtB4_7Printer5space
librustc_driver-0b75ba01aeee6012.so:_RNvMNtNtCsj89wkcdy9Rv_16rustc_ast_pretty2pp11convenienceNtB4_7Printer9hardbreak
librustc_driver-0b75ba01aeee6012.so:_RNvMNtNtCsj89wkcdy9Rv_16rustc_ast_pretty2pp11convenienceNtB4_7Printer9zerobreak
librustc_driver-0b75ba01aeee6012.so:_RNvMNtNtCsjwWoBr4mZn4_5regex10re_builder11set_unicodeNtB2_15RegexSetBuilder10multi_line
librustc_driver-0b75ba01aeee6012.so:_RNvMNtNtCsjwWoBr4mZn4_5regex10re_builder11set_unicodeNtB2_15RegexSetBuilder10nest_limit
librustc_driver-0b75ba01aeee6012.so:_RNvMNtNtCsjwWoBr4mZn4_5regex10re_builder11set_unicodeNtB2_15RegexSetBuilder10size_limit
librustc_driver-0b75ba01aeee6012.so:_RNvMNtNtCsjwWoBr4mZn4_5regex10re_builder11set_unicodeNtB2_15RegexSetBuilder10swap_greed
librustc_driver-0b75ba01aeee6012.so:_RNvMNtNtCsjwWoBr4mZn4_5regex10re_builder11set_unicodeNtB2_15RegexSetBuilder14dfa_size_limit
librustc_driver-0b75ba01aeee6012.so:_RNvMNtNtCsjwWoBr4mZn4_5regex10re_builder11set_unicodeNtB2_15RegexSetBuilder16case_insensitive
librustc_driver-0b75ba01aeee6012.so:_RNvMNtNtCsjwWoBr4mZn4_5regex10re_builder11set_unicodeNtB2_15RegexSetBuilder17ignore_whitespace
librustc_driver-0b75ba01aeee6012.so:_RNvMNtNtCsjwWoBr4mZn4_5regex10re_builder11set_unicodeNtB2_15RegexSetBuilder20dot_matches_new_line
librustc_driver-0b75ba01aeee6012.so:_RNvMNtNtCsjwWoBr4mZn4_5regex10re_builder11set_unicodeNtB2_15RegexSetBuilder5build
librustc_driver-0b75ba01aeee6012.so:_RNvMNtNtCsjwWoBr4mZn4_5regex10re_builder11set_unicodeNtB2_15RegexSetBuilder5octal
librustc_driver-0b75ba01aeee6012.so:_RNvMNtNtCsjwWoBr4mZn4_5regex10re_builder11set_unicodeNtB2_15RegexSetBuilder7unicode
librustc_driver-0b75ba01aeee6012.so:_RNvMNtNtCsjwWoBr4mZn4_5regex10re_builder5bytesNtB2_12RegexBuilder10multi_line
librustc_driver-0b75ba01aeee6012.so:_RNvMNtNtCsjwWoBr4mZn4_5regex10re_builder5bytesNtB2_12RegexBuilder10nest_limit
librustc_driver-0b75ba01aeee6012.so:_RNvMNtNtCsjwWoBr4mZn4_5regex10re_builder5bytesNtB2_12RegexBuilder10size_limit
librustc_driver-0b75ba01aeee6012.so:_RNvMNtNtCsjwWoBr4mZn4_5regex10re_builder5bytesNtB2_12RegexBuilder10swap_greed
librustc_driver-0b75ba01aeee6012.so:_RNvMNtNtCsjwWoBr4mZn4_5regex10re_builder5bytesNtB2_12RegexBuilder14dfa_size_limit
librustc_driver-0b75ba01aeee6012.so:_RNvMNtNtCsjwWoBr4mZn4_5regex10re_builder5bytesNtB2_12RegexBuilder16case_insensitive
librustc_driver-0b75ba01aeee6012.so:_RNvMNtNtCsjwWoBr4mZn4_5regex10re_builder5bytesNtB2_12RegexBuilder17ignore_whitespace
librustc_driver-0b75ba01aeee6012.so:_RNvMNtNtCsjwWoBr4mZn4_5regex10re_builder5bytesNtB2_12RegexBuilder20dot_matches_new_line
librustc_driver-0b75ba01aeee6012.so:_RNvMNtNtCsjwWoBr4mZn4_5regex10re_builder5bytesNtB2_12RegexBuilder3new
librustc_driver-0b75ba01aeee6012.so:_RNvMNtNtCsjwWoBr4mZn4_5regex10re_builder5bytesNtB2_12RegexBuilder5build
librustc_driver-0b75ba01aeee6012.so:_RNvMNtNtCsjwWoBr4mZn4_5regex10re_builder5bytesNtB2_12RegexBuilder5octal
librustc_driver-0b75ba01aeee6012.so:_RNvMNtNtCsjwWoBr4mZn4_5regex10re_builder5bytesNtB2_12RegexBuilder7unicode
librustc_driver-0b75ba01aeee6012.so:_RNvMNtNtCsjwWoBr4mZn4_5regex10re_builder7unicodeNtB2_12RegexBuilder10multi_line
librustc_driver-0b75ba01aeee6012.so:_RNvMNtNtCsjwWoBr4mZn4_5regex10re_builder7unicodeNtB2_12RegexBuilder10nest_limit
librustc_driver-0b75ba01aeee6012.so:_RNvMNtNtCsjwWoBr4mZn4_5regex10re_builder7unicodeNtB2_12RegexBuilder10size_limit
librustc_driver-0b75ba01aeee6012.so:_RNvMNtNtCsjwWoBr4mZn4_5regex10re_builder7unicodeNtB2_12RegexBuilder10swap_greed
librustc_driver-0b75ba01aeee6012.so:_RNvMNtNtCsjwWoBr4mZn4_5regex10re_builder7unicodeNtB2_12RegexBuilder14dfa_size_limit
librustc_driver-0b75ba01aeee6012.so:_RNvMNtNtCsjwWoBr4mZn4_5regex10re_builder7unicodeNtB2_12RegexBuilder16case_insensitive
librustc_driver-0b75ba01aeee6012.so:_RNvMNtNtCsjwWoBr4mZn4_5regex10re_builder7unicodeNtB2_12RegexBuilder17ignore_whitespace
librustc_driver-0b75ba01aeee6012.so:_RNvMNtNtCsjwWoBr4mZn4_5regex10re_builder7unicodeNtB2_12RegexBuilder20dot_matches_new_line
librustc_driver-0b75ba01aeee6012.so:_RNvMNtNtCsjwWoBr4mZn4_5regex10re_builder7unicodeNtB2_12RegexBuilder3new
librustc_driver-0b75ba01aeee6012.so:_RNvMNtNtCsjwWoBr4mZn4_5regex10re_builder7unicodeNtB2_12RegexBuilder5build
librustc_driver-0b75ba01aeee6012.so:_RNvMNtNtCsjwWoBr4mZn4_5regex10re_builder7unicodeNtB2_12RegexBuilder5octal
librustc_driver-0b75ba01aeee6012.so:_RNvMNtNtCsjwWoBr4mZn4_5regex10re_builder7unicodeNtB2_12RegexBuilder7unicode
librustc_driver-0b75ba01aeee6012.so:_RNvMNtNtCsjwWoBr4mZn4_5regex10re_builder9set_bytesNtB2_15RegexSetBuilder10multi_line
librustc_driver-0b75ba01aeee6012.so:_RNvMNtNtCsjwWoBr4mZn4_5regex10re_builder9set_bytesNtB2_15RegexSetBuilder10nest_limit
librustc_driver-0b75ba01aeee6012.so:_RNvMNtNtCsjwWoBr4mZn4_5regex10re_builder9set_bytesNtB2_15RegexSetBuilder10size_limit
librustc_driver-0b75ba01aeee6012.so:_RNvMNtNtCsjwWoBr4mZn4_5regex10re_builder9set_bytesNtB2_15RegexSetBuilder10swap_greed
librustc_driver-0b75ba01aeee6012.so:_RNvMNtNtCsjwWoBr4mZn4_5regex10re_builder9set_bytesNtB2_15RegexSetBuilder14dfa_size_limit
librustc_driver-0b75ba01aeee6012.so:_RNvMNtNtCsjwWoBr4mZn4_5regex10re_builder9set_bytesNtB2_15RegexSetBuilder16case_insensitive
librustc_driver-0b75ba01aeee6012.so:_RNvMNtNtCsjwWoBr4mZn4_5regex10re_builder9set_bytesNtB2_15RegexSetBuilder17ignore_whitespace
librustc_driver-0b75ba01aeee6012.so:_RNvMNtNtCsjwWoBr4mZn4_5regex10re_builder9set_bytesNtB2_15RegexSetBuilder20dot_matches_new_line
librustc_driver-0b75ba01aeee6012.so:_RNvMNtNtCsjwWoBr4mZn4_5regex10re_builder9set_bytesNtB2_15RegexSetBuilder5build
librustc_driver-0b75ba01aeee6012.so:_RNvMNtNtCsjwWoBr4mZn4_5regex10re_builder9set_bytesNtB2_15RegexSetBuilder5octal
librustc_driver-0b75ba01aeee6012.so:_RNvMNtNtCsjwWoBr4mZn4_5regex10re_builder9set_bytesNtB2_15RegexSetBuilder7unicode
librustc_driver-0b75ba01aeee6012.so:_RNvMNtNtCsjwWoBr4mZn4_5regex6re_set5bytesNtB2_8RegexSet11is_match_at
librustc_driver-0b75ba01aeee6012.so:_RNvMNtNtCsjwWoBr4mZn4_5regex6re_set5bytesNtB2_8RegexSet15read_matches_at
librustc_driver-0b75ba01aeee6012.so:_RNvMNtNtCsjwWoBr4mZn4_5regex6re_set5bytesNtB2_8RegexSet3len
librustc_driver-0b75ba01aeee6012.so:_RNvMNtNtCsjwWoBr4mZn4_5regex6re_set5bytesNtB2_8RegexSet5empty
librustc_driver-0b75ba01aeee6012.so:_RNvMNtNtCsjwWoBr4mZn4_5regex6re_set5bytesNtB2_8RegexSet7matches
librustc_driver-0b75ba01aeee6012.so:_RNvMNtNtCsjwWoBr4mZn4_5regex6re_set5bytesNtB2_8RegexSet8is_empty
librustc_driver-0b75ba01aeee6012.so:_RNvMNtNtCsjwWoBr4mZn4_5regex6re_set5bytesNtB2_8RegexSet8is_match
librustc_driver-0b75ba01aeee6012.so:_RNvMNtNtCsjwWoBr4mZn4_5regex6re_set5bytesNtB2_8RegexSet8patterns
librustc_driver-0b75ba01aeee6012.so:_RNvMNtNtCsjwWoBr4mZn4_5regex6re_set7unicodeNtB2_8RegexSet11is_match_at
librustc_driver-0b75ba01aeee6012.so:_RNvMNtNtCsjwWoBr4mZn4_5regex6re_set7unicodeNtB2_8RegexSet15read_matches_at
librustc_driver-0b75ba01aeee6012.so:_RNvMNtNtCsjwWoBr4mZn4_5regex6re_set7unicodeNtB2_8RegexSet3len
librustc_driver-0b75ba01aeee6012.so:_RNvMNtNtCsjwWoBr4mZn4_5regex6re_set7unicodeNtB2_8RegexSet5empty
librustc_driver-0b75ba01aeee6012.so:_RNvMNtNtCsjwWoBr4mZn4_5regex6re_set7unicodeNtB2_8RegexSet7matches
librustc_driver-0b75ba01aeee6012.so:_RNvMNtNtCsjwWoBr4mZn4_5regex6re_set7unicodeNtB2_8RegexSet8is_empty
librustc_driver-0b75ba01aeee6012.so:_RNvMNtNtCsjwWoBr4mZn4_5regex6re_set7unicodeNtB2_8RegexSet8is_match
librustc_driver-0b75ba01aeee6012.so:_RNvMNtNtCsjwWoBr4mZn4_5regex6re_set7unicodeNtB2_8RegexSet8patterns
librustc_driver-0b75ba01aeee6012.so:_RNvMNtNtCsjwWoBr4mZn4_5regex7literal3impNtB2_15LiteralSearcher10find_start
librustc_driver-0b75ba01aeee6012.so:_RNvMNtNtCsjwWoBr4mZn4_5regex7literal3impNtB2_15LiteralSearcher16approximate_size
librustc_driver-0b75ba01aeee6012.so:_RNvMNtNtCsjwWoBr4mZn4_5regex7literal3impNtB2_15LiteralSearcher3lcp
librustc_driver-0b75ba01aeee6012.so:_RNvMNtNtCsjwWoBr4mZn4_5regex7literal3impNtB2_15LiteralSearcher3lcs
librustc_driver-0b75ba01aeee6012.so:_RNvMNtNtCsjwWoBr4mZn4_5regex7literal3impNtB2_15LiteralSearcher3len
librustc_driver-0b75ba01aeee6012.so:_RNvMNtNtCsjwWoBr4mZn4_5regex7literal3impNtB2_15LiteralSearcher4iter
librustc_driver-0b75ba01aeee6012.so:_RNvMNtNtCsjwWoBr4mZn4_5regex7literal3impNtB2_15LiteralSearcher5empty
librustc_driver-0b75ba01aeee6012.so:_RNvMNtNtCsjwWoBr4mZn4_5regex7literal3impNtB2_15LiteralSearcher8complete
librustc_driver-0b75ba01aeee6012.so:_RNvMNtNtCsjwWoBr4mZn4_5regex7literal3impNtB2_15LiteralSearcher8find_end
librustc_driver-0b75ba01aeee6012.so:_RNvMNtNtCsjwWoBr4mZn4_5regex7literal3impNtB2_15LiteralSearcher8is_empty
librustc_driver-0b75ba01aeee6012.so:_RNvMNtNtCsjwWoBr4mZn4_5regex7literal3impNtB2_15LiteralSearcher8prefixes
librustc_driver-0b75ba01aeee6012.so:_RNvMNtNtCsjwWoBr4mZn4_5regex7literal3impNtB2_15LiteralSearcher8suffixes
librustc_driver-0b75ba01aeee6012.so:_RNvMNtNtCslHYBY6N44Zw_4rand4rngs4mockNtB2_7StepRng3new
librustc_driver-0b75ba01aeee6012.so:_RNvMNtNtNtCs1Br764BqhVG_6object4read2pe10relocationNtB2_23RelocationBlockIterator3new
librustc_driver-0b75ba01aeee6012.so:_RNvMNtNtNtCs1Br764BqhVG_6object4read2pe10relocationNtB2_23RelocationBlockIterator4next
librustc_driver-0b75ba01aeee6012.so:_RNvMNtNtNtCs1Br764BqhVG_6object4read2pe14data_directoryNtB2_15DataDirectories3get
librustc_driver-0b75ba01aeee6012.so:_RNvMNtNtNtCs1Br764BqhVG_6object4read2pe14data_directoryNtB2_15DataDirectories3len
librustc_driver-0b75ba01aeee6012.so:_RNvMNtNtNtCs1Br764BqhVG_6object4read2pe14data_directoryNtB2_15DataDirectories4iter
librustc_driver-0b75ba01aeee6012.so:_RNvMNtNtNtCs1Br764BqhVG_6object4read2pe14data_directoryNtB2_15DataDirectories5parse
librustc_driver-0b75ba01aeee6012.so:_RNvMNtNtNtCs1Br764BqhVG_6object4read2pe14data_directoryNtB2_15DataDirectories9enumerate
librustc_driver-0b75ba01aeee6012.so:_RNvMNtNtNtCs1Br764BqhVG_6object4read2pe4richNtB2_14RichHeaderInfo16unmasked_entries
librustc_driver-0b75ba01aeee6012.so:_RNvMNtNtNtCs1Br764BqhVG_6object4read2pe6exportNtB2_12ExportTarget10is_address
librustc_driver-0b75ba01aeee6012.so:_RNvMNtNtNtCs1Br764BqhVG_6object4read2pe6exportNtB2_12ExportTarget10is_forward
librustc_driver-0b75ba01aeee6012.so:_RNvMNtNtNtCs1Br764BqhVG_6object4read2pe6importNtB2_11ImportTable11descriptors
librustc_driver-0b75ba01aeee6012.so:_RNvMNtNtNtCs1Br764BqhVG_6object4read2pe6importNtB2_11ImportTable3new
librustc_driver-0b75ba01aeee6012.so:_RNvMNtNtNtCs1Br764BqhVG_6object4read2pe6importNtB2_11ImportTable4name
librustc_driver-0b75ba01aeee6012.so:_RNvMNtNtNtCs1Br764BqhVG_6object4read2pe6importNtB2_11ImportTable6thunks
librustc_driver-0b75ba01aeee6012.so:_RNvMNtNtNtCs1Br764BqhVG_6object4read2pe6importNtB2_11ImportTable9hint_name
librustc_driver-0b75ba01aeee6012.so:_RNvMNtNtNtCs1Br764BqhVG_6object4read2pe8resourceNtB2_17ResourceDirectory3new
librustc_driver-0b75ba01aeee6012.so:_RNvMNtNtNtCs1Br764BqhVG_6object4read2pe8resourceNtB2_17ResourceDirectory4root
librustc_driver-0b75ba01aeee6012.so:_RNvMNtNtNtCs1Br764BqhVG_6object4read3elf10relocationNtB2_18RelocationSections3get
librustc_driver-0b75ba01aeee6012.so:_RNvMNtNtNtCs1Br764BqhVG_6object4read3elf7versionNtB2_12VersionIndex5index
librustc_driver-0b75ba01aeee6012.so:_RNvMNtNtNtCs1Br764BqhVG_6object4read3elf7versionNtB2_12VersionIndex8is_local
librustc_driver-0b75ba01aeee6012.so:_RNvMNtNtNtCs1Br764BqhVG_6object4read3elf7versionNtB2_12VersionIndex9is_global
librustc_driver-0b75ba01aeee6012.so:_RNvMNtNtNtCs1Br764BqhVG_6object4read3elf7versionNtB2_12VersionIndex9is_hidden
librustc_driver-0b75ba01aeee6012.so:_RNvMNtNtNtCs1Br764BqhVG_6object4read4coff7sectionNtB2_12SectionTable23max_section_file_offset
librustc_driver-0b75ba01aeee6012.so:_RNvMNtNtNtCs1Br764BqhVG_6object4read4coff7sectionNtB2_12SectionTable7section
librustc_driver-0b75ba01aeee6012.so:_RNvMNtNtNtCs1Br764BqhVG_6object5write3elf6writerNtB2_6Writer10add_string
librustc_driver-0b75ba01aeee6012.so:_RNvMNtNtNtCs1Br764BqhVG_6object5write3elf6writerNtB2_6Writer11write_align
librustc_driver-0b75ba01aeee6012.so:_RNvMNtNtNtCs1Br764BqhVG_6object5write3elf6writerNtB2_6Writer12dynstr_index
librustc_driver-0b75ba01aeee6012.so:_RNvMNtNtNtCs1Br764BqhVG_6object5write3elf6writerNtB2_6Writer12dynsym_index
librustc_driver-0b75ba01aeee6012.so:_RNvMNtNtNtCs1Br764BqhVG_6object5write3elf6writerNtB2_6Writer12reserve_hash
librustc_driver-0b75ba01aeee6012.so:_RNvMNtNtNtCs1Br764BqhVG_6object5write3elf6writerNtB2_6Writer12reserved_len
librustc_driver-0b75ba01aeee6012.so:_RNvMNtNtNtCs1Br764BqhVG_6object5write3elf6writerNtB2_6Writer12symbol_count
librustc_driver-0b75ba01aeee6012.so:_RNvMNtNtNtCs1Br764BqhVG_6object5write3elf6writerNtB2_6Writer12symtab_index
librustc_driver-0b75ba01aeee6012.so:_RNvMNtNtNtCs1Br764BqhVG_6object5write3elf6writerNtB2_6Writer12write_dynstr
librustc_driver-0b75ba01aeee6012.so:_RNvMNtNtNtCs1Br764BqhVG_6object5write3elf6writerNtB2_6Writer12write_strtab
librustc_driver-0b75ba01aeee6012.so:_RNvMNtNtNtCs1Br764BqhVG_6object5write3elf6writerNtB2_6Writer12write_symbol
librustc_driver-0b75ba01aeee6012.so:_RNvMNtNtNtCs1Br764BqhVG_6object5write3elf6writerNtB2_6Writer13dynstr_needed
librustc_driver-0b75ba01aeee6012.so:_RNvMNtNtNtCs1Br764BqhVG_6object5write3elf6writerNtB2_6Writer13reserve_until
librustc_driver-0b75ba01aeee6012.so:_RNvMNtNtNtCs1Br764BqhVG_6object5write3elf6writerNtB2_6Writer13strtab_needed
librustc_driver-0b75ba01aeee6012.so:_RNvMNtNtNtCs1Br764BqhVG_6object5write3elf6writerNtB2_6Writer13write_dynamic
librustc_driver-0b75ba01aeee6012.so:_RNvMNtNtNtCs1Br764BqhVG_6object5write3elf6writerNtB2_6Writer14reserve_comdat
librustc_driver-0b75ba01aeee6012.so:_RNvMNtNtNtCs1Br764BqhVG_6object5write3elf6writerNtB2_6Writer14reserve_dynstr
librustc_driver-0b75ba01aeee6012.so:_RNvMNtNtNtCs1Br764BqhVG_6object5write3elf6writerNtB2_6Writer14reserve_dynsym
librustc_driver-0b75ba01aeee6012.so:_RNvMNtNtNtCs1Br764BqhVG_6object5write3elf6writerNtB2_6Writer14reserve_strtab
librustc_driver-0b75ba01aeee6012.so:_RNvMNtNtNtCs1Br764BqhVG_6object5write3elf6writerNtB2_6Writer14reserve_symtab
librustc_driver-0b75ba01aeee6012.so:_RNvMNtNtNtCs1Br764BqhVG_6object5write3elf6writerNtB2_6Writer14write_shstrtab
librustc_driver-0b75ba01aeee6012.so:_RNvMNtNtNtCs1Br764BqhVG_6object5write3elf6writerNtB2_6Writer15reserve_dynamic
librustc_driver-0b75ba01aeee6012.so:_RNvMNtNtNtCs1Br764BqhVG_6object5write3elf6writerNtB2_6Writer16add_section_name
librustc_driver-0b75ba01aeee6012.so:_RNvMNtNtNtCs1Br764BqhVG_6object5write3elf6writerNtB2_6Writer16reserve_gnu_hash
librustc_driver-0b75ba01aeee6012.so:_RNvMNtNtNtCs1Br764BqhVG_6object5write3elf6writerNtB2_6Writer16reserve_shstrtab
librustc_driver-0b75ba01aeee6012.so:_RNvMNtNtNtCs1Br764BqhVG_6object5write3elf6writerNtB2_6Writer16write_gnu_verdef
librustc_driver-0b75ba01aeee6012.so:_RNvMNtNtNtCs1Br764BqhVG_6object5write3elf6writerNtB2_6Writer16write_gnu_versym
librustc_driver-0b75ba01aeee6012.so:_RNvMNtNtNtCs1Br764BqhVG_6object5write3elf6writerNtB2_6Writer16write_relocation
librustc_driver-0b75ba01aeee6012.so:_RNvMNtNtNtCs1Br764BqhVG_6object5write3elf6writerNtB2_6Writer17write_file_header
librustc_driver-0b75ba01aeee6012.so:_RNvMNtNtNtCs1Br764BqhVG_6object5write3elf6writerNtB2_6Writer17write_gnu_verdaux
librustc_driver-0b75ba01aeee6012.so:_RNvMNtNtNtCs1Br764BqhVG_6object5write3elf6writerNtB2_6Writer17write_gnu_vernaux
librustc_driver-0b75ba01aeee6012.so:_RNvMNtNtNtCs1Br764BqhVG_6object5write3elf6writerNtB2_6Writer17write_gnu_verneed
librustc_driver-0b75ba01aeee6012.so:_RNvMNtNtNtCs1Br764BqhVG_6object5write3elf6writerNtB2_6Writer17write_null_symbol
librustc_driver-0b75ba01aeee6012.so:_RNvMNtNtNtCs1Br764BqhVG_6object5write3elf6writerNtB2_6Writer18add_dynamic_string
librustc_driver-0b75ba01aeee6012.so:_RNvMNtNtNtCs1Br764BqhVG_6object5write3elf6writerNtB2_6Writer18get_dynamic_string
librustc_driver-0b75ba01aeee6012.so:_RNvMNtNtNtCs1Br764BqhVG_6object5write3elf6writerNtB2_6Writer18reserve_gnu_verdef
librustc_driver-0b75ba01aeee6012.so:_RNvMNtNtNtCs1Br764BqhVG_6object5write3elf6writerNtB2_6Writer18reserve_gnu_versym
librustc_driver-0b75ba01aeee6012.so:_RNvMNtNtNtCs1Br764BqhVG_6object5write3elf6writerNtB2_6Writer18write_comdat_entry
librustc_driver-0b75ba01aeee6012.so:_RNvMNtNtNtCs1Br764BqhVG_6object5write3elf6writerNtB2_6Writer18write_symtab_shndx
librustc_driver-0b75ba01aeee6012.so:_RNvMNtNtNtCs1Br764BqhVG_6object5write3elf6writerNtB2_6Writer19reserve_file_header
librustc_driver-0b75ba01aeee6012.so:_RNvMNtNtNtCs1Br764BqhVG_6object5write3elf6writerNtB2_6Writer19reserve_gnu_verneed
librustc_driver-0b75ba01aeee6012.so:_RNvMNtNtNtCs1Br764BqhVG_6object5write3elf6writerNtB2_6Writer19reserve_relocations
librustc_driver-0b75ba01aeee6012.so:_RNvMNtNtNtCs1Br764BqhVG_6object5write3elf6writerNtB2_6Writer19symtab_shndx_needed
librustc_driver-0b75ba01aeee6012.so:_RNvMNtNtNtCs1Br764BqhVG_6object5write3elf6writerNtB2_6Writer19write_align_dynamic
librustc_driver-0b75ba01aeee6012.so:_RNvMNtNtNtCs1Br764BqhVG_6object5write3elf6writerNtB2_6Writer19write_comdat_header
librustc_driver-0b75ba01aeee6012.so:_RNvMNtNtNtCs1Br764BqhVG_6object5write3elf6writerNtB2_6Writer20dynamic_symbol_count
librustc_driver-0b75ba01aeee6012.so:_RNvMNtNtNtCs1Br764BqhVG_6object5write3elf6writerNtB2_6Writer20reserve_symbol_index
librustc_driver-0b75ba01aeee6012.so:_RNvMNtNtNtCs1Br764BqhVG_6object5write3elf6writerNtB2_6Writer20reserve_symtab_shndx
librustc_driver-0b75ba01aeee6012.so:_RNvMNtNtNtCs1Br764BqhVG_6object5write3elf6writerNtB2_6Writer20write_dynamic_string
librustc_driver-0b75ba01aeee6012.so:_RNvMNtNtNtCs1Br764BqhVG_6object5write3elf6writerNtB2_6Writer20write_dynamic_symbol
librustc_driver-0b75ba01aeee6012.so:_RNvMNtNtNtCs1Br764BqhVG_6object5write3elf6writerNtB2_6Writer20write_program_header
librustc_driver-0b75ba01aeee6012.so:_RNvMNtNtNtCs1Br764BqhVG_6object5write3elf6writerNtB2_6Writer20write_section_header
librustc_driver-0b75ba01aeee6012.so:_RNvMNtNtNtCs1Br764BqhVG_6object5write3elf6writerNtB2_6Writer21reserve_section_index
librustc_driver-0b75ba01aeee6012.so:_RNvMNtNtNtCs1Br764BqhVG_6object5write3elf6writerNtB2_6Writer21write_null_gnu_versym
librustc_driver-0b75ba01aeee6012.so:_RNvMNtNtNtCs1Br764BqhVG_6object5write3elf6writerNtB2_6Writer22write_align_gnu_verdef
librustc_driver-0b75ba01aeee6012.so:_RNvMNtNtNtCs1Br764BqhVG_6object5write3elf6writerNtB2_6Writer22write_align_relocation
librustc_driver-0b75ba01aeee6012.so:_RNvMNtNtNtCs1Br764BqhVG_6object5write3elf6writerNtB2_6Writer23reserve_program_headers
librustc_driver-0b75ba01aeee6012.so:_RNvMNtNtNtCs1Br764BqhVG_6object5write3elf6writerNtB2_6Writer23reserve_section_headers
librustc_driver-0b75ba01aeee6012.so:_RNvMNtNtNtCs1Br764BqhVG_6object5write3elf6writerNtB2_6Writer23write_align_gnu_verneed
librustc_driver-0b75ba01aeee6012.so:_RNvMNtNtNtCs1Br764BqhVG_6object5write3elf6writerNtB2_6Writer25reserve_null_symbol_index
librustc_driver-0b75ba01aeee6012.so:_RNvMNtNtNtCs1Br764BqhVG_6object5write3elf6writerNtB2_6Writer25write_hash_section_header
librustc_driver-0b75ba01aeee6012.so:_RNvMNtNtNtCs1Br764BqhVG_6object5write3elf6writerNtB2_6Writer25write_null_dynamic_symbol
librustc_driver-0b75ba01aeee6012.so:_RNvMNtNtNtCs1Br764BqhVG_6object5write3elf6writerNtB2_6Writer25write_null_section_header
librustc_driver-0b75ba01aeee6012.so:_RNvMNtNtNtCs1Br764BqhVG_6object5write3elf6writerNtB2_6Writer26reserve_hash_section_index
librustc_driver-0b75ba01aeee6012.so:_RNvMNtNtNtCs1Br764BqhVG_6object5write3elf6writerNtB2_6Writer26reserve_null_section_index
librustc_driver-0b75ba01aeee6012.so:_RNvMNtNtNtCs1Br764BqhVG_6object5write3elf6writerNtB2_6Writer27write_align_program_headers
librustc_driver-0b75ba01aeee6012.so:_RNvMNtNtNtCs1Br764BqhVG_6object5write3elf6writerNtB2_6Writer27write_comdat_section_header
librustc_driver-0b75ba01aeee6012.so:_RNvMNtNtNtCs1Br764BqhVG_6object5write3elf6writerNtB2_6Writer27write_dynstr_section_header
librustc_driver-0b75ba01aeee6012.so:_RNvMNtNtNtCs1Br764BqhVG_6object5write3elf6writerNtB2_6Writer27write_dynsym_section_header
librustc_driver-0b75ba01aeee6012.so:_RNvMNtNtNtCs1Br764BqhVG_6object5write3elf6writerNtB2_6Writer27write_strtab_section_header
librustc_driver-0b75ba01aeee6012.so:_RNvMNtNtNtCs1Br764BqhVG_6object5write3elf6writerNtB2_6Writer27write_symtab_section_header
librustc_driver-0b75ba01aeee6012.so:_RNvMNtNtNtCs1Br764BqhVG_6object5write3elf6writerNtB2_6Writer28reserve_dynamic_symbol_index
librustc_driver-0b75ba01aeee6012.so:_RNvMNtNtNtCs1Br764BqhVG_6object5write3elf6writerNtB2_6Writer28reserve_dynstr_section_index
librustc_driver-0b75ba01aeee6012.so:_RNvMNtNtNtCs1Br764BqhVG_6object5write3elf6writerNtB2_6Writer28reserve_dynsym_section_index
librustc_driver-0b75ba01aeee6012.so:_RNvMNtNtNtCs1Br764BqhVG_6object5write3elf6writerNtB2_6Writer28reserve_strtab_section_index
librustc_driver-0b75ba01aeee6012.so:_RNvMNtNtNtCs1Br764BqhVG_6object5write3elf6writerNtB2_6Writer28reserve_symtab_section_index
librustc_driver-0b75ba01aeee6012.so:_RNvMNtNtNtCs1Br764BqhVG_6object5write3elf6writerNtB2_6Writer28write_dynamic_section_header
librustc_driver-0b75ba01aeee6012.so:_RNvMNtNtNtCs1Br764BqhVG_6object5write3elf6writerNtB2_6Writer29reserve_dynamic_section_index
librustc_driver-0b75ba01aeee6012.so:_RNvMNtNtNtCs1Br764BqhVG_6object5write3elf6writerNtB2_6Writer29write_gnu_hash_section_header
librustc_driver-0b75ba01aeee6012.so:_RNvMNtNtNtCs1Br764BqhVG_6object5write3elf6writerNtB2_6Writer29write_shstrtab_section_header
librustc_driver-0b75ba01aeee6012.so:_RNvMNtNtNtCs1Br764BqhVG_6object5write3elf6writerNtB2_6Writer30reserve_gnu_hash_section_index
librustc_driver-0b75ba01aeee6012.so:_RNvMNtNtNtCs1Br764BqhVG_6object5write3elf6writerNtB2_6Writer30reserve_shstrtab_section_index
librustc_driver-0b75ba01aeee6012.so:_RNvMNtNtNtCs1Br764BqhVG_6object5write3elf6writerNtB2_6Writer31write_gnu_verdef_section_header
librustc_driver-0b75ba01aeee6012.so:_RNvMNtNtNtCs1Br764BqhVG_6object5write3elf6writerNtB2_6Writer31write_gnu_versym_section_header
librustc_driver-0b75ba01aeee6012.so:_RNvMNtNtNtCs1Br764BqhVG_6object5write3elf6writerNtB2_6Writer31write_relocation_section_header
librustc_driver-0b75ba01aeee6012.so:_RNvMNtNtNtCs1Br764BqhVG_6object5write3elf6writerNtB2_6Writer32reserve_gnu_verdef_section_index
librustc_driver-0b75ba01aeee6012.so:_RNvMNtNtNtCs1Br764BqhVG_6object5write3elf6writerNtB2_6Writer32reserve_gnu_versym_section_index
librustc_driver-0b75ba01aeee6012.so:_RNvMNtNtNtCs1Br764BqhVG_6object5write3elf6writerNtB2_6Writer32write_gnu_verneed_section_header
librustc_driver-0b75ba01aeee6012.so:_RNvMNtNtNtCs1Br764BqhVG_6object5write3elf6writerNtB2_6Writer33reserve_gnu_verneed_section_index
librustc_driver-0b75ba01aeee6012.so:_RNvMNtNtNtCs1Br764BqhVG_6object5write3elf6writerNtB2_6Writer33reserve_null_dynamic_symbol_index
librustc_driver-0b75ba01aeee6012.so:_RNvMNtNtNtCs1Br764BqhVG_6object5write3elf6writerNtB2_6Writer33write_symtab_shndx_section_header
librustc_driver-0b75ba01aeee6012.so:_RNvMNtNtNtCs1Br764BqhVG_6object5write3elf6writerNtB2_6Writer34reserve_symtab_shndx_section_index
librustc_driver-0b75ba01aeee6012.so:_RNvMNtNtNtCs1Br764BqhVG_6object5write3elf6writerNtB2_6Writer3len
librustc_driver-0b75ba01aeee6012.so:_RNvMNtNtNtCs1Br764BqhVG_6object5write3elf6writerNtB2_6Writer3new
librustc_driver-0b75ba01aeee6012.so:_RNvMNtNtNtCs1Br764BqhVG_6object5write3elf6writerNtB2_6Writer5write
librustc_driver-0b75ba01aeee6012.so:_RNvMNtNtNtCs1Br764BqhVG_6object5write3elf6writerNtB2_6Writer7reserve
librustc_driver-0b75ba01aeee6012.so:_RNvMNtNtNtCs1Br764BqhVG_6object5write3elf6writerNtB2_6Writer9pad_until
librustc_driver-0b75ba01aeee6012.so:_RNvMNtNtNtCs1uAE8XsYwHC_9icu_locid10extensions7private5otherNtB2_6Subtag12try_from_raw
librustc_driver-0b75ba01aeee6012.so:_RNvMNtNtNtCs1uAE8XsYwHC_9icu_locid10extensions7private5otherNtB2_6Subtag14try_from_bytes
librustc_driver-0b75ba01aeee6012.so:_RNvMNtNtNtCs1uAE8XsYwHC_9icu_locid10extensions7private5otherNtB2_6Subtag18from_raw_unchecked
librustc_driver-0b75ba01aeee6012.so:_RNvMNtNtNtCs1uAE8XsYwHC_9icu_locid10extensions7private5otherNtB2_6Subtag27try_from_bytes_manual_slice
librustc_driver-0b75ba01aeee6012.so:_RNvMNtNtNtCs1uAE8XsYwHC_9icu_locid10extensions7private5otherNtB2_6Subtag8into_raw
librustc_driver-0b75ba01aeee6012.so:_RNvMNtNtNtCs1uAE8XsYwHC_9icu_locid10extensions7unicode10attributesNtB2_10Attributes18from_vec_unchecked
librustc_driver-0b75ba01aeee6012.so:_RNvMNtNtNtCs1uAE8XsYwHC_9icu_locid10extensions7unicode10attributesNtB2_10Attributes5clear
librustc_driver-0b75ba01aeee6012.so:_RNvMNtNtNtCs1uAE8XsYwHC_9icu_locid10extensions7unicode3keyNtB2_3Key12try_from_raw
librustc_driver-0b75ba01aeee6012.so:_RNvMNtNtNtCs1uAE8XsYwHC_9icu_locid10extensions7unicode3keyNtB2_3Key14try_from_bytes
librustc_driver-0b75ba01aeee6012.so:_RNvMNtNtNtCs1uAE8XsYwHC_9icu_locid10extensions7unicode3keyNtB2_3Key18from_raw_unchecked
librustc_driver-0b75ba01aeee6012.so:_RNvMNtNtNtCs1uAE8XsYwHC_9icu_locid10extensions7unicode3keyNtB2_3Key27try_from_bytes_manual_slice
librustc_driver-0b75ba01aeee6012.so:_RNvMNtNtNtCs1uAE8XsYwHC_9icu_locid10extensions7unicode3keyNtB2_3Key8into_raw
librustc_driver-0b75ba01aeee6012.so:_RNvMNtNtNtCs1uAE8XsYwHC_9icu_locid10extensions7unicode5valueNtB2_5Value12from_tinystr
librustc_driver-0b75ba01aeee6012.so:_RNvMNtNtNtCs1uAE8XsYwHC_9icu_locid10extensions7unicode5valueNtB2_5Value14try_from_bytes
librustc_driver-0b75ba01aeee6012.so:_RNvMNtNtNtCs1uAE8XsYwHC_9icu_locid10extensions7unicode5valueNtB2_5Value16as_single_subtag
librustc_driver-0b75ba01aeee6012.so:_RNvMNtNtNtCs1uAE8XsYwHC_9icu_locid10extensions7unicode5valueNtB2_5Value16as_tinystr_slice
librustc_driver-0b75ba01aeee6012.so:_RNvMNtNtNtCs1uAE8XsYwHC_9icu_locid10extensions7unicode5valueNtB2_5Value17subtag_from_bytes
librustc_driver-0b75ba01aeee6012.so:_RNvMNtNtNtCs1uAE8XsYwHC_9icu_locid10extensions7unicode5valueNtB2_5Value22try_from_single_subtag
librustc_driver-0b75ba01aeee6012.so:_RNvMNtNtNtCs1uAE8XsYwHC_9icu_locid10extensions7unicode5valueNtB2_5Value36parse_subtag_from_bytes_manual_slice
librustc_driver-0b75ba01aeee6012.so:_RNvMNtNtNtCs1uAE8XsYwHC_9icu_locid10extensions7unicode8keywordsNtB2_8Keywords10strict_cmp
librustc_driver-0b75ba01aeee6012.so:_RNvMNtNtNtCs1uAE8XsYwHC_9icu_locid10extensions7unicode8keywordsNtB2_8Keywords3set
librustc_driver-0b75ba01aeee6012.so:_RNvMNtNtNtCs1uAE8XsYwHC_9icu_locid10extensions7unicode8keywordsNtB2_8Keywords5clear
librustc_driver-0b75ba01aeee6012.so:_RNvMNtNtNtCs1uAE8XsYwHC_9icu_locid10extensions7unicode8keywordsNtB2_8Keywords8is_empty
librustc_driver-0b75ba01aeee6012.so:_RNvMNtNtNtCs1uAE8XsYwHC_9icu_locid10extensions7unicode9attributeNtB2_9Attribute12try_from_raw
librustc_driver-0b75ba01aeee6012.so:_RNvMNtNtNtCs1uAE8XsYwHC_9icu_locid10extensions7unicode9attributeNtB2_9Attribute14try_from_bytes
librustc_driver-0b75ba01aeee6012.so:_RNvMNtNtNtCs1uAE8XsYwHC_9icu_locid10extensions7unicode9attributeNtB2_9Attribute18from_raw_unchecked
librustc_driver-0b75ba01aeee6012.so:_RNvMNtNtNtCs1uAE8XsYwHC_9icu_locid10extensions7unicode9attributeNtB2_9Attribute27try_from_bytes_manual_slice
librustc_driver-0b75ba01aeee6012.so:_RNvMNtNtNtCs1uAE8XsYwHC_9icu_locid10extensions7unicode9attributeNtB2_9Attribute8into_raw
librustc_driver-0b75ba01aeee6012.so:_RNvMNtNtNtCs1uAE8XsYwHC_9icu_locid10extensions9transform3keyNtB2_3Key12try_from_raw
librustc_driver-0b75ba01aeee6012.so:_RNvMNtNtNtCs1uAE8XsYwHC_9icu_locid10extensions9transform3keyNtB2_3Key14try_from_bytes
librustc_driver-0b75ba01aeee6012.so:_RNvMNtNtNtCs1uAE8XsYwHC_9icu_locid10extensions9transform3keyNtB2_3Key18from_raw_unchecked
librustc_driver-0b75ba01aeee6012.so:_RNvMNtNtNtCs1uAE8XsYwHC_9icu_locid10extensions9transform3keyNtB2_3Key27try_from_bytes_manual_slice
librustc_driver-0b75ba01aeee6012.so:_RNvMNtNtNtCs1uAE8XsYwHC_9icu_locid10extensions9transform3keyNtB2_3Key8into_raw
librustc_driver-0b75ba01aeee6012.so:_RNvMNtNtNtCs1uAE8XsYwHC_9icu_locid10extensions9transform5valueNtB2_5Value14try_from_bytes
librustc_driver-0b75ba01aeee6012.so:_RNvMNtNtNtCs1uAE8XsYwHC_9icu_locid10extensions9transform6fieldsNtB2_6Fields3set
librustc_driver-0b75ba01aeee6012.so:_RNvMNtNtNtCs1uAE8XsYwHC_9icu_locid10extensions9transform6fieldsNtB2_6Fields5clear
librustc_driver-0b75ba01aeee6012.so:_RNvMNtNtNtCs1uAE8XsYwHC_9icu_locid10extensions9transform6fieldsNtB2_6Fields8is_empty
librustc_driver-0b75ba01aeee6012.so:_RNvMNtNtNtCs2ANZbKq4FAi_18tracing_subscriber6filter3env9directiveNtB2_9Directive10is_dynamic
librustc_driver-0b75ba01aeee6012.so:_RNvMNtNtNtCs2ANZbKq4FAi_18tracing_subscriber6filter3env9directiveNtB2_9Directive9to_static
librustc_driver-0b75ba01aeee6012.so:_RNvMNtNtNtCs2BBApAlL7Qg_15rustc_mir_build4thir7pattern10usefulnessNtB2_14MatchCheckCtxt14is_uninhabited
librustc_driver-0b75ba01aeee6012.so:_RNvMNtNtNtCs2zXTrlMMQY6_6object4read2pe10relocationNtB2_23RelocationBlockIterator3new
librustc_driver-0b75ba01aeee6012.so:_RNvMNtNtNtCs2zXTrlMMQY6_6object4read2pe10relocationNtB2_23RelocationBlockIterator4next
librustc_driver-0b75ba01aeee6012.so:_RNvMNtNtNtCs2zXTrlMMQY6_6object4read2pe14data_directoryNtB2_15DataDirectories3get
librustc_driver-0b75ba01aeee6012.so:_RNvMNtNtNtCs2zXTrlMMQY6_6object4read2pe14data_directoryNtB2_15DataDirectories3len
librustc_driver-0b75ba01aeee6012.so:_RNvMNtNtNtCs2zXTrlMMQY6_6object4read2pe14data_directoryNtB2_15DataDirectories4iter
librustc_driver-0b75ba01aeee6012.so:_RNvMNtNtNtCs2zXTrlMMQY6_6object4read2pe14data_directoryNtB2_15DataDirectories5parse
librustc_driver-0b75ba01aeee6012.so:_RNvMNtNtNtCs2zXTrlMMQY6_6object4read2pe14data_directoryNtB2_15DataDirectories9enumerate
librustc_driver-0b75ba01aeee6012.so:_RNvMNtNtNtCs2zXTrlMMQY6_6object4read2pe4richNtB2_14RichHeaderInfo16unmasked_entries
librustc_driver-0b75ba01aeee6012.so:_RNvMNtNtNtCs2zXTrlMMQY6_6object4read2pe6exportNtB2_12ExportTarget10is_address
librustc_driver-0b75ba01aeee6012.so:_RNvMNtNtNtCs2zXTrlMMQY6_6object4read2pe6exportNtB2_12ExportTarget10is_forward
librustc_driver-0b75ba01aeee6012.so:_RNvMNtNtNtCs2zXTrlMMQY6_6object4read2pe6importNtB2_11ImportTable11descriptors
librustc_driver-0b75ba01aeee6012.so:_RNvMNtNtNtCs2zXTrlMMQY6_6object4read2pe6importNtB2_11ImportTable3new
librustc_driver-0b75ba01aeee6012.so:_RNvMNtNtNtCs2zXTrlMMQY6_6object4read2pe6importNtB2_11ImportTable4name
librustc_driver-0b75ba01aeee6012.so:_RNvMNtNtNtCs2zXTrlMMQY6_6object4read2pe6importNtB2_11ImportTable6thunks
librustc_driver-0b75ba01aeee6012.so:_RNvMNtNtNtCs2zXTrlMMQY6_6object4read2pe6importNtB2_11ImportTable9hint_name
librustc_driver-0b75ba01aeee6012.so:_RNvMNtNtNtCs2zXTrlMMQY6_6object4read2pe8resourceNtB2_17ResourceDirectory3new
librustc_driver-0b75ba01aeee6012.so:_RNvMNtNtNtCs2zXTrlMMQY6_6object4read2pe8resourceNtB2_17ResourceDirectory4root
librustc_driver-0b75ba01aeee6012.so:_RNvMNtNtNtCs2zXTrlMMQY6_6object4read3elf10relocationNtB2_18RelocationSections3get
librustc_driver-0b75ba01aeee6012.so:_RNvMNtNtNtCs2zXTrlMMQY6_6object4read3elf7versionNtB2_12VersionIndex5index
librustc_driver-0b75ba01aeee6012.so:_RNvMNtNtNtCs2zXTrlMMQY6_6object4read3elf7versionNtB2_12VersionIndex8is_local
librustc_driver-0b75ba01aeee6012.so:_RNvMNtNtNtCs2zXTrlMMQY6_6object4read3elf7versionNtB2_12VersionIndex9is_global
librustc_driver-0b75ba01aeee6012.so:_RNvMNtNtNtCs2zXTrlMMQY6_6object4read3elf7versionNtB2_12VersionIndex9is_hidden
librustc_driver-0b75ba01aeee6012.so:_RNvMNtNtNtCs2zXTrlMMQY6_6object4read4coff7sectionNtB2_12SectionTable23max_section_file_offset
librustc_driver-0b75ba01aeee6012.so:_RNvMNtNtNtCs2zXTrlMMQY6_6object4read4coff7sectionNtB2_12SectionTable7section
librustc_driver-0b75ba01aeee6012.so:_RNvMNtNtNtCs3gJ41u96r5N_18rustc_codegen_llvm5llvm_3ffi9debuginfoNtB2_17DebugEmissionKind12from_generic
librustc_driver-0b75ba01aeee6012.so:_RNvMNtNtNtCs8lLsNL5HvpN_5gimli5write4line2idNtB2_6FileId3raw
librustc_driver-0b75ba01aeee6012.so:_RNvMNtNtNtCs8lLsNL5HvpN_5gimli5write4line2idNtB2_6FileId4zero
librustc_driver-0b75ba01aeee6012.so:_RNvMNtNtNtCs9UaAlnGT11v_12rustc_middle2ty13inhabitedness19inhabited_predicateNtB2_18InhabitedPredicate16apply_any_module
librustc_driver-0b75ba01aeee6012.so:_RNvMNtNtNtCs9UaAlnGT11v_12rustc_middle2ty13inhabitedness19inhabited_predicateNtB2_18InhabitedPredicate19apply_ignore_module
librustc_driver-0b75ba01aeee6012.so:_RNvMNtNtNtCs9UaAlnGT11v_12rustc_middle2ty13inhabitedness19inhabited_predicateNtB2_18InhabitedPredicate2or
librustc_driver-0b75ba01aeee6012.so:_RNvMNtNtNtCs9UaAlnGT11v_12rustc_middle2ty13inhabitedness19inhabited_predicateNtB2_18InhabitedPredicate3and
librustc_driver-0b75ba01aeee6012.so:_RNvMNtNtNtCs9UaAlnGT11v_12rustc_middle2ty13inhabitedness19inhabited_predicateNtB2_18InhabitedPredicate5apply
librustc_driver-0b75ba01aeee6012.so:_RNvMNtNtNtCs9UaAlnGT11v_12rustc_middle2ty13inhabitedness19inhabited_predicateNtB2_18InhabitedPredicate5subst
librustc_driver-0b75ba01aeee6012.so:_RNvMNtNtNtCs9UaAlnGT11v_12rustc_middle2ty5print6prettyNtB2_19RegionHighlightMode19highlighting_region
librustc_driver-0b75ba01aeee6012.so:_RNvMNtNtNtCs9UaAlnGT11v_12rustc_middle2ty5print6prettyNtB2_19RegionHighlightMode23highlighting_region_vid
librustc_driver-0b75ba01aeee6012.so:_RNvMNtNtNtCs9UaAlnGT11v_12rustc_middle2ty5print6prettyNtB2_19RegionHighlightMode25highlighting_bound_region
librustc_driver-0b75ba01aeee6012.so:_RNvMNtNtNtCs9UaAlnGT11v_12rustc_middle2ty5print6prettyNtB2_19RegionHighlightMode25maybe_highlighting_region
librustc_driver-0b75ba01aeee6012.so:_RNvMNtNtNtCs9UaAlnGT11v_12rustc_middle2ty5print6prettyNtB2_19RegionHighlightMode3new
librustc_driver-0b75ba01aeee6012.so:_RNvMNtNtNtCs9UaAlnGT11v_12rustc_middle2ty6consts3intNtB2_8ConstInt3new
librustc_driver-0b75ba01aeee6012.so:_RNvMNtNtNtCs9UaAlnGT11v_12rustc_middle2ty6consts7valtreeNtB2_7ValTree13try_to_scalar
librustc_driver-0b75ba01aeee6012.so:_RNvMNtNtNtCs9UaAlnGT11v_12rustc_middle2ty6consts7valtreeNtB2_7ValTree14from_raw_bytes
librustc_driver-0b75ba01aeee6012.so:_RNvMNtNtNtCs9UaAlnGT11v_12rustc_middle2ty6consts7valtreeNtB2_7ValTree15from_scalar_int
librustc_driver-0b75ba01aeee6012.so:_RNvMNtNtNtCs9UaAlnGT11v_12rustc_middle2ty6consts7valtreeNtB2_7ValTree16try_to_raw_bytes
librustc_driver-0b75ba01aeee6012.so:_RNvMNtNtNtCs9UaAlnGT11v_12rustc_middle2ty6consts7valtreeNtB2_7ValTree17try_to_scalar_int
librustc_driver-0b75ba01aeee6012.so:_RNvMNtNtNtCs9UaAlnGT11v_12rustc_middle2ty6consts7valtreeNtB2_7ValTree20try_to_machine_usize
librustc_driver-0b75ba01aeee6012.so:_RNvMNtNtNtCs9UaAlnGT11v_12rustc_middle2ty6consts7valtreeNtB2_7ValTree3zst
librustc_driver-0b75ba01aeee6012.so:_RNvMNtNtNtCs9UaAlnGT11v_12rustc_middle2ty7context3tlsNtB2_12ImplicitCtxt3new
librustc_driver-0b75ba01aeee6012.so:_RNvMNtNtNtCs9UaAlnGT11v_12rustc_middle3mir9interpret5valueNtB2_10ConstValue11try_to_bits
librustc_driver-0b75ba01aeee6012.so:_RNvMNtNtNtCs9UaAlnGT11v_12rustc_middle3mir9interpret5valueNtB2_10ConstValue11try_to_bool
librustc_driver-0b75ba01aeee6012.so:_RNvMNtNtNtCs9UaAlnGT11v_12rustc_middle3mir9interpret5valueNtB2_10ConstValue17try_to_scalar_int
librustc_driver-0b75ba01aeee6012.so:_RNvMNtNtNtCs9UaAlnGT11v_12rustc_middle3mir9interpret5valueNtB2_10ConstValue18try_to_bits_for_ty
librustc_driver-0b75ba01aeee6012.so:_RNvMNtNtNtCs9UaAlnGT11v_12rustc_middle3mir9interpret5valueNtB2_10ConstValue20try_to_machine_usize
librustc_driver-0b75ba01aeee6012.so:_RNvMNtNtNtCs9UaAlnGT11v_12rustc_middle3mir9interpret5valueNtB2_10ConstValue8from_u64
librustc_driver-0b75ba01aeee6012.so:_RNvMNtNtNtCs9UaAlnGT11v_12rustc_middle3mir9interpret5valueNtB2_10ConstValue9from_bool
librustc_driver-0b75ba01aeee6012.so:_RNvMNtNtNtCs9UaAlnGT11v_12rustc_middle3mir9interpret7queriesNtNtNtB8_2ty7context6TyCtxt15const_eval_poly
librustc_driver-0b75ba01aeee6012.so:_RNvMNtNtNtCs9UaAlnGT11v_12rustc_middle3mir9interpret7queriesNtNtNtB8_2ty7context6TyCtxt18const_eval_resolve
librustc_driver-0b75ba01aeee6012.so:_RNvMNtNtNtCs9UaAlnGT11v_12rustc_middle3mir9interpret7queriesNtNtNtB8_2ty7context6TyCtxt19const_eval_instance
librustc_driver-0b75ba01aeee6012.so:_RNvMNtNtNtCs9UaAlnGT11v_12rustc_middle3mir9interpret7queriesNtNtNtB8_2ty7context6TyCtxt20const_eval_global_id
librustc_driver-0b75ba01aeee6012.so:_RNvMNtNtNtCs9UaAlnGT11v_12rustc_middle3mir9interpret7queriesNtNtNtB8_2ty7context6TyCtxt29const_eval_resolve_for_typeck
librustc_driver-0b75ba01aeee6012.so:_RNvMNtNtNtCs9UaAlnGT11v_12rustc_middle3mir9interpret7queriesNtNtNtB8_2ty7context6TyCtxt31const_eval_global_id_for_typeck
librustc_driver-0b75ba01aeee6012.so:_RNvMNtNtNtCs9UaAlnGT11v_12rustc_middle6traits5query7type_opNtB2_15AscribeUserType3new
librustc_driver-0b75ba01aeee6012.so:_RNvMNtNtNtCsNX45m2jpYM_12aho_corasick6packed5teddy7runtimeNtB2_5Teddy11minimum_len
librustc_driver-0b75ba01aeee6012.so:_RNvMNtNtNtCsNX45m2jpYM_12aho_corasick6packed5teddy7runtimeNtB2_5Teddy7find_at
librustc_driver-0b75ba01aeee6012.so:_RNvMNtNtNtCserdW9TeaKDe_11rustc_infer5infer15error_reporting17nice_region_errorNtB4_11TypeErrCtxt28try_report_nice_region_error
librustc_driver-0b75ba01aeee6012.so:_RNvMNtNtNtCserdW9TeaKDe_11rustc_infer5infer15error_reporting4noteNtB4_11TypeErrCtxt32suggest_copy_trait_method_bounds
librustc_driver-0b75ba01aeee6012.so:_RNvMNtNtNtCserdW9TeaKDe_11rustc_infer5infer15error_reporting7suggestNtB4_11TypeErrCtxt21should_suggest_as_ref
librustc_driver-0b75ba01aeee6012.so:_RNvMNtNtNtCserdW9TeaKDe_11rustc_infer5infer18region_constraints10leak_checkNtB4_25RegionConstraintCollector10leak_check
librustc_driver-0b75ba01aeee6012.so:_RNvMNtNtNtCserdW9TeaKDe_11rustc_infer5infer8outlives11obligationsNtB6_9InferCtxt26register_region_obligation
librustc_driver-0b75ba01aeee6012.so:_RNvMNtNtNtCserdW9TeaKDe_11rustc_infer5infer8outlives11obligationsNtB6_9InferCtxt34take_registered_region_obligations
librustc_driver-0b75ba01aeee6012.so:_RNvMNtNtNtCserdW9TeaKDe_11rustc_infer5infer8outlives11obligationsNtB6_9InferCtxt37process_registered_region_obligations
librustc_driver-0b75ba01aeee6012.so:_RNvMNtNtNtCserdW9TeaKDe_11rustc_infer5infer8outlives11obligationsNtB6_9InferCtxt37register_region_obligation_with_cause
librustc_driver-0b75ba01aeee6012.so:_RNvMNtNtNtCserdW9TeaKDe_11rustc_infer5infer8outlives3envNtB2_19OutlivesEnvironment15free_region_map
librustc_driver-0b75ba01aeee6012.so:_RNvMNtNtNtCserdW9TeaKDe_11rustc_infer5infer8outlives3envNtB2_19OutlivesEnvironment18region_bound_pairs
librustc_driver-0b75ba01aeee6012.so:_RNvMNtNtNtCserdW9TeaKDe_11rustc_infer5infer8outlives3envNtB2_19OutlivesEnvironment7builder
librustc_driver-0b75ba01aeee6012.so:_RNvMNtNtNtCserdW9TeaKDe_11rustc_infer5infer8outlives6verifyNtB2_13VerifyBoundCx11alias_bound
librustc_driver-0b75ba01aeee6012.so:_RNvMNtNtNtCserdW9TeaKDe_11rustc_infer5infer8outlives6verifyNtB2_13VerifyBoundCx11param_bound
librustc_driver-0b75ba01aeee6012.so:_RNvMNtNtNtCserdW9TeaKDe_11rustc_infer5infer8outlives6verifyNtB2_13VerifyBoundCx31approx_declared_bounds_from_env
librustc_driver-0b75ba01aeee6012.so:_RNvMNtNtNtCserdW9TeaKDe_11rustc_infer5infer8outlives6verifyNtB2_13VerifyBoundCx31declared_bounds_from_definition
librustc_driver-0b75ba01aeee6012.so:_RNvMNtNtNtCserdW9TeaKDe_11rustc_infer5infer8outlives6verifyNtB2_13VerifyBoundCx3new
librustc_driver-0b75ba01aeee6012.so:_RNvMNtNtNtCserdW9TeaKDe_11rustc_infer5infer9canonical14query_responseNtB6_9InferCtxt36take_opaque_types_for_query_response
librustc_driver-0b75ba01aeee6012.so:_RNvMNtNtNtCserdW9TeaKDe_11rustc_infer5infer9canonical14query_responseNtB6_9InferCtxt39query_outlives_constraint_to_obligation
librustc_driver-0b75ba01aeee6012.so:_RNvMNtNtNtCserdW9TeaKDe_11rustc_infer5infer9canonical14query_responseNtB6_9InferCtxt43query_outlives_constraints_into_obligations
librustc_driver-0b75ba01aeee6012.so:_RNvMNtNtNtCshJrk7kqXY5v_5serde9___private2de7contentNtB2_7Content10unexpected
librustc_driver-0b75ba01aeee6012.so:_RNvMNtNtNtCshJrk7kqXY5v_5serde9___private2de7contentNtB2_7Content6as_str
librustc_driver-0b75ba01aeee6012.so:_RNvMNtNtNtCshjMEON3iz53_16rustc_const_eval9transform12check_consts5checkNtB2_7Qualifs10needs_drop
librustc_driver-0b75ba01aeee6012.so:_RNvMNtNtNtCshjMEON3iz53_16rustc_const_eval9transform12check_consts5checkNtB2_7Qualifs16has_mut_interior
librustc_driver-0b75ba01aeee6012.so:_RNvMNtNtNtCshjMEON3iz53_16rustc_const_eval9transform12check_consts5checkNtB2_7Qualifs20needs_non_const_drop
librustc_driver-0b75ba01aeee6012.so:_RNvMNtNtNtCsj89wkcdy9Rv_16rustc_ast_pretty6pprust5state4exprNtB4_5State10print_expr
librustc_driver-0b75ba01aeee6012.so:_RNvMNtNtNtCsj89wkcdy9Rv_16rustc_ast_pretty6pprust5state4itemNtB4_5State10print_item
librustc_driver-0b75ba01aeee6012.so:_RNvMNtNtNtCsj89wkcdy9Rv_16rustc_ast_pretty6pprust5state4itemNtB4_5State16print_assoc_item
librustc_driver-0b75ba01aeee6012.so:_RNvMNtNtNtCsj89wkcdy9Rv_16rustc_ast_pretty6pprust5state4itemNtB4_5State16print_visibility
librustc_driver-0b75ba01aeee6012.so:_RNvMNtNtNtCsj89wkcdy9Rv_16rustc_ast_pretty6pprust5state4itemNtB4_5State18print_foreign_item
librustc_driver-0b75ba01aeee6012.so:_RNvMNtNtNtCsj89wkcdy9Rv_16rustc_ast_pretty6pprust5state4itemNtB4_5State21print_where_predicate
librustc_driver-0b75ba01aeee6012.so:_RNvMNtNtNtNtCsTiKbmg5v3u_4libc4unix10linux_like5linux3gnuNtNtNtB2_3b646x86_649siginfo_t7si_addr
librustc_driver-0b75ba01aeee6012.so:_RNvMNtNtNtNtCsTiKbmg5v3u_4libc4unix10linux_like5linux3gnuNtNtNtB2_3b646x86_649siginfo_t8si_value
librustc_driver-0b75ba01aeee6012.so:_RNvMNtNtNtNtCsbQUXP7oyqOP_21rustc_trait_selection6traits5query7type_op8outlivesNtB2_14DropckOutlives3new
librustc_driver-0b75ba01aeee6012.so:_RNvMNvMs8_NtNtNtCs9UaAlnGT11v_12rustc_middle2ty5print6prettyNtB8_10FmtPrinter19prepare_region_infoNtB2_19RegionNameCollector3new
librustc_driver-0b75ba01aeee6012.so:_RNvMs0_Cs2iGwUc7EAmY_17rustc_codegen_ssaNtB5_14CodegenResults15serialize_rlink
librustc_driver-0b75ba01aeee6012.so:_RNvMs0_Cs2iGwUc7EAmY_17rustc_codegen_ssaNtB5_14CodegenResults17deserialize_rlink
librustc_driver-0b75ba01aeee6012.so:_RNvMs0_Cs7PFPqSK8ZRQ_12chalk_engineNtB5_10TableIndex13iterate_range
librustc_driver-0b75ba01aeee6012.so:_RNvMs0_Cs7PFPqSK8ZRQ_12chalk_engineNtB5_10TableIndex17get_and_increment
librustc_driver-0b75ba01aeee6012.so:_RNvMs0_Cs7PFPqSK8ZRQ_12chalk_engineNtB5_10TableIndex9increment
librustc_driver-0b75ba01aeee6012.so:_RNvMs0_CsahqnHyO9x3C_14rustc_graphvizNtB5_9LabelText11suffix_line
librustc_driver-0b75ba01aeee6012.so:_RNvMs0_CsahqnHyO9x3C_14rustc_graphvizNtB5_9LabelText13to_dot_string
librustc_driver-0b75ba01aeee6012.so:_RNvMs0_CsczMUV2s8Ncb_12rustc_errorsNtB5_14CodeSuggestion12splice_lines
librustc_driver-0b75ba01aeee6012.so:_RNvMs0_CsjRjSeHQZpui_16rustc_hir_prettyNtB5_5State10print_node
librustc_driver-0b75ba01aeee6012.so:_RNvMs0_NtCs1Br764BqhVG_6object2peNtB5_21ImageImportDescriptor7is_null
librustc_driver-0b75ba01aeee6012.so:_RNvMs0_NtCs1Br764BqhVG_6object5writeNtB5_6Object10add_comdat
librustc_driver-0b75ba01aeee6012.so:_RNvMs0_NtCs1Br764BqhVG_6object5writeNtB5_6Object10add_symbol
librustc_driver-0b75ba01aeee6012.so:_RNvMs0_NtCs1Br764BqhVG_6object5writeNtB5_6Object10section_id
librustc_driver-0b75ba01aeee6012.so:_RNvMs0_NtCs1Br764BqhVG_6object5writeNtB5_6Object11add_section
librustc_driver-0b75ba01aeee6012.so:_RNvMs0_NtCs1Br764BqhVG_6object5writeNtB5_6Object12segment_name
librustc_driver-0b75ba01aeee6012.so:_RNvMs0_NtCs1Br764BqhVG_6object5writeNtB5_6Object14add_relocation
librustc_driver-0b75ba01aeee6012.so:_RNvMs0_NtCs1Br764BqhVG_6object5writeNtB5_6Object14add_subsection
librustc_driver-0b75ba01aeee6012.so:_RNvMs0_NtCs1Br764BqhVG_6object5writeNtB5_6Object14add_symbol_bss
librustc_driver-0b75ba01aeee6012.so:_RNvMs0_NtCs1Br764BqhVG_6object5writeNtB5_6Object14section_symbol
librustc_driver-0b75ba01aeee6012.so:_RNvMs0_NtCs1Br764BqhVG_6object5writeNtB5_6Object15add_file_symbol
librustc_driver-0b75ba01aeee6012.so:_RNvMs0_NtCs1Br764BqhVG_6object5writeNtB5_6Object15add_symbol_data
librustc_driver-0b75ba01aeee6012.so:_RNvMs0_NtCs1Br764BqhVG_6object5writeNtB5_6Object15set_symbol_data
librustc_driver-0b75ba01aeee6012.so:_RNvMs0_NtCs1Br764BqhVG_6object5writeNtB5_6Object17add_common_symbol
librustc_driver-0b75ba01aeee6012.so:_RNvMs0_NtCs1Br764BqhVG_6object5writeNtB5_6Object18append_section_bss
librustc_driver-0b75ba01aeee6012.so:_RNvMs0_NtCs1Br764BqhVG_6object5writeNtB5_6Object19append_section_data
librustc_driver-0b75ba01aeee6012.so:_RNvMs0_NtCs1Br764BqhVG_6object5writeNtB5_6Object25symbol_section_and_offset
librustc_driver-0b75ba01aeee6012.so:_RNvMs0_NtCs1Br764BqhVG_6object5writeNtB5_6Object3new
librustc_driver-0b75ba01aeee6012.so:_RNvMs0_NtCs1Br764BqhVG_6object5writeNtB5_6Object4emit
librustc_driver-0b75ba01aeee6012.so:_RNvMs0_NtCs1Br764BqhVG_6object5writeNtB5_6Object5write
librustc_driver-0b75ba01aeee6012.so:_RNvMs0_NtCs1Br764BqhVG_6object5writeNtB5_6Object9symbol_id
librustc_driver-0b75ba01aeee6012.so:_RNvMs0_NtCs1Br764BqhVG_6object6commonNtB5_11SectionKind6is_bss
librustc_driver-0b75ba01aeee6012.so:_RNvMs0_NtCs2ldLjt3xnvI_9ansi_term4ansiNtNtB7_5style5Style5infix
librustc_driver-0b75ba01aeee6012.so:_RNvMs0_NtCs2ldLjt3xnvI_9ansi_term4ansiNtNtB7_5style5Style6prefix
librustc_driver-0b75ba01aeee6012.so:_RNvMs0_NtCs2ldLjt3xnvI_9ansi_term4ansiNtNtB7_5style5Style6suffix
librustc_driver-0b75ba01aeee6012.so:_RNvMs0_NtCs2ldLjt3xnvI_9ansi_term5styleNtB5_6Colour13strikethrough
librustc_driver-0b75ba01aeee6012.so:_RNvMs0_NtCs2ldLjt3xnvI_9ansi_term5styleNtB5_6Colour2on
librustc_driver-0b75ba01aeee6012.so:_RNvMs0_NtCs2ldLjt3xnvI_9ansi_term5styleNtB5_6Colour4bold
librustc_driver-0b75ba01aeee6012.so:_RNvMs0_NtCs2ldLjt3xnvI_9ansi_term5styleNtB5_6Colour5blink
librustc_driver-0b75ba01aeee6012.so:_RNvMs0_NtCs2ldLjt3xnvI_9ansi_term5styleNtB5_6Colour6dimmed
librustc_driver-0b75ba01aeee6012.so:_RNvMs0_NtCs2ldLjt3xnvI_9ansi_term5styleNtB5_6Colour6hidden
librustc_driver-0b75ba01aeee6012.so:_RNvMs0_NtCs2ldLjt3xnvI_9ansi_term5styleNtB5_6Colour6italic
librustc_driver-0b75ba01aeee6012.so:_RNvMs0_NtCs2ldLjt3xnvI_9ansi_term5styleNtB5_6Colour6normal
librustc_driver-0b75ba01aeee6012.so:_RNvMs0_NtCs2ldLjt3xnvI_9ansi_term5styleNtB5_6Colour7reverse
librustc_driver-0b75ba01aeee6012.so:_RNvMs0_NtCs2ldLjt3xnvI_9ansi_term5styleNtB5_6Colour9underline
librustc_driver-0b75ba01aeee6012.so:_RNvMs0_NtCs2zXTrlMMQY6_6object2peNtB5_21ImageImportDescriptor7is_null
librustc_driver-0b75ba01aeee6012.so:_RNvMs0_NtCs2zXTrlMMQY6_6object6commonNtB5_11SectionKind6is_bss
librustc_driver-0b75ba01aeee6012.so:_RNvMs0_NtCs3Tcv2dxS6si_6flate22gzNtB5_9GzBuilder11into_header
librustc_driver-0b75ba01aeee6012.so:_RNvMs0_NtCs3Tcv2dxS6si_6flate22gzNtB5_9GzBuilder16operating_system
librustc_driver-0b75ba01aeee6012.so:_RNvMs0_NtCs3Tcv2dxS6si_6flate22gzNtB5_9GzBuilder3new
librustc_driver-0b75ba01aeee6012.so:_RNvMs0_NtCs3Tcv2dxS6si_6flate22gzNtB5_9GzBuilder5mtime
librustc_driver-0b75ba01aeee6012.so:_RNvMs0_NtCs3Tcv2dxS6si_6flate23memNtB5_10Decompress10decompress
librustc_driver-0b75ba01aeee6012.so:_RNvMs0_NtCs3Tcv2dxS6si_6flate23memNtB5_10Decompress14decompress_vec
librustc_driver-0b75ba01aeee6012.so:_RNvMs0_NtCs3Tcv2dxS6si_6flate23memNtB5_10Decompress3new
librustc_driver-0b75ba01aeee6012.so:_RNvMs0_NtCs3Tcv2dxS6si_6flate23memNtB5_10Decompress5reset
librustc_driver-0b75ba01aeee6012.so:_RNvMs0_NtCs3Tcv2dxS6si_6flate23memNtB5_10Decompress8total_in
librustc_driver-0b75ba01aeee6012.so:_RNvMs0_NtCs3Tcv2dxS6si_6flate23memNtB5_10Decompress9total_out
librustc_driver-0b75ba01aeee6012.so:_RNvMs0_NtCs4TM5Xb5wYoE_16parking_lot_core11parking_lotNtB5_11FairTimeout7gen_u32
librustc_driver-0b75ba01aeee6012.so:_RNvMs0_NtCs56hrLJnUVy1_13fluent_bundle7messageNtB5_13FluentMessage10attributes
librustc_driver-0b75ba01aeee6012.so:_RNvMs0_NtCs56hrLJnUVy1_13fluent_bundle7messageNtB5_13FluentMessage13get_attribute
librustc_driver-0b75ba01aeee6012.so:_RNvMs0_NtCs56hrLJnUVy1_13fluent_bundle7messageNtB5_13FluentMessage5value
librustc_driver-0b75ba01aeee6012.so:_RNvMs0_NtCs5GZdRnKtGw5_15rustc_serialize6opaqueNtB5_11FileEncoder20write_all_unbuffered
librustc_driver-0b75ba01aeee6012.so:_RNvMs0_NtCs5GZdRnKtGw5_15rustc_serialize6opaqueNtB5_11FileEncoder4file
librustc_driver-0b75ba01aeee6012.so:_RNvMs0_NtCs5GZdRnKtGw5_15rustc_serialize6opaqueNtB5_11FileEncoder5flush
librustc_driver-0b75ba01aeee6012.so:_RNvMs0_NtCs5GZdRnKtGw5_15rustc_serialize6opaqueNtB5_11FileEncoder6finish
librustc_driver-0b75ba01aeee6012.so:_RNvMs0_NtCs7VFnuzYgaW2_18rustc_hir_analysis7collectNtB5_8ItemCtxt3new
librustc_driver-0b75ba01aeee6012.so:_RNvMs0_NtCs7VFnuzYgaW2_18rustc_hir_analysis7collectNtB5_8ItemCtxt4node
librustc_driver-0b75ba01aeee6012.so:_RNvMs0_NtCs7VFnuzYgaW2_18rustc_hir_analysis7collectNtB5_8ItemCtxt5to_ty
librustc_driver-0b75ba01aeee6012.so:_RNvMs0_NtCs7VFnuzYgaW2_18rustc_hir_analysis7collectNtB5_8ItemCtxt6hir_id
librustc_driver-0b75ba01aeee6012.so:_RNvMs0_NtCs7nHlYWzWSzq_11rustc_parse6parserNtB5_11TokenCursor4next
librustc_driver-0b75ba01aeee6012.so:_RNvMs0_NtCs7tPUXX4pCjz_14regex_automata3nfaNtB5_5State10is_epsilon
librustc_driver-0b75ba01aeee6012.so:_RNvMs0_NtCs8lLsNL5HvpN_5gimli9constantsNtB5_6DwSect13static_string
librustc_driver-0b75ba01aeee6012.so:_RNvMs0_NtCs8saYb8IjRm8_21rustc_data_structures8temp_dirNtB5_12MaybeTempDir3new
librustc_driver-0b75ba01aeee6012.so:_RNvMs0_NtCs8saYb8IjRm8_21rustc_data_structures9profilingNtB5_12SelfProfiler16event_id_builder
librustc_driver-0b75ba01aeee6012.so:_RNvMs0_NtCs8saYb8IjRm8_21rustc_data_structures9profilingNtB5_12SelfProfiler27query_key_recording_enabled
librustc_driver-0b75ba01aeee6012.so:_RNvMs0_NtCs8saYb8IjRm8_21rustc_data_structures9profilingNtB5_12SelfProfiler33map_query_invocation_id_to_string
librustc_driver-0b75ba01aeee6012.so:_RNvMs0_NtCs8saYb8IjRm8_21rustc_data_structures9profilingNtB5_12SelfProfiler3new
librustc_driver-0b75ba01aeee6012.so:_RNvMs0_NtCs93julGFyfmy_10serde_json2deINtB5_12DeserializerNtNtB7_4read9SliceReadE10from_slice
librustc_driver-0b75ba01aeee6012.so:_RNvMs0_NtCs93julGFyfmy_10serde_json5errorNtB5_5Error2io
librustc_driver-0b75ba01aeee6012.so:_RNvMs0_NtCs93julGFyfmy_10serde_json5errorNtB5_5Error6syntax
librustc_driver-0b75ba01aeee6012.so:_RNvMs0_NtCs93julGFyfmy_10serde_json5valueNtB5_5Value10is_boolean
librustc_driver-0b75ba01aeee6012.so:_RNvMs0_NtCs93julGFyfmy_10serde_json5valueNtB5_5Value11pointer_mut
librustc_driver-0b75ba01aeee6012.so:_RNvMs0_NtCs93julGFyfmy_10serde_json5valueNtB5_5Value12as_array_mut
librustc_driver-0b75ba01aeee6012.so:_RNvMs0_NtCs93julGFyfmy_10serde_json5valueNtB5_5Value13as_object_mut
librustc_driver-0b75ba01aeee6012.so:_RNvMs0_NtCs93julGFyfmy_10serde_json5valueNtB5_5Value4take
librustc_driver-0b75ba01aeee6012.so:_RNvMs0_NtCs93julGFyfmy_10serde_json5valueNtB5_5Value6as_f64
librustc_driver-0b75ba01aeee6012.so:_RNvMs0_NtCs93julGFyfmy_10serde_json5valueNtB5_5Value6as_i64
librustc_driver-0b75ba01aeee6012.so:_RNvMs0_NtCs93julGFyfmy_10serde_json5valueNtB5_5Value6as_str
librustc_driver-0b75ba01aeee6012.so:_RNvMs0_NtCs93julGFyfmy_10serde_json5valueNtB5_5Value6as_u64
librustc_driver-0b75ba01aeee6012.so:_RNvMs0_NtCs93julGFyfmy_10serde_json5valueNtB5_5Value6is_f64
librustc_driver-0b75ba01aeee6012.so:_RNvMs0_NtCs93julGFyfmy_10serde_json5valueNtB5_5Value6is_i64
librustc_driver-0b75ba01aeee6012.so:_RNvMs0_NtCs93julGFyfmy_10serde_json5valueNtB5_5Value6is_u64
librustc_driver-0b75ba01aeee6012.so:_RNvMs0_NtCs93julGFyfmy_10serde_json5valueNtB5_5Value7as_bool
librustc_driver-0b75ba01aeee6012.so:_RNvMs0_NtCs93julGFyfmy_10serde_json5valueNtB5_5Value7as_null
librustc_driver-0b75ba01aeee6012.so:_RNvMs0_NtCs93julGFyfmy_10serde_json5valueNtB5_5Value7is_null
librustc_driver-0b75ba01aeee6012.so:_RNvMs0_NtCs93julGFyfmy_10serde_json5valueNtB5_5Value7pointer
librustc_driver-0b75ba01aeee6012.so:_RNvMs0_NtCs93julGFyfmy_10serde_json5valueNtB5_5Value8as_array
librustc_driver-0b75ba01aeee6012.so:_RNvMs0_NtCs93julGFyfmy_10serde_json5valueNtB5_5Value8is_array
librustc_driver-0b75ba01aeee6012.so:_RNvMs0_NtCs93julGFyfmy_10serde_json5valueNtB5_5Value9as_object
librustc_driver-0b75ba01aeee6012.so:_RNvMs0_NtCs93julGFyfmy_10serde_json5valueNtB5_5Value9is_number
librustc_driver-0b75ba01aeee6012.so:_RNvMs0_NtCs93julGFyfmy_10serde_json5valueNtB5_5Value9is_object
librustc_driver-0b75ba01aeee6012.so:_RNvMs0_NtCs93julGFyfmy_10serde_json5valueNtB5_5Value9is_string
librustc_driver-0b75ba01aeee6012.so:_RNvMs0_NtCs9IVbjQok2gJ_12icu_provider3bufNtB5_12BufferFormat15check_available
librustc_driver-0b75ba01aeee6012.so:_RNvMs0_NtCs9IVbjQok2gJ_12icu_provider5errorNtB5_9DataError8with_req
librustc_driver-0b75ba01aeee6012.so:_RNvMs0_NtCs9JyJiVVtyKM_13rustc_resolve19build_reduced_graphNtB7_8Resolver13expect_module
librustc_driver-0b75ba01aeee6012.so:_RNvMs0_NtCs9JyJiVVtyKM_13rustc_resolve19build_reduced_graphNtB7_8Resolver28get_nearest_non_block_module
librustc_driver-0b75ba01aeee6012.so:_RNvMs0_NtCs9KpYfezRtzb_9rustc_ast4attrNtNtB7_3ast9Attribute13name_or_empty
librustc_driver-0b75ba01aeee6012.so:_RNvMs0_NtCs9KpYfezRtzb_9rustc_ast4attrNtNtB7_3ast9Attribute14meta_item_list
librustc_driver-0b75ba01aeee6012.so:_RNvMs0_NtCs9KpYfezRtzb_9rustc_ast4attrNtNtB7_3ast9Attribute5ident
librustc_driver-0b75ba01aeee6012.so:_RNvMs0_NtCs9KpYfezRtzb_9rustc_ast4attrNtNtB7_3ast9Attribute7is_word
librustc_driver-0b75ba01aeee6012.so:_RNvMs0_NtCs9KpYfezRtzb_9rustc_ast4attrNtNtB7_3ast9Attribute9value_str
librustc_driver-0b75ba01aeee6012.so:_RNvMs0_NtCs9KpYfezRtzb_9rustc_ast5tokenNtB5_7LitKind5descr
librustc_driver-0b75ba01aeee6012.so:_RNvMs0_NtCs9KpYfezRtzb_9rustc_ast5tokenNtB5_7LitKind7article
librustc_driver-0b75ba01aeee6012.so:_RNvMs0_NtCs9UaAlnGT11v_12rustc_middle3hirNtNtNtB7_2ty7context6TyCtxt12impl_subject
librustc_driver-0b75ba01aeee6012.so:_RNvMs0_NtCs9UaAlnGT11v_12rustc_middle3hirNtNtNtB7_2ty7context6TyCtxt13parent_module
librustc_driver-0b75ba01aeee6012.so:_RNvMs0_NtCs9UaAlnGT11v_12rustc_middle3mirNtNtB5_6syntax8MirPhase11phase_index
librustc_driver-0b75ba01aeee6012.so:_RNvMs0_NtCs9UaAlnGT11v_12rustc_middle3mirNtNtB5_6syntax8MirPhase5parse
librustc_driver-0b75ba01aeee6012.so:_RNvMs0_NtCs9UaAlnGT11v_12rustc_middle4lintNtNtNtB7_2ty7context6TyCtxt18lint_level_at_node
librustc_driver-0b75ba01aeee6012.so:_RNvMs0_NtCs9UaAlnGT11v_12rustc_middle4lintNtNtNtB7_2ty7context6TyCtxt29maybe_lint_level_root_bounded
librustc_driver-0b75ba01aeee6012.so:_RNvMs0_NtCs9fJVnCDuQRQ_9rustc_hir3defNtB5_9Namespace5descr
librustc_driver-0b75ba01aeee6012.so:_RNvMs0_NtCs9fJVnCDuQRQ_9rustc_hir8pat_utilNtNtB7_3hir3Pat12simple_ident
librustc_driver-0b75ba01aeee6012.so:_RNvMs0_NtCs9fJVnCDuQRQ_9rustc_hir8pat_utilNtNtB7_3hir3Pat13for_loop_some
librustc_driver-0b75ba01aeee6012.so:_RNvMs0_NtCs9fJVnCDuQRQ_9rustc_hir8pat_utilNtNtB7_3hir3Pat18necessary_variants
librustc_driver-0b75ba01aeee6012.so:_RNvMs0_NtCs9fJVnCDuQRQ_9rustc_hir8pat_utilNtNtB7_3hir3Pat29contains_explicit_ref_binding
librustc_driver-0b75ba01aeee6012.so:_RNvMs0_NtCs9puRwE6Jrst_14rustc_borrowck8dataflowNtB5_7Borrows8location
librustc_driver-0b75ba01aeee6012.so:_RNvMs0_NtCs9xF1GXCZqXD_18rustc_mir_dataflow10move_pathsNtB5_8MovePath7parents
librustc_driver-0b75ba01aeee6012.so:_RNvMs0_NtCs9xF1GXCZqXD_18rustc_mir_dataflow10move_pathsNtB5_8MovePath8children
librustc_driver-0b75ba01aeee6012.so:_RNvMs0_NtCs9xF1GXCZqXD_18rustc_mir_dataflow10rustc_peekNtB5_8PeekCall15from_terminator
librustc_driver-0b75ba01aeee6012.so:_RNvMs0_NtCs9xF1GXCZqXD_18rustc_mir_dataflow5implsNtB5_24MaybeUninitializedPlaces32mark_inactive_variants_as_uninit
librustc_driver-0b75ba01aeee6012.so:_RNvMs0_NtCs9xF1GXCZqXD_18rustc_mir_dataflow5implsNtB5_24MaybeUninitializedPlaces3new
librustc_driver-0b75ba01aeee6012.so:_RNvMs0_NtCsBLdkomj5WW_13rustc_session5parseNtB5_9ParseSess16clone_source_map
librustc_driver-0b75ba01aeee6012.so:_RNvMs0_NtCsBLdkomj5WW_13rustc_session5parseNtB5_9ParseSess17with_span_handler
librustc_driver-0b75ba01aeee6012.so:_RNvMs0_NtCsBLdkomj5WW_13rustc_session5parseNtB5_9ParseSess19with_silent_emitter
librustc_driver-0b75ba01aeee6012.so:_RNvMs0_NtCsBLdkomj5WW_13rustc_session5parseNtB5_9ParseSess20save_proc_macro_span
librustc_driver-0b75ba01aeee6012.so:_RNvMs0_NtCsBLdkomj5WW_13rustc_session5parseNtB5_9ParseSess23proc_macro_quoted_spans
librustc_driver-0b75ba01aeee6012.so:_RNvMs0_NtCsBLdkomj5WW_13rustc_session5parseNtB5_9ParseSess3new
librustc_driver-0b75ba01aeee6012.so:_RNvMs0_NtCsBLdkomj5WW_13rustc_session5utilsNtB5_9NativeLib13has_modifiers
librustc_driver-0b75ba01aeee6012.so:_RNvMs0_NtCsBLdkomj5WW_13rustc_session6configNtB5_17SwitchWithOptPath7enabled
librustc_driver-0b75ba01aeee6012.so:_RNvMs0_NtCsBLdkomj5WW_13rustc_session6cstoreNtB5_9NativeLib13has_modifiers
librustc_driver-0b75ba01aeee6012.so:_RNvMs0_NtCsbQUXP7oyqOP_21rustc_trait_selection5solveNtB5_9Certainty9unify_and
librustc_driver-0b75ba01aeee6012.so:_RNvMs0_NtCsczMUV2s8Ncb_12rustc_errors10diagnosticNtB5_18DiagnosticLocation6caller
librustc_driver-0b75ba01aeee6012.so:_RNvMs0_NtCsczMUV2s8Ncb_12rustc_errors31annotate_snippet_emitter_writerNtB5_28AnnotateSnippetEmitterWriter10ui_testing
librustc_driver-0b75ba01aeee6012.so:_RNvMs0_NtCsczMUV2s8Ncb_12rustc_errors31annotate_snippet_emitter_writerNtB5_28AnnotateSnippetEmitterWriter3new
librustc_driver-0b75ba01aeee6012.so:_RNvMs0_NtCsdSVoBVyZlHf_9measureme13serializationNtB5_24SerializationSinkBuilder13new_from_file
librustc_driver-0b75ba01aeee6012.so:_RNvMs0_NtCsdSVoBVyZlHf_9measureme13serializationNtB5_24SerializationSinkBuilder13new_in_memory
librustc_driver-0b75ba01aeee6012.so:_RNvMs0_NtCsdSVoBVyZlHf_9measureme13serializationNtB5_24SerializationSinkBuilder8new_sink
librustc_driver-0b75ba01aeee6012.so:_RNvMs0_NtCsdSVoBVyZlHf_9measureme8countersNtB5_12Instructions3new
librustc_driver-0b75ba01aeee6012.so:_RNvMs0_NtCse1REIuXuKCi_5gsgdt4nodeNtB5_4Edge3new
librustc_driver-0b75ba01aeee6012.so:_RNvMs0_NtCsee4YmzppDub_9twox_hash4xxh3NtB5_7Hash1289with_seed
librustc_driver-0b75ba01aeee6012.so:_RNvMs0_NtCserdW9TeaKDe_11rustc_infer5inferNtB5_15SubregionOrigin22to_constraint_category
librustc_driver-0b75ba01aeee6012.so:_RNvMs0_NtCsf8791Mi6qoe_12tracing_core10dispatcherNtB5_8Dispatch4exit
librustc_driver-0b75ba01aeee6012.so:_RNvMs0_NtCsf8791Mi6qoe_12tracing_core10dispatcherNtB5_8Dispatch5enter
librustc_driver-0b75ba01aeee6012.so:_RNvMs0_NtCsf8791Mi6qoe_12tracing_core10dispatcherNtB5_8Dispatch9try_close
librustc_driver-0b75ba01aeee6012.so:_RNvMs0_NtCsf8791Mi6qoe_12tracing_core4spanNtB5_10Attributes13is_contextual
librustc_driver-0b75ba01aeee6012.so:_RNvMs0_NtCsf8791Mi6qoe_12tracing_core4spanNtB5_10Attributes3new
librustc_driver-0b75ba01aeee6012.so:_RNvMs0_NtCsf8791Mi6qoe_12tracing_core4spanNtB5_10Attributes6fields
librustc_driver-0b75ba01aeee6012.so:_RNvMs0_NtCsf8791Mi6qoe_12tracing_core4spanNtB5_10Attributes6parent
librustc_driver-0b75ba01aeee6012.so:_RNvMs0_NtCsf8791Mi6qoe_12tracing_core4spanNtB5_10Attributes6record
librustc_driver-0b75ba01aeee6012.so:_RNvMs0_NtCsf8791Mi6qoe_12tracing_core4spanNtB5_10Attributes6values
librustc_driver-0b75ba01aeee6012.so:_RNvMs0_NtCsf8791Mi6qoe_12tracing_core4spanNtB5_10Attributes7is_root
librustc_driver-0b75ba01aeee6012.so:_RNvMs0_NtCsf8791Mi6qoe_12tracing_core4spanNtB5_10Attributes8child_of
librustc_driver-0b75ba01aeee6012.so:_RNvMs0_NtCsf8791Mi6qoe_12tracing_core4spanNtB5_10Attributes8contains
librustc_driver-0b75ba01aeee6012.so:_RNvMs0_NtCsf8791Mi6qoe_12tracing_core4spanNtB5_10Attributes8is_empty
librustc_driver-0b75ba01aeee6012.so:_RNvMs0_NtCsf8791Mi6qoe_12tracing_core4spanNtB5_10Attributes8metadata
librustc_driver-0b75ba01aeee6012.so:_RNvMs0_NtCsf8791Mi6qoe_12tracing_core4spanNtB5_10Attributes8new_root
librustc_driver-0b75ba01aeee6012.so:_RNvMs0_NtCsf8791Mi6qoe_12tracing_core8metadataNtB5_4Kind4hint
librustc_driver-0b75ba01aeee6012.so:_RNvMs0_NtCsf8791Mi6qoe_12tracing_core8metadataNtB5_4Kind7is_hint
librustc_driver-0b75ba01aeee6012.so:_RNvMs0_NtCsf8791Mi6qoe_12tracing_core8metadataNtB5_4Kind7is_span
librustc_driver-0b75ba01aeee6012.so:_RNvMs0_NtCsf8791Mi6qoe_12tracing_core8metadataNtB5_4Kind8is_event
librustc_driver-0b75ba01aeee6012.so:_RNvMs0_NtCsfvMwm3M2twT_12tracing_tree6formatNtB5_7Buffers14indent_current
librustc_driver-0b75ba01aeee6012.so:_RNvMs0_NtCsgOwEnlkkb0y_16rustc_hir_typeck4castNtB5_9CastCheck3new
librustc_driver-0b75ba01aeee6012.so:_RNvMs0_NtCsgOwEnlkkb0y_16rustc_hir_typeck4castNtB5_9CastCheck5check
librustc_driver-0b75ba01aeee6012.so:_RNvMs0_NtCsgOwEnlkkb0y_16rustc_hir_typeck4castNtB5_9CastCheck8do_check
librustc_driver-0b75ba01aeee6012.so:_RNvMs0_NtCsh1oXE7bm4Eb_10rustc_span10source_mapNtB5_9SourceMap10next_point
librustc_driver-0b75ba01aeee6012.so:_RNvMs0_NtCsh1oXE7bm4Eb_10rustc_span10source_mapNtB5_9SourceMap11count_lines
librustc_driver-0b75ba01aeee6012.so:_RNvMs0_NtCsh1oXE7bm4Eb_10rustc_span10source_mapNtB5_9SourceMap11file_exists
librustc_driver-0b75ba01aeee6012.so:_RNvMs0_NtCsh1oXE7bm4Eb_10rustc_span10source_mapNtB5_9SourceMap11is_imported
librustc_driver-0b75ba01aeee6012.so:_RNvMs0_NtCsh1oXE7bm4Eb_10rustc_span10source_mapNtB5_9SourceMap11lookup_line
librustc_driver-0b75ba01aeee6012.so:_RNvMs0_NtCsh1oXE7bm4Eb_10rustc_span10source_mapNtB5_9SourceMap11start_point
librustc_driver-0b75ba01aeee6012.so:_RNvMs0_NtCsh1oXE7bm4Eb_10rustc_span10source_mapNtB5_9SourceMap12is_multiline
librustc_driver-0b75ba01aeee6012.so:_RNvMs0_NtCsh1oXE7bm4Eb_10rustc_span10source_mapNtB5_9SourceMap12path_mapping
librustc_driver-0b75ba01aeee6012.so:_RNvMs0_NtCsh1oXE7bm4Eb_10rustc_span10source_mapNtB5_9SourceMap13is_valid_span
librustc_driver-0b75ba01aeee6012.so:_RNvMs0_NtCsh1oXE7bm4Eb_10rustc_span10source_mapNtB5_9SourceMap13span_to_lines
librustc_driver-0b75ba01aeee6012.so:_RNvMs0_NtCsh1oXE7bm4Eb_10rustc_span10source_mapNtB5_9SourceMap14span_to_margin
librustc_driver-0b75ba01aeee6012.so:_RNvMs0_NtCsh1oXE7bm4Eb_10rustc_span10source_mapNtB5_9SourceMap14span_to_string
librustc_driver-0b75ba01aeee6012.so:_RNvMs0_NtCsh1oXE7bm4Eb_10rustc_span10source_mapNtB5_9SourceMap15get_source_file
librustc_driver-0b75ba01aeee6012.so:_RNvMs0_NtCsh1oXE7bm4Eb_10rustc_span10source_mapNtB5_9SourceMap15guess_head_span
librustc_driver-0b75ba01aeee6012.so:_RNvMs0_NtCsh1oXE7bm4Eb_10rustc_span10source_mapNtB5_9SourceMap15lookup_char_pos
librustc_driver-0b75ba01aeee6012.so:_RNvMs0_NtCsh1oXE7bm4Eb_10rustc_span10source_mapNtB5_9SourceMap15new_source_file
librustc_driver-0b75ba01aeee6012.so:_RNvMs0_NtCsh1oXE7bm4Eb_10rustc_span10source_mapNtB5_9SourceMap15span_look_ahead
librustc_driver-0b75ba01aeee6012.so:_RNvMs0_NtCsh1oXE7bm4Eb_10rustc_span10source_mapNtB5_9SourceMap15span_to_snippet
librustc_driver-0b75ba01aeee6012.so:_RNvMs0_NtCsh1oXE7bm4Eb_10rustc_span10source_mapNtB5_9SourceMap15span_until_char
librustc_driver-0b75ba01aeee6012.so:_RNvMs0_NtCsh1oXE7bm4Eb_10rustc_span10source_mapNtB5_9SourceMap16load_binary_file
librustc_driver-0b75ba01aeee6012.so:_RNvMs0_NtCsh1oXE7bm4Eb_10rustc_span10source_mapNtB5_9SourceMap16span_to_filename
librustc_driver-0b75ba01aeee6012.so:_RNvMs0_NtCsh1oXE7bm4Eb_10rustc_span10source_mapNtB5_9SourceMap17span_through_char
librustc_driver-0b75ba01aeee6012.so:_RNvMs0_NtCsh1oXE7bm4Eb_10rustc_span10source_mapNtB5_9SourceMap18indentation_before
librustc_driver-0b75ba01aeee6012.so:_RNvMs0_NtCsh1oXE7bm4Eb_10rustc_span10source_mapNtB5_9SourceMap18is_span_accessible
librustc_driver-0b75ba01aeee6012.so:_RNvMs0_NtCsh1oXE7bm4Eb_10rustc_span10source_mapNtB5_9SourceMap18lookup_byte_offset
librustc_driver-0b75ba01aeee6012.so:_RNvMs0_NtCsh1oXE7bm4Eb_10rustc_span10source_mapNtB5_9SourceMap18lookup_source_file
librustc_driver-0b75ba01aeee6012.so:_RNvMs0_NtCsh1oXE7bm4Eb_10rustc_span10source_mapNtB5_9SourceMap19doctest_offset_line
librustc_driver-0b75ba01aeee6012.so:_RNvMs0_NtCsh1oXE7bm4Eb_10rustc_span10source_mapNtB5_9SourceMap19span_extend_to_line
librustc_driver-0b75ba01aeee6012.so:_RNvMs0_NtCsh1oXE7bm4Eb_10rustc_span10source_mapNtB5_9SourceMap19span_to_next_source
librustc_driver-0b75ba01aeee6012.so:_RNvMs0_NtCsh1oXE7bm4Eb_10rustc_span10source_mapNtB5_9SourceMap19span_to_prev_source
librustc_driver-0b75ba01aeee6012.so:_RNvMs0_NtCsh1oXE7bm4Eb_10rustc_span10source_mapNtB5_9SourceMap21span_until_whitespace
librustc_driver-0b75ba01aeee6012.so:_RNvMs0_NtCsh1oXE7bm4Eb_10rustc_span10source_mapNtB5_9SourceMap22lookup_source_file_idx
librustc_driver-0b75ba01aeee6012.so:_RNvMs0_NtCsh1oXE7bm4Eb_10rustc_span10source_mapNtB5_9SourceMap23mac_call_stmt_semi_span
librustc_driver-0b75ba01aeee6012.so:_RNvMs0_NtCsh1oXE7bm4Eb_10rustc_span10source_mapNtB5_9SourceMap23span_extend_to_prev_str
librustc_driver-0b75ba01aeee6012.so:_RNvMs0_NtCsh1oXE7bm4Eb_10rustc_span10source_mapNtB5_9SourceMap24filename_for_diagnostics
librustc_driver-0b75ba01aeee6012.so:_RNvMs0_NtCsh1oXE7bm4Eb_10rustc_span10source_mapNtB5_9SourceMap24new_imported_source_file
librustc_driver-0b75ba01aeee6012.so:_RNvMs0_NtCsh1oXE7bm4Eb_10rustc_span10source_mapNtB5_9SourceMap24source_file_by_stable_id
librustc_driver-0b75ba01aeee6012.so:_RNvMs0_NtCsh1oXE7bm4Eb_10rustc_span10source_mapNtB5_9SourceMap24span_extend_to_next_char
librustc_driver-0b75ba01aeee6012.so:_RNvMs0_NtCsh1oXE7bm4Eb_10rustc_span10source_mapNtB5_9SourceMap24span_extend_to_prev_char
librustc_driver-0b75ba01aeee6012.so:_RNvMs0_NtCsh1oXE7bm4Eb_10rustc_span10source_mapNtB5_9SourceMap25is_line_before_span_empty
librustc_driver-0b75ba01aeee6012.so:_RNvMs0_NtCsh1oXE7bm4Eb_10rustc_span10source_mapNtB5_9SourceMap25span_to_diagnostic_string
librustc_driver-0b75ba01aeee6012.so:_RNvMs0_NtCsh1oXE7bm4Eb_10rustc_span10source_mapNtB5_9SourceMap25span_to_embeddable_string
librustc_driver-0b75ba01aeee6012.so:_RNvMs0_NtCsh1oXE7bm4Eb_10rustc_span10source_mapNtB5_9SourceMap25span_until_non_whitespace
librustc_driver-0b75ba01aeee6012.so:_RNvMs0_NtCsh1oXE7bm4Eb_10rustc_span10source_mapNtB5_9SourceMap28span_to_relative_line_string
librustc_driver-0b75ba01aeee6012.so:_RNvMs0_NtCsh1oXE7bm4Eb_10rustc_span10source_mapNtB5_9SourceMap30with_file_loader_and_hash_kind
librustc_driver-0b75ba01aeee6012.so:_RNvMs0_NtCsh1oXE7bm4Eb_10rustc_span10source_mapNtB5_9SourceMap33ensure_source_file_source_present
librustc_driver-0b75ba01aeee6012.so:_RNvMs0_NtCsh1oXE7bm4Eb_10rustc_span10source_mapNtB5_9SourceMap36span_wrapped_by_angle_or_parentheses
librustc_driver-0b75ba01aeee6012.so:_RNvMs0_NtCsh1oXE7bm4Eb_10rustc_span10source_mapNtB5_9SourceMap3new
librustc_driver-0b75ba01aeee6012.so:_RNvMs0_NtCsh1oXE7bm4Eb_10rustc_span10source_mapNtB5_9SourceMap5files
librustc_driver-0b75ba01aeee6012.so:_RNvMs0_NtCsh1oXE7bm4Eb_10rustc_span10source_mapNtB5_9SourceMap9end_point
librustc_driver-0b75ba01aeee6012.so:_RNvMs0_NtCsh1oXE7bm4Eb_10rustc_span10source_mapNtB5_9SourceMap9load_file
librustc_driver-0b75ba01aeee6012.so:_RNvMs0_NtCsh1oXE7bm4Eb_10rustc_span10source_mapNtB5_9SourceMap9stmt_span
librustc_driver-0b75ba01aeee6012.so:_RNvMs0_NtCshOzH7n6sxfs_12sharded_slab4pageNtB5_5Local3new
librustc_driver-0b75ba01aeee6012.so:_RNvMs0_NtCshn1YiuQfVU7_12rustc_target3abiNtB5_6Layout13largest_niche
librustc_driver-0b75ba01aeee6012.so:_RNvMs0_NtCshn1YiuQfVU7_12rustc_target3abiNtB5_6Layout3abi
librustc_driver-0b75ba01aeee6012.so:_RNvMs0_NtCshn1YiuQfVU7_12rustc_target3abiNtB5_6Layout4size
librustc_driver-0b75ba01aeee6012.so:_RNvMs0_NtCshn1YiuQfVU7_12rustc_target3abiNtB5_6Layout5align
librustc_driver-0b75ba01aeee6012.so:_RNvMs0_NtCshn1YiuQfVU7_12rustc_target3abiNtB5_6Layout6fields
librustc_driver-0b75ba01aeee6012.so:_RNvMs0_NtCshn1YiuQfVU7_12rustc_target3abiNtB5_6Layout8variants
librustc_driver-0b75ba01aeee6012.so:_RNvMs0_NtCshn1YiuQfVU7_12rustc_target3asmNtB5_17InlineAsmRegClass13suggest_class
librustc_driver-0b75ba01aeee6012.so:_RNvMs0_NtCshn1YiuQfVU7_12rustc_target3asmNtB5_17InlineAsmRegClass15is_clobber_only
librustc_driver-0b75ba01aeee6012.so:_RNvMs0_NtCshn1YiuQfVU7_12rustc_target3asmNtB5_17InlineAsmRegClass15supported_types
librustc_driver-0b75ba01aeee6012.so:_RNvMs0_NtCshn1YiuQfVU7_12rustc_target3asmNtB5_17InlineAsmRegClass15valid_modifiers
librustc_driver-0b75ba01aeee6012.so:_RNvMs0_NtCshn1YiuQfVU7_12rustc_target3asmNtB5_17InlineAsmRegClass16default_modifier
librustc_driver-0b75ba01aeee6012.so:_RNvMs0_NtCshn1YiuQfVU7_12rustc_target3asmNtB5_17InlineAsmRegClass16suggest_modifier
librustc_driver-0b75ba01aeee6012.so:_RNvMs0_NtCshn1YiuQfVU7_12rustc_target3asmNtB5_17InlineAsmRegClass4name
librustc_driver-0b75ba01aeee6012.so:_RNvMs0_NtCshn1YiuQfVU7_12rustc_target3asmNtB5_17InlineAsmRegClass5parse
librustc_driver-0b75ba01aeee6012.so:_RNvMs0_NtCshn1YiuQfVU7_12rustc_target4specNtB5_12LinkerFlavor10lld_flavor
librustc_driver-0b75ba01aeee6012.so:_RNvMs0_NtCshn1YiuQfVU7_12rustc_target4specNtB5_12LinkerFlavor6is_gnu
librustc_driver-0b75ba01aeee6012.so:_RNvMs0_NtCshn1YiuQfVU7_12rustc_target4specNtB5_12LinkerFlavor8from_cli
librustc_driver-0b75ba01aeee6012.so:_RNvMs0_NtCsiEeU9cRUvPU_12rustc_expand6expandNtB5_10Invocation4span
librustc_driver-0b75ba01aeee6012.so:_RNvMs0_NtCsjJMUtks5GNi_8icu_list8providerNtB5_17ListJoinerPattern20from_parts_unchecked
librustc_driver-0b75ba01aeee6012.so:_RNvMs0_NtCsjUNssCUQA8T_10rustc_attr7builtinNtB5_14StabilityLevel11is_unstable
librustc_driver-0b75ba01aeee6012.so:_RNvMs0_NtCsjUNssCUQA8T_10rustc_attr7builtinNtB5_14StabilityLevel9is_stable
librustc_driver-0b75ba01aeee6012.so:_RNvMs0_NtCsjwWoBr4mZn4_5regex3dfaNtB5_5State9inst_ptrs
librustc_driver-0b75ba01aeee6012.so:_RNvMs0_NtCsjwWoBr4mZn4_5regex5inputNtB5_9CharInput3new
librustc_driver-0b75ba01aeee6012.so:_RNvMs0_NtCskCMp3vLItG0_21icu_provider_adapters8fallbackNtB5_22LocaleFallbackIterator3get
librustc_driver-0b75ba01aeee6012.so:_RNvMs0_NtCskCMp3vLItG0_21icu_provider_adapters8fallbackNtB5_22LocaleFallbackIterator4step
librustc_driver-0b75ba01aeee6012.so:_RNvMs0_NtCskCMp3vLItG0_21icu_provider_adapters8fallbackNtB5_22LocaleFallbackIterator4take
librustc_driver-0b75ba01aeee6012.so:_RNvMs0_NtCslNSrLHyiy2w_19rustc_mir_transform8simplifyNtB5_13CfgSimplifier3new
librustc_driver-0b75ba01aeee6012.so:_RNvMs0_NtCslNSrLHyiy2w_19rustc_mir_transform8simplifyNtB5_13CfgSimplifier8simplify
librustc_driver-0b75ba01aeee6012.so:_RNvMs0_NtNtCs1Br764BqhVG_6object4read7archiveNtB5_13ArchiveMember10file_range
librustc_driver-0b75ba01aeee6012.so:_RNvMs0_NtNtCs1uAE8XsYwHC_9icu_locid7subtags8languageNtB5_8Language12try_from_raw
librustc_driver-0b75ba01aeee6012.so:_RNvMs0_NtNtCs1uAE8XsYwHC_9icu_locid7subtags8languageNtB5_8Language14try_from_bytes
librustc_driver-0b75ba01aeee6012.so:_RNvMs0_NtNtCs1uAE8XsYwHC_9icu_locid7subtags8languageNtB5_8Language18from_raw_unchecked
librustc_driver-0b75ba01aeee6012.so:_RNvMs0_NtNtCs1uAE8XsYwHC_9icu_locid7subtags8languageNtB5_8Language27try_from_bytes_manual_slice
librustc_driver-0b75ba01aeee6012.so:_RNvMs0_NtNtCs1uAE8XsYwHC_9icu_locid7subtags8languageNtB5_8Language8into_raw
librustc_driver-0b75ba01aeee6012.so:_RNvMs0_NtNtCs2iGwUc7EAmY_17rustc_codegen_ssa3mir7analyzeNtB5_11CleanupKind10funclet_bb
librustc_driver-0b75ba01aeee6012.so:_RNvMs0_NtNtCs2zXTrlMMQY6_6object4read7archiveNtB5_13ArchiveMember10file_range
librustc_driver-0b75ba01aeee6012.so:_RNvMs0_NtNtCs3gJ41u96r5N_18rustc_codegen_llvm5llvm_3ffiNtB5_13RealPredicate12from_generic
librustc_driver-0b75ba01aeee6012.so:_RNvMs0_NtNtCs5ESSSXQhO3H_12regex_syntax3ast5parseNtB5_13ParserBuilder10nest_limit
librustc_driver-0b75ba01aeee6012.so:_RNvMs0_NtNtCs5ESSSXQhO3H_12regex_syntax3ast5parseNtB5_13ParserBuilder17ignore_whitespace
librustc_driver-0b75ba01aeee6012.so:_RNvMs0_NtNtCs5ESSSXQhO3H_12regex_syntax3ast5parseNtB5_13ParserBuilder3new
librustc_driver-0b75ba01aeee6012.so:_RNvMs0_NtNtCs5ESSSXQhO3H_12regex_syntax3ast5parseNtB5_13ParserBuilder5build
librustc_driver-0b75ba01aeee6012.so:_RNvMs0_NtNtCs5ESSSXQhO3H_12regex_syntax3ast5parseNtB5_13ParserBuilder5octal
librustc_driver-0b75ba01aeee6012.so:_RNvMs0_NtNtCs5ESSSXQhO3H_12regex_syntax3ast5printNtB5_7Printer3new
librustc_driver-0b75ba01aeee6012.so:_RNvMs0_NtNtCs5ESSSXQhO3H_12regex_syntax3ast7visitorNtB5_10ClassFrame5child
librustc_driver-0b75ba01aeee6012.so:_RNvMs0_NtNtCs5ESSSXQhO3H_12regex_syntax3hir5printNtB5_7Printer3new
librustc_driver-0b75ba01aeee6012.so:_RNvMs0_NtNtCs5ESSSXQhO3H_12regex_syntax3hir7literalNtB5_7Literal3cut
librustc_driver-0b75ba01aeee6012.so:_RNvMs0_NtNtCs5ESSSXQhO3H_12regex_syntax3hir7literalNtB5_7Literal3new
librustc_driver-0b75ba01aeee6012.so:_RNvMs0_NtNtCs5ESSSXQhO3H_12regex_syntax3hir7literalNtB5_7Literal5empty
librustc_driver-0b75ba01aeee6012.so:_RNvMs0_NtNtCs5ESSSXQhO3H_12regex_syntax3hir7literalNtB5_7Literal6is_cut
librustc_driver-0b75ba01aeee6012.so:_RNvMs0_NtNtCs5ESSSXQhO3H_12regex_syntax3hir9translateNtB5_10Translator3new
librustc_driver-0b75ba01aeee6012.so:_RNvMs0_NtNtCs5ESSSXQhO3H_12regex_syntax3hir9translateNtB5_10Translator9translate
librustc_driver-0b75ba01aeee6012.so:_RNvMs0_NtNtCs6Xk4iZgn9ee_11miniz_oxide7deflate4coreNtB5_15CompressorOxide11data_format
librustc_driver-0b75ba01aeee6012.so:_RNvMs0_NtNtCs6Xk4iZgn9ee_11miniz_oxide7deflate4coreNtB5_15CompressorOxide18prev_return_status
librustc_driver-0b75ba01aeee6012.so:_RNvMs0_NtNtCs6Xk4iZgn9ee_11miniz_oxide7deflate4coreNtB5_15CompressorOxide20set_format_and_level
librustc_driver-0b75ba01aeee6012.so:_RNvMs0_NtNtCs6Xk4iZgn9ee_11miniz_oxide7deflate4coreNtB5_15CompressorOxide21set_compression_level
librustc_driver-0b75ba01aeee6012.so:_RNvMs0_NtNtCs6Xk4iZgn9ee_11miniz_oxide7deflate4coreNtB5_15CompressorOxide25set_compression_level_raw
librustc_driver-0b75ba01aeee6012.so:_RNvMs0_NtNtCs6Xk4iZgn9ee_11miniz_oxide7deflate4coreNtB5_15CompressorOxide3new
librustc_driver-0b75ba01aeee6012.so:_RNvMs0_NtNtCs6Xk4iZgn9ee_11miniz_oxide7deflate4coreNtB5_15CompressorOxide5flags
librustc_driver-0b75ba01aeee6012.so:_RNvMs0_NtNtCs6Xk4iZgn9ee_11miniz_oxide7deflate4coreNtB5_15CompressorOxide5reset
librustc_driver-0b75ba01aeee6012.so:_RNvMs0_NtNtCs6Xk4iZgn9ee_11miniz_oxide7deflate4coreNtB5_15CompressorOxide7adler32
librustc_driver-0b75ba01aeee6012.so:_RNvMs0_NtNtCs6rgqlYjgMMC_10libloading2os4unixNtB5_7Library5close
librustc_driver-0b75ba01aeee6012.so:_RNvMs0_NtNtCs6rgqlYjgMMC_10libloading2os4unixNtB5_7Library8from_raw
librustc_driver-0b75ba01aeee6012.so:_RNvMs0_NtNtCs6rgqlYjgMMC_10libloading2os4unixNtB5_7Library8into_raw
librustc_driver-0b75ba01aeee6012.so:_RNvMs0_NtNtCs7nHlYWzWSzq_11rustc_parse6parser2tyNtB7_6Parser14check_lifetime
librustc_driver-0b75ba01aeee6012.so:_RNvMs0_NtNtCs7nHlYWzWSzq_11rustc_parse6parser2tyNtB7_6Parser15expect_lifetime
librustc_driver-0b75ba01aeee6012.so:_RNvMs0_NtNtCs7nHlYWzWSzq_11rustc_parse6parser2tyNtB7_6Parser30parse_no_question_mark_recover
librustc_driver-0b75ba01aeee6012.so:_RNvMs0_NtNtCs7nHlYWzWSzq_11rustc_parse6parser2tyNtB7_6Parser8parse_ty
librustc_driver-0b75ba01aeee6012.so:_RNvMs0_NtNtCs7nHlYWzWSzq_11rustc_parse6parser4exprNtB7_6Parser13parse_str_lit
librustc_driver-0b75ba01aeee6012.so:_RNvMs0_NtNtCs7nHlYWzWSzq_11rustc_parse6parser4exprNtB7_6Parser21parse_anon_const_expr
librustc_driver-0b75ba01aeee6012.so:_RNvMs0_NtNtCs7nHlYWzWSzq_11rustc_parse6parser4exprNtB7_6Parser21parse_assoc_expr_with
librustc_driver-0b75ba01aeee6012.so:_RNvMs0_NtNtCs7nHlYWzWSzq_11rustc_parse6parser4exprNtB7_6Parser24parse_expr_force_collect
librustc_driver-0b75ba01aeee6012.so:_RNvMs0_NtNtCs7nHlYWzWSzq_11rustc_parse6parser4exprNtB7_6Parser25parse_literal_maybe_minus
librustc_driver-0b75ba01aeee6012.so:_RNvMs0_NtNtCs7tPUXX4pCjz_14regex_automata3nfa8compilerNtB5_8Compiler3new
librustc_driver-0b75ba01aeee6012.so:_RNvMs0_NtNtCs8lLsNL5HvpN_5gimli5write3cfiNtB5_21FrameDescriptionEntry15add_instruction
librustc_driver-0b75ba01aeee6012.so:_RNvMs0_NtNtCs8lLsNL5HvpN_5gimli5write3cfiNtB5_21FrameDescriptionEntry3new
librustc_driver-0b75ba01aeee6012.so:_RNvMs0_NtNtCs8lLsNL5HvpN_5gimli5write4unitNtB5_25DebuggingInformationEntry12delete_child
librustc_driver-0b75ba01aeee6012.so:_RNvMs0_NtNtCs8lLsNL5HvpN_5gimli5write4unitNtB5_25DebuggingInformationEntry17calculate_offsets
librustc_driver-0b75ba01aeee6012.so:_RNvMs0_NtNtCs8lLsNL5HvpN_5gimli5write4unitNtB5_25DebuggingInformationEntry3get
librustc_driver-0b75ba01aeee6012.so:_RNvMs0_NtNtCs8lLsNL5HvpN_5gimli5write4unitNtB5_25DebuggingInformationEntry3new
librustc_driver-0b75ba01aeee6012.so:_RNvMs0_NtNtCs8lLsNL5HvpN_5gimli5write4unitNtB5_25DebuggingInformationEntry3set
librustc_driver-0b75ba01aeee6012.so:_RNvMs0_NtNtCs8lLsNL5HvpN_5gimli5write4unitNtB5_25DebuggingInformationEntry6delete
librustc_driver-0b75ba01aeee6012.so:_RNvMs0_NtNtCs8lLsNL5HvpN_5gimli5write4unitNtB5_25DebuggingInformationEntry7get_mut
librustc_driver-0b75ba01aeee6012.so:_RNvMs0_NtNtCs8plho0yHpPq_14regex_automata3dfa5denseINtB5_3DFARSmE10from_bytes
librustc_driver-0b75ba01aeee6012.so:_RNvMs0_NtNtCs8plho0yHpPq_14regex_automata3dfa5denseINtB5_3DFARSmE20from_bytes_unchecked
librustc_driver-0b75ba01aeee6012.so:_RNvMs0_NtNtCs8plho0yHpPq_14regex_automata3dfa6sparseINtB5_3DFARShE10from_bytes
librustc_driver-0b75ba01aeee6012.so:_RNvMs0_NtNtCs8plho0yHpPq_14regex_automata3dfa6sparseINtB5_3DFARShE20from_bytes_unchecked
librustc_driver-0b75ba01aeee6012.so:_RNvMs0_NtNtCs8plho0yHpPq_14regex_automata4util8alphabetNtB5_11ByteClasses10from_bytes
librustc_driver-0b75ba01aeee6012.so:_RNvMs0_NtNtCs8plho0yHpPq_14regex_automata4util8alphabetNtB5_11ByteClasses12write_to_len
librustc_driver-0b75ba01aeee6012.so:_RNvMs0_NtNtCs8plho0yHpPq_14regex_automata4util8alphabetNtB5_11ByteClasses4iter
librustc_driver-0b75ba01aeee6012.so:_RNvMs0_NtNtCs8plho0yHpPq_14regex_automata4util8alphabetNtB5_11ByteClasses5empty
librustc_driver-0b75ba01aeee6012.so:_RNvMs0_NtNtCs8plho0yHpPq_14regex_automata4util8alphabetNtB5_11ByteClasses8elements
librustc_driver-0b75ba01aeee6012.so:_RNvMs0_NtNtCs8plho0yHpPq_14regex_automata4util8alphabetNtB5_11ByteClasses8write_to
librustc_driver-0b75ba01aeee6012.so:_RNvMs0_NtNtCs8plho0yHpPq_14regex_automata4util9prefilterNtB5_7Scanner12is_effective
librustc_driver-0b75ba01aeee6012.so:_RNvMs0_NtNtCs8plho0yHpPq_14regex_automata4util9prefilterNtB5_7Scanner14next_candidate
librustc_driver-0b75ba01aeee6012.so:_RNvMs0_NtNtCs8plho0yHpPq_14regex_automata4util9prefilterNtB5_7Scanner23reports_false_positives
librustc_driver-0b75ba01aeee6012.so:_RNvMs0_NtNtCs8plho0yHpPq_14regex_automata4util9prefilterNtB5_7Scanner3new
librustc_driver-0b75ba01aeee6012.so:_RNvMs0_NtNtCs8saYb8IjRm8_21rustc_data_structures5graph14implementationNtB5_9NodeIndex7node_id
librustc_driver-0b75ba01aeee6012.so:_RNvMs0_NtNtCs9KpYfezRtzb_9rustc_ast4util7literalNtNtB9_3ast11MetaItemLit10from_token
librustc_driver-0b75ba01aeee6012.so:_RNvMs0_NtNtCs9KpYfezRtzb_9rustc_ast4util7literalNtNtB9_3ast11MetaItemLit12as_token_lit
librustc_driver-0b75ba01aeee6012.so:_RNvMs0_NtNtCs9KpYfezRtzb_9rustc_ast4util7literalNtNtB9_3ast11MetaItemLit14from_token_lit
librustc_driver-0b75ba01aeee6012.so:_RNvMs0_NtNtCs9UaAlnGT11v_12rustc_middle2ty10adjustmentNtB5_20AutoBorrowMutability3new
librustc_driver-0b75ba01aeee6012.so:_RNvMs0_NtNtCs9UaAlnGT11v_12rustc_middle2ty3styNtB5_13ClosureSubsts13parent_substs
librustc_driver-0b75ba01aeee6012.so:_RNvMs0_NtNtCs9UaAlnGT11v_12rustc_middle2ty3styNtB5_13ClosureSubsts16sig_as_fn_ptr_ty
librustc_driver-0b75ba01aeee6012.so:_RNvMs0_NtNtCs9UaAlnGT11v_12rustc_middle2ty3styNtB5_13ClosureSubsts19print_as_impl_trait
librustc_driver-0b75ba01aeee6012.so:_RNvMs0_NtNtCs9UaAlnGT11v_12rustc_middle2ty3styNtB5_13ClosureSubsts3new
librustc_driver-0b75ba01aeee6012.so:_RNvMs0_NtNtCs9UaAlnGT11v_12rustc_middle2ty3styNtB5_13ClosureSubsts3sig
librustc_driver-0b75ba01aeee6012.so:_RNvMs0_NtNtCs9UaAlnGT11v_12rustc_middle2ty3styNtB5_13ClosureSubsts4kind
librustc_driver-0b75ba01aeee6012.so:_RNvMs0_NtNtCs9UaAlnGT11v_12rustc_middle2ty3styNtB5_13ClosureSubsts5split
librustc_driver-0b75ba01aeee6012.so:_RNvMs0_NtNtCs9UaAlnGT11v_12rustc_middle2ty3styNtB5_13ClosureSubsts7kind_ty
librustc_driver-0b75ba01aeee6012.so:_RNvMs0_NtNtCs9UaAlnGT11v_12rustc_middle2ty3styNtB5_13ClosureSubsts8is_valid
librustc_driver-0b75ba01aeee6012.so:_RNvMs0_NtNtCs9UaAlnGT11v_12rustc_middle2ty4walkNtNtB7_5subst10GenericArg12walk_shallow
librustc_driver-0b75ba01aeee6012.so:_RNvMs0_NtNtCs9UaAlnGT11v_12rustc_middle2ty4walkNtNtB7_5subst10GenericArg4walk
librustc_driver-0b75ba01aeee6012.so:_RNvMs0_NtNtCs9UaAlnGT11v_12rustc_middle2ty7closureNtB5_13CapturedPlace13get_path_span
librustc_driver-0b75ba01aeee6012.so:_RNvMs0_NtNtCs9UaAlnGT11v_12rustc_middle2ty7closureNtB5_13CapturedPlace17get_root_variable
librustc_driver-0b75ba01aeee6012.so:_RNvMs0_NtNtCs9UaAlnGT11v_12rustc_middle2ty7closureNtB5_13CapturedPlace21get_capture_kind_span
librustc_driver-0b75ba01aeee6012.so:_RNvMs0_NtNtCs9UaAlnGT11v_12rustc_middle2ty7closureNtB5_13CapturedPlace24get_closure_local_def_id
librustc_driver-0b75ba01aeee6012.so:_RNvMs0_NtNtCs9UaAlnGT11v_12rustc_middle2ty7closureNtB5_13CapturedPlace9to_string
librustc_driver-0b75ba01aeee6012.so:_RNvMs0_NtNtCs9UaAlnGT11v_12rustc_middle2ty8genericsNtB5_8Generics10own_counts
librustc_driver-0b75ba01aeee6012.so:_RNvMs0_NtNtCs9UaAlnGT11v_12rustc_middle2ty8genericsNtB5_8Generics10own_substs
librustc_driver-0b75ba01aeee6012.so:_RNvMs0_NtNtCs9UaAlnGT11v_12rustc_middle2ty8genericsNtB5_8Generics10type_param
librustc_driver-0b75ba01aeee6012.so:_RNvMs0_NtNtCs9UaAlnGT11v_12rustc_middle2ty8genericsNtB5_8Generics11const_param
librustc_driver-0b75ba01aeee6012.so:_RNvMs0_NtNtCs9UaAlnGT11v_12rustc_middle2ty8genericsNtB5_8Generics12own_defaults
librustc_driver-0b75ba01aeee6012.so:_RNvMs0_NtNtCs9UaAlnGT11v_12rustc_middle2ty8genericsNtB5_8Generics12region_param
librustc_driver-0b75ba01aeee6012.so:_RNvMs0_NtNtCs9UaAlnGT11v_12rustc_middle2ty8genericsNtB5_8Generics14has_impl_trait
librustc_driver-0b75ba01aeee6012.so:_RNvMs0_NtNtCs9UaAlnGT11v_12rustc_middle2ty8genericsNtB5_8Generics21param_def_id_to_index
librustc_driver-0b75ba01aeee6012.so:_RNvMs0_NtNtCs9UaAlnGT11v_12rustc_middle2ty8genericsNtB5_8Generics22own_substs_no_defaults
librustc_driver-0b75ba01aeee6012.so:_RNvMs0_NtNtCs9UaAlnGT11v_12rustc_middle2ty8genericsNtB5_8Generics25requires_monomorphization
librustc_driver-0b75ba01aeee6012.so:_RNvMs0_NtNtCs9UaAlnGT11v_12rustc_middle2ty8genericsNtB5_8Generics29own_requires_monomorphization
librustc_driver-0b75ba01aeee6012.so:_RNvMs0_NtNtCs9UaAlnGT11v_12rustc_middle2ty8genericsNtB5_8Generics8param_at
librustc_driver-0b75ba01aeee6012.so:_RNvMs0_NtNtCs9UaAlnGT11v_12rustc_middle2ty8genericsNtB5_8Generics9params_to
librustc_driver-0b75ba01aeee6012.so:_RNvMs0_NtNtCs9UaAlnGT11v_12rustc_middle2ty9trait_defNtNtB7_7context6TyCtxt24non_blanket_impls_for_ty
librustc_driver-0b75ba01aeee6012.so:_RNvMs0_NtNtCs9UaAlnGT11v_12rustc_middle2ty9trait_defNtNtB7_7context6TyCtxt9all_impls
librustc_driver-0b75ba01aeee6012.so:_RNvMs0_NtNtCs9UaAlnGT11v_12rustc_middle3hir3mapNtB5_3Map10body_owner
librustc_driver-0b75ba01aeee6012.so:_RNvMs0_NtNtCs9UaAlnGT11v_12rustc_middle3hir3mapNtB5_3Map10get_module
librustc_driver-0b75ba01aeee6012.so:_RNvMs0_NtNtCs9UaAlnGT11v_12rustc_middle3hir3mapNtB5_3Map10get_parent
librustc_driver-0b75ba01aeee6012.so:_RNvMs0_NtNtCs9UaAlnGT11v_12rustc_middle3hir3mapNtB5_3Map10trait_item
librustc_driver-0b75ba01aeee6012.so:_RNvMs0_NtNtCs9UaAlnGT11v_12rustc_middle3hir3mapNtB5_3Map11expect_expr
librustc_driver-0b75ba01aeee6012.so:_RNvMs0_NtNtCs9UaAlnGT11v_12rustc_middle3hir3mapNtB5_3Map11expect_item
librustc_driver-0b75ba01aeee6012.so:_RNvMs0_NtNtCs9UaAlnGT11v_12rustc_middle3hir3mapNtB5_3Map11find_parent
librustc_driver-0b75ba01aeee6012.so:_RNvMs0_NtNtCs9UaAlnGT11v_12rustc_middle3hir3mapNtB5_3Map11krate_attrs
librustc_driver-0b75ba01aeee6012.so:_RNvMs0_NtNtCs9UaAlnGT11v_12rustc_middle3hir3mapNtB5_3Map11trait_impls
librustc_driver-0b75ba01aeee6012.so:_RNvMs0_NtNtCs9UaAlnGT11v_12rustc_middle3hir3mapNtB5_3Map12expect_owner
librustc_driver-0b75ba01aeee6012.so:_RNvMs0_NtNtCs9UaAlnGT11v_12rustc_middle3hir3mapNtB5_3Map12foreign_item
librustc_driver-0b75ba01aeee6012.so:_RNvMs0_NtNtCs9UaAlnGT11v_12rustc_middle3hir3mapNtB5_3Map12get_generics
librustc_driver-0b75ba01aeee6012.so:_RNvMs0_NtNtCs9UaAlnGT11v_12rustc_middle3hir3mapNtB5_3Map12get_if_cause
librustc_driver-0b75ba01aeee6012.so:_RNvMs0_NtNtCs9UaAlnGT11v_12rustc_middle3hir3mapNtB5_3Map12get_if_local
librustc_driver-0b75ba01aeee6012.so:_RNvMs0_NtNtCs9UaAlnGT11v_12rustc_middle3hir3mapNtB5_3Map13body_owned_by
librustc_driver-0b75ba01aeee6012.so:_RNvMs0_NtNtCs9UaAlnGT11v_12rustc_middle3hir3mapNtB5_3Map13opt_parent_id
librustc_driver-0b75ba01aeee6012.so:_RNvMs0_NtNtCs9UaAlnGT11v_12rustc_middle3hir3mapNtB5_3Map13span_if_local
librustc_driver-0b75ba01aeee6012.so:_RNvMs0_NtNtCs9UaAlnGT11v_12rustc_middle3hir3mapNtB5_3Map13ty_param_name
librustc_driver-0b75ba01aeee6012.so:_RNvMs0_NtNtCs9UaAlnGT11v_12rustc_middle3hir3mapNtB5_3Map14expect_variant
librustc_driver-0b75ba01aeee6012.so:_RNvMs0_NtNtCs9UaAlnGT11v_12rustc_middle3hir3mapNtB5_3Map14node_to_string
librustc_driver-0b75ba01aeee6012.so:_RNvMs0_NtNtCs9UaAlnGT11v_12rustc_middle3hir3mapNtB5_3Map14span_with_body
librustc_driver-0b75ba01aeee6012.so:_RNvMs0_NtNtCs9UaAlnGT11v_12rustc_middle3hir3mapNtB5_3Map14ty_param_owner
librustc_driver-0b75ba01aeee6012.so:_RNvMs0_NtNtCs9UaAlnGT11v_12rustc_middle3hir3mapNtB5_3Map15body_owner_kind
librustc_driver-0b75ba01aeee6012.so:_RNvMs0_NtNtCs9UaAlnGT11v_12rustc_middle3hir3mapNtB5_3Map15get_foreign_abi
librustc_driver-0b75ba01aeee6012.so:_RNvMs0_NtNtCs9UaAlnGT11v_12rustc_middle3hir3mapNtB5_3Map15get_parent_item
librustc_driver-0b75ba01aeee6012.so:_RNvMs0_NtNtCs9UaAlnGT11v_12rustc_middle3hir3mapNtB5_3Map16body_param_names
librustc_driver-0b75ba01aeee6012.so:_RNvMs0_NtNtCs9UaAlnGT11v_12rustc_middle3hir3mapNtB5_3Map16expect_impl_item
librustc_driver-0b75ba01aeee6012.so:_RNvMs0_NtNtCs9UaAlnGT11v_12rustc_middle3hir3mapNtB5_3Map16fn_sig_by_hir_id
librustc_driver-0b75ba01aeee6012.so:_RNvMs0_NtNtCs9UaAlnGT11v_12rustc_middle3hir3mapNtB5_3Map16get_return_block
librustc_driver-0b75ba01aeee6012.so:_RNvMs0_NtNtCs9UaAlnGT11v_12rustc_middle3hir3mapNtB5_3Map17body_owner_def_id
librustc_driver-0b75ba01aeee6012.so:_RNvMs0_NtNtCs9UaAlnGT11v_12rustc_middle3hir3mapNtB5_3Map17expect_trait_item
librustc_driver-0b75ba01aeee6012.so:_RNvMs0_NtNtCs9UaAlnGT11v_12rustc_middle3hir3mapNtB5_3Map17fn_decl_by_hir_id
librustc_driver-0b75ba01aeee6012.so:_RNvMs0_NtNtCs9UaAlnGT11v_12rustc_middle3hir3mapNtB5_3Map18body_const_context
librustc_driver-0b75ba01aeee6012.so:_RNvMs0_NtNtCs9UaAlnGT11v_12rustc_middle3hir3mapNtB5_3Map18get_defining_scope
librustc_driver-0b75ba01aeee6012.so:_RNvMs0_NtNtCs9UaAlnGT11v_12rustc_middle3hir3mapNtB5_3Map19expect_foreign_item
librustc_driver-0b75ba01aeee6012.so:_RNvMs0_NtNtCs9UaAlnGT11v_12rustc_middle3hir3mapNtB5_3Map19get_enclosing_scope
librustc_driver-0b75ba01aeee6012.so:_RNvMs0_NtNtCs9UaAlnGT11v_12rustc_middle3hir3mapNtB5_3Map19maybe_body_owned_by
librustc_driver-0b75ba01aeee6012.so:_RNvMs0_NtNtCs9UaAlnGT11v_12rustc_middle3hir3mapNtB5_3Map20def_path_from_hir_id
librustc_driver-0b75ba01aeee6012.so:_RNvMs0_NtNtCs9UaAlnGT11v_12rustc_middle3hir3mapNtB5_3Map20enclosing_body_owner
librustc_driver-0b75ba01aeee6012.so:_RNvMs0_NtNtCs9UaAlnGT11v_12rustc_middle3hir3mapNtB5_3Map23is_inside_const_context
librustc_driver-0b75ba01aeee6012.so:_RNvMs0_NtNtCs9UaAlnGT11v_12rustc_middle3hir3mapNtB5_3Map23rustc_coherence_is_core
librustc_driver-0b75ba01aeee6012.so:_RNvMs0_NtNtCs9UaAlnGT11v_12rustc_middle3hir3mapNtB5_3Map36opt_const_param_default_param_def_id
librustc_driver-0b75ba01aeee6012.so:_RNvMs0_NtNtCs9UaAlnGT11v_12rustc_middle3hir3mapNtB5_3Map3get
librustc_driver-0b75ba01aeee6012.so:_RNvMs0_NtNtCs9UaAlnGT11v_12rustc_middle3hir3mapNtB5_3Map4body
librustc_driver-0b75ba01aeee6012.so:_RNvMs0_NtNtCs9UaAlnGT11v_12rustc_middle3hir3mapNtB5_3Map4find
librustc_driver-0b75ba01aeee6012.so:_RNvMs0_NtNtCs9UaAlnGT11v_12rustc_middle3hir3mapNtB5_3Map4item
librustc_driver-0b75ba01aeee6012.so:_RNvMs0_NtNtCs9UaAlnGT11v_12rustc_middle3hir3mapNtB5_3Map4name
librustc_driver-0b75ba01aeee6012.so:_RNvMs0_NtNtCs9UaAlnGT11v_12rustc_middle3hir3mapNtB5_3Map4span
librustc_driver-0b75ba01aeee6012.so:_RNvMs0_NtNtCs9UaAlnGT11v_12rustc_middle3hir3mapNtB5_3Map5attrs
librustc_driver-0b75ba01aeee6012.so:_RNvMs0_NtNtCs9UaAlnGT11v_12rustc_middle3hir3mapNtB5_3Map5owner
librustc_driver-0b75ba01aeee6012.so:_RNvMs0_NtNtCs9UaAlnGT11v_12rustc_middle3hir3mapNtB5_3Map6is_lhs
librustc_driver-0b75ba01aeee6012.so:_RNvMs0_NtNtCs9UaAlnGT11v_12rustc_middle3hir3mapNtB5_3Map7def_key
librustc_driver-0b75ba01aeee6012.so:_RNvMs0_NtNtCs9UaAlnGT11v_12rustc_middle3hir3mapNtB5_3Map8def_path
librustc_driver-0b75ba01aeee6012.so:_RNvMs0_NtNtCs9UaAlnGT11v_12rustc_middle3hir3mapNtB5_3Map8opt_span
librustc_driver-0b75ba01aeee6012.so:_RNvMs0_NtNtCs9UaAlnGT11v_12rustc_middle3hir3mapNtB5_3Map8res_span
librustc_driver-0b75ba01aeee6012.so:_RNvMs0_NtNtCs9UaAlnGT11v_12rustc_middle3hir3mapNtB5_3Map9impl_item
librustc_driver-0b75ba01aeee6012.so:_RNvMs0_NtNtCs9UaAlnGT11v_12rustc_middle3hir3mapNtB5_3Map9parent_id
librustc_driver-0b75ba01aeee6012.so:_RNvMs0_NtNtCs9UaAlnGT11v_12rustc_middle3mir4monoNtB5_11CodegenUnit10is_primary
librustc_driver-0b75ba01aeee6012.so:_RNvMs0_NtNtCs9UaAlnGT11v_12rustc_middle3mir4monoNtB5_11CodegenUnit11mangle_name
librustc_driver-0b75ba01aeee6012.so:_RNvMs0_NtNtCs9UaAlnGT11v_12rustc_middle3mir4monoNtB5_11CodegenUnit12make_primary
librustc_driver-0b75ba01aeee6012.so:_RNvMs0_NtNtCs9UaAlnGT11v_12rustc_middle3mir4monoNtB5_11CodegenUnit13contains_item
librustc_driver-0b75ba01aeee6012.so:_RNvMs0_NtNtCs9UaAlnGT11v_12rustc_middle3mir4monoNtB5_11CodegenUnit13estimate_size
librustc_driver-0b75ba01aeee6012.so:_RNvMs0_NtNtCs9UaAlnGT11v_12rustc_middle3mir4monoNtB5_11CodegenUnit15work_product_id
librustc_driver-0b75ba01aeee6012.so:_RNvMs0_NtNtCs9UaAlnGT11v_12rustc_middle3mir4monoNtB5_11CodegenUnit16codegen_dep_node
librustc_driver-0b75ba01aeee6012.so:_RNvMs0_NtNtCs9UaAlnGT11v_12rustc_middle3mir4monoNtB5_11CodegenUnit20modify_size_estimate
librustc_driver-0b75ba01aeee6012.so:_RNvMs0_NtNtCs9UaAlnGT11v_12rustc_middle3mir4monoNtB5_11CodegenUnit21previous_work_product
librustc_driver-0b75ba01aeee6012.so:_RNvMs0_NtNtCs9UaAlnGT11v_12rustc_middle3mir4monoNtB5_11CodegenUnit28items_in_deterministic_order
librustc_driver-0b75ba01aeee6012.so:_RNvMs0_NtNtCs9UaAlnGT11v_12rustc_middle3mir4monoNtB5_11CodegenUnit30is_code_coverage_dead_code_cgu
librustc_driver-0b75ba01aeee6012.so:_RNvMs0_NtNtCs9UaAlnGT11v_12rustc_middle3mir4monoNtB5_11CodegenUnit32make_code_coverage_dead_code_cgu
librustc_driver-0b75ba01aeee6012.so:_RNvMs0_NtNtCs9UaAlnGT11v_12rustc_middle3mir4monoNtB5_11CodegenUnit4name
librustc_driver-0b75ba01aeee6012.so:_RNvMs0_NtNtCs9UaAlnGT11v_12rustc_middle3mir4monoNtB5_11CodegenUnit5items
librustc_driver-0b75ba01aeee6012.so:_RNvMs0_NtNtCs9UaAlnGT11v_12rustc_middle3mir4monoNtB5_11CodegenUnit8set_name
librustc_driver-0b75ba01aeee6012.so:_RNvMs0_NtNtCs9UaAlnGT11v_12rustc_middle3mir4monoNtB5_11CodegenUnit9items_mut
librustc_driver-0b75ba01aeee6012.so:_RNvMs0_NtNtCs9UaAlnGT11v_12rustc_middle3mir9interpretNtB5_18AllocDecodingState3new
librustc_driver-0b75ba01aeee6012.so:_RNvMs0_NtNtCs9UaAlnGT11v_12rustc_middle3mir9traversalNtB5_9Postorder3new
librustc_driver-0b75ba01aeee6012.so:_RNvMs0_NtNtCs9UaAlnGT11v_12rustc_middle6middle6regionNtB5_9ScopeTree14is_subscope_of
librustc_driver-0b75ba01aeee6012.so:_RNvMs0_NtNtCs9UaAlnGT11v_12rustc_middle6middle6regionNtB5_9ScopeTree14opt_encl_scope
librustc_driver-0b75ba01aeee6012.so:_RNvMs0_NtNtCs9UaAlnGT11v_12rustc_middle6middle6regionNtB5_9ScopeTree14yield_in_scope
librustc_driver-0b75ba01aeee6012.so:_RNvMs0_NtNtCs9UaAlnGT11v_12rustc_middle6middle6regionNtB5_9ScopeTree15body_expr_count
librustc_driver-0b75ba01aeee6012.so:_RNvMs0_NtNtCs9UaAlnGT11v_12rustc_middle6middle6regionNtB5_9ScopeTree16record_var_scope
librustc_driver-0b75ba01aeee6012.so:_RNvMs0_NtNtCs9UaAlnGT11v_12rustc_middle6middle6regionNtB5_9ScopeTree19record_scope_parent
librustc_driver-0b75ba01aeee6012.so:_RNvMs0_NtNtCs9UaAlnGT11v_12rustc_middle6middle6regionNtB5_9ScopeTree21opt_destruction_scope
librustc_driver-0b75ba01aeee6012.so:_RNvMs0_NtNtCs9UaAlnGT11v_12rustc_middle6middle6regionNtB5_9ScopeTree23record_rvalue_candidate
librustc_driver-0b75ba01aeee6012.so:_RNvMs0_NtNtCs9UaAlnGT11v_12rustc_middle6middle6regionNtB5_9ScopeTree9var_scope
librustc_driver-0b75ba01aeee6012.so:_RNvMs0_NtNtCs9UaAlnGT11v_12rustc_middle6middle7privacyNtB5_21EffectiveVisibilities11is_exported
librustc_driver-0b75ba01aeee6012.so:_RNvMs0_NtNtCs9UaAlnGT11v_12rustc_middle6middle7privacyNtB5_21EffectiveVisibilities12is_reachable
librustc_driver-0b75ba01aeee6012.so:_RNvMs0_NtNtCs9UaAlnGT11v_12rustc_middle6middle7privacyNtB5_21EffectiveVisibilities15public_at_level
librustc_driver-0b75ba01aeee6012.so:_RNvMs0_NtNtCs9UaAlnGT11v_12rustc_middle6middle7privacyNtB5_21EffectiveVisibilities16check_invariants
librustc_driver-0b75ba01aeee6012.so:_RNvMs0_NtNtCs9UaAlnGT11v_12rustc_middle6middle7privacyNtB5_21EffectiveVisibilities18is_directly_public
librustc_driver-0b75ba01aeee6012.so:_RNvMs0_NtNtCs9UaAlnGT11v_12rustc_middle6middle7privacyNtB5_21EffectiveVisibilities18is_public_at_level
librustc_driver-0b75ba01aeee6012.so:_RNvMs0_NtNtCs9UaAlnGT11v_12rustc_middle6middle9stabilityNtNtNtB9_2ty7context6TyCtxt14eval_stability
librustc_driver-0b75ba01aeee6012.so:_RNvMs0_NtNtCs9UaAlnGT11v_12rustc_middle6middle9stabilityNtNtNtB9_2ty7context6TyCtxt15check_stability
librustc_driver-0b75ba01aeee6012.so:_RNvMs0_NtNtCs9UaAlnGT11v_12rustc_middle6middle9stabilityNtNtNtB9_2ty7context6TyCtxt18lookup_deprecation
librustc_driver-0b75ba01aeee6012.so:_RNvMs0_NtNtCs9UaAlnGT11v_12rustc_middle6middle9stabilityNtNtNtB9_2ty7context6TyCtxt27eval_default_body_stability
librustc_driver-0b75ba01aeee6012.so:_RNvMs0_NtNtCs9UaAlnGT11v_12rustc_middle6middle9stabilityNtNtNtB9_2ty7context6TyCtxt29eval_stability_allow_unstable
librustc_driver-0b75ba01aeee6012.so:_RNvMs0_NtNtCs9UaAlnGT11v_12rustc_middle6middle9stabilityNtNtNtB9_2ty7context6TyCtxt30check_stability_allow_unstable
librustc_driver-0b75ba01aeee6012.so:_RNvMs0_NtNtCs9UaAlnGT11v_12rustc_middle6traits20specialization_graphNtB5_4Node13is_from_trait
librustc_driver-0b75ba01aeee6012.so:_RNvMs0_NtNtCs9UaAlnGT11v_12rustc_middle6traits20specialization_graphNtB5_4Node4item
librustc_driver-0b75ba01aeee6012.so:_RNvMs0_NtNtCs9UaAlnGT11v_12rustc_middle6traits20specialization_graphNtB5_4Node6def_id
librustc_driver-0b75ba01aeee6012.so:_RNvMs0_NtNtCs9UaAlnGT11v_12rustc_middle6traits5queryNtB5_16DropckConstraint5empty
librustc_driver-0b75ba01aeee6012.so:_RNvMs0_NtNtCs9puRwE6Jrst_14rustc_borrowck12region_infer6valuesNtB5_18PlaceholderIndices12lookup_index
librustc_driver-0b75ba01aeee6012.so:_RNvMs0_NtNtCs9puRwE6Jrst_14rustc_borrowck12region_infer6valuesNtB5_18PlaceholderIndices18lookup_placeholder
librustc_driver-0b75ba01aeee6012.so:_RNvMs0_NtNtCs9xF1GXCZqXD_18rustc_mir_dataflow9framework6cursorNtB5_14CursorPosition11block_entry
librustc_driver-0b75ba01aeee6012.so:_RNvMs0_NtNtCsNX45m2jpYM_12aho_corasick6packed3apiNtB5_6Config10match_kind
librustc_driver-0b75ba01aeee6012.so:_RNvMs0_NtNtCsNX45m2jpYM_12aho_corasick6packed3apiNtB5_6Config11force_teddy
librustc_driver-0b75ba01aeee6012.so:_RNvMs0_NtNtCsNX45m2jpYM_12aho_corasick6packed3apiNtB5_6Config15force_teddy_fat
librustc_driver-0b75ba01aeee6012.so:_RNvMs0_NtNtCsNX45m2jpYM_12aho_corasick6packed3apiNtB5_6Config16force_rabin_karp
librustc_driver-0b75ba01aeee6012.so:_RNvMs0_NtNtCsNX45m2jpYM_12aho_corasick6packed3apiNtB5_6Config3new
librustc_driver-0b75ba01aeee6012.so:_RNvMs0_NtNtCsNX45m2jpYM_12aho_corasick6packed3apiNtB5_6Config7builder
librustc_driver-0b75ba01aeee6012.so:_RNvMs0_NtNtCsNX45m2jpYM_12aho_corasick6packed3apiNtB5_6Config9force_avx
librustc_driver-0b75ba01aeee6012.so:_RNvMs0_NtNtCsavxwT4AFUQ9_15crossbeam_utils4sync6parkerNtB5_6Parker12park_timeout
librustc_driver-0b75ba01aeee6012.so:_RNvMs0_NtNtCsavxwT4AFUQ9_15crossbeam_utils4sync6parkerNtB5_6Parker13park_deadline
librustc_driver-0b75ba01aeee6012.so:_RNvMs0_NtNtCsavxwT4AFUQ9_15crossbeam_utils4sync6parkerNtB5_6Parker3new
librustc_driver-0b75ba01aeee6012.so:_RNvMs0_NtNtCsavxwT4AFUQ9_15crossbeam_utils4sync6parkerNtB5_6Parker4park
librustc_driver-0b75ba01aeee6012.so:_RNvMs0_NtNtCsavxwT4AFUQ9_15crossbeam_utils4sync6parkerNtB5_6Parker8from_raw
librustc_driver-0b75ba01aeee6012.so:_RNvMs0_NtNtCsavxwT4AFUQ9_15crossbeam_utils4sync6parkerNtB5_6Parker8into_raw
librustc_driver-0b75ba01aeee6012.so:_RNvMs0_NtNtCsavxwT4AFUQ9_15crossbeam_utils4sync6parkerNtB5_6Parker8unparker
librustc_driver-0b75ba01aeee6012.so:_RNvMs0_NtNtCsbQUXP7oyqOP_21rustc_trait_selection6traits10auto_traitNtB5_15AutoTraitFinder10clean_pred
librustc_driver-0b75ba01aeee6012.so:_RNvMs0_NtNtCsbQUXP7oyqOP_21rustc_trait_selection6traits10auto_traitNtB5_15AutoTraitFinder11is_of_param
librustc_driver-0b75ba01aeee6012.so:_RNvMs0_NtNtCsbQUXP7oyqOP_21rustc_trait_selection6traits10auto_traitNtB5_15AutoTraitFinder17map_vid_to_region
librustc_driver-0b75ba01aeee6012.so:_RNvMs0_NtNtCsbQUXP7oyqOP_21rustc_trait_selection6traits10auto_traitNtB5_15AutoTraitFinder19evaluate_predicates
librustc_driver-0b75ba01aeee6012.so:_RNvMs0_NtNtCsbQUXP7oyqOP_21rustc_trait_selection6traits7projectNtB5_19AssocTypeNormalizer3new
librustc_driver-0b75ba01aeee6012.so:_RNvMs0_NtNtCserdW9TeaKDe_11rustc_infer5infer12opaque_typesNtB5_7UseKind11is_defining
librustc_driver-0b75ba01aeee6012.so:_RNvMs0_NtNtCserdW9TeaKDe_11rustc_infer5infer15error_reportingNtB7_9InferCtxt25get_impl_future_output_ty
librustc_driver-0b75ba01aeee6012.so:_RNvMs0_NtNtCserdW9TeaKDe_11rustc_infer5infer18region_constraintsNtB5_10Constraint21involves_placeholders
librustc_driver-0b75ba01aeee6012.so:_RNvMs0_NtNtCserdW9TeaKDe_11rustc_infer5infer7resolveNtB5_27OpportunisticRegionResolver3new
librustc_driver-0b75ba01aeee6012.so:_RNvMs0_NtNtCserdW9TeaKDe_11rustc_infer5infer8undo_logNtB7_14InferCtxtInner11rollback_to
librustc_driver-0b75ba01aeee6012.so:_RNvMs0_NtNtCserdW9TeaKDe_11rustc_infer5infer8undo_logNtB7_14InferCtxtInner6commit
librustc_driver-0b75ba01aeee6012.so:_RNvMs0_NtNtCserdW9TeaKDe_11rustc_infer6traits4utilNtB5_10Elaborator16filter_to_traits
librustc_driver-0b75ba01aeee6012.so:_RNvMs0_NtNtCsgOwEnlkkb0y_16rustc_hir_typeck6method5probeNtNtB9_7fn_ctxt6FnCtxt14probe_for_name
librustc_driver-0b75ba01aeee6012.so:_RNvMs0_NtNtCshn1YiuQfVU7_12rustc_target3asm3armNtB5_20ArmInlineAsmRegClass4name
librustc_driver-0b75ba01aeee6012.so:_RNvMs0_NtNtCshn1YiuQfVU7_12rustc_target3asm3armNtB5_20ArmInlineAsmRegClass5parse
librustc_driver-0b75ba01aeee6012.so:_RNvMs0_NtNtCshn1YiuQfVU7_12rustc_target3asm3avrNtB5_20AvrInlineAsmRegClass4name
librustc_driver-0b75ba01aeee6012.so:_RNvMs0_NtNtCshn1YiuQfVU7_12rustc_target3asm3avrNtB5_20AvrInlineAsmRegClass5parse
librustc_driver-0b75ba01aeee6012.so:_RNvMs0_NtNtCshn1YiuQfVU7_12rustc_target3asm3bpfNtB5_20BpfInlineAsmRegClass4name
librustc_driver-0b75ba01aeee6012.so:_RNvMs0_NtNtCshn1YiuQfVU7_12rustc_target3asm3bpfNtB5_20BpfInlineAsmRegClass5parse
librustc_driver-0b75ba01aeee6012.so:_RNvMs0_NtNtCshn1YiuQfVU7_12rustc_target3asm3x86NtB5_20X86InlineAsmRegClass4name
librustc_driver-0b75ba01aeee6012.so:_RNvMs0_NtNtCshn1YiuQfVU7_12rustc_target3asm3x86NtB5_20X86InlineAsmRegClass5parse
librustc_driver-0b75ba01aeee6012.so:_RNvMs0_NtNtCshn1YiuQfVU7_12rustc_target3asm4mipsNtB5_21MipsInlineAsmRegClass4name
librustc_driver-0b75ba01aeee6012.so:_RNvMs0_NtNtCshn1YiuQfVU7_12rustc_target3asm4mipsNtB5_21MipsInlineAsmRegClass5parse
librustc_driver-0b75ba01aeee6012.so:_RNvMs0_NtNtCshn1YiuQfVU7_12rustc_target3asm5riscvNtB5_22RiscVInlineAsmRegClass4name
librustc_driver-0b75ba01aeee6012.so:_RNvMs0_NtNtCshn1YiuQfVU7_12rustc_target3asm5riscvNtB5_22RiscVInlineAsmRegClass5parse
librustc_driver-0b75ba01aeee6012.so:_RNvMs0_NtNtCshn1YiuQfVU7_12rustc_target3asm5s390xNtB5_22S390xInlineAsmRegClass4name
librustc_driver-0b75ba01aeee6012.so:_RNvMs0_NtNtCshn1YiuQfVU7_12rustc_target3asm5s390xNtB5_22S390xInlineAsmRegClass5parse
librustc_driver-0b75ba01aeee6012.so:_RNvMs0_NtNtCshn1YiuQfVU7_12rustc_target3asm6msp430NtB5_23Msp430InlineAsmRegClass4name
librustc_driver-0b75ba01aeee6012.so:_RNvMs0_NtNtCshn1YiuQfVU7_12rustc_target3asm6msp430NtB5_23Msp430InlineAsmRegClass5parse
librustc_driver-0b75ba01aeee6012.so:_RNvMs0_NtNtCshn1YiuQfVU7_12rustc_target3asm7aarch64NtB5_24AArch64InlineAsmRegClass4name
librustc_driver-0b75ba01aeee6012.so:_RNvMs0_NtNtCshn1YiuQfVU7_12rustc_target3asm7aarch64NtB5_24AArch64InlineAsmRegClass5parse
librustc_driver-0b75ba01aeee6012.so:_RNvMs0_NtNtCshn1YiuQfVU7_12rustc_target3asm7hexagonNtB5_24HexagonInlineAsmRegClass4name
librustc_driver-0b75ba01aeee6012.so:_RNvMs0_NtNtCshn1YiuQfVU7_12rustc_target3asm7hexagonNtB5_24HexagonInlineAsmRegClass5parse
librustc_driver-0b75ba01aeee6012.so:_RNvMs0_NtNtCshn1YiuQfVU7_12rustc_target3asm7powerpcNtB5_24PowerPCInlineAsmRegClass4name
librustc_driver-0b75ba01aeee6012.so:_RNvMs0_NtNtCshn1YiuQfVU7_12rustc_target3asm7powerpcNtB5_24PowerPCInlineAsmRegClass5parse
librustc_driver-0b75ba01aeee6012.so:_RNvMs0_NtNtNtCs1Br764BqhVG_6object4read2pe8resourceNtNtBb_2pe27ImageResourceDirectoryEntry10name_or_id
librustc_driver-0b75ba01aeee6012.so:_RNvMs0_NtNtNtCs1Br764BqhVG_6object4read2pe8resourceNtNtBb_2pe27ImageResourceDirectoryEntry11data_offset
librustc_driver-0b75ba01aeee6012.so:_RNvMs0_NtNtNtCs1Br764BqhVG_6object4read2pe8resourceNtNtBb_2pe27ImageResourceDirectoryEntry4data
librustc_driver-0b75ba01aeee6012.so:_RNvMs0_NtNtNtCs1Br764BqhVG_6object4read2pe8resourceNtNtBb_2pe27ImageResourceDirectoryEntry8has_name
librustc_driver-0b75ba01aeee6012.so:_RNvMs0_NtNtNtCs1Br764BqhVG_6object4read2pe8resourceNtNtBb_2pe27ImageResourceDirectoryEntry8is_table
librustc_driver-0b75ba01aeee6012.so:_RNvMs0_NtNtNtCs2BBApAlL7Qg_15rustc_mir_build4thir7pattern10usefulnessNtB5_8PatStack12from_pattern
librustc_driver-0b75ba01aeee6012.so:_RNvMs0_NtNtNtCs2BBApAlL7Qg_15rustc_mir_build4thir7pattern10usefulnessNtB5_8PatStack4head
librustc_driver-0b75ba01aeee6012.so:_RNvMs0_NtNtNtCs2zXTrlMMQY6_6object4read2pe8resourceNtNtBb_2pe27ImageResourceDirectoryEntry10name_or_id
librustc_driver-0b75ba01aeee6012.so:_RNvMs0_NtNtNtCs2zXTrlMMQY6_6object4read2pe8resourceNtNtBb_2pe27ImageResourceDirectoryEntry11data_offset
librustc_driver-0b75ba01aeee6012.so:_RNvMs0_NtNtNtCs2zXTrlMMQY6_6object4read2pe8resourceNtNtBb_2pe27ImageResourceDirectoryEntry4data
librustc_driver-0b75ba01aeee6012.so:_RNvMs0_NtNtNtCs2zXTrlMMQY6_6object4read2pe8resourceNtNtBb_2pe27ImageResourceDirectoryEntry8has_name
librustc_driver-0b75ba01aeee6012.so:_RNvMs0_NtNtNtCs2zXTrlMMQY6_6object4read2pe8resourceNtNtBb_2pe27ImageResourceDirectoryEntry8is_table
librustc_driver-0b75ba01aeee6012.so:_RNvMs0_NtNtNtCs9UaAlnGT11v_12rustc_middle3mir9interpret10allocationNtB5_15ConstAllocation5inner
librustc_driver-0b75ba01aeee6012.so:_RNvMs0_NtNtNtCs9UaAlnGT11v_12rustc_middle3mir9interpret5errorNtB5_15InterpErrorInfo15print_backtrace
librustc_driver-0b75ba01aeee6012.so:_RNvMs0_NtNtNtCs9UaAlnGT11v_12rustc_middle3mir9interpret5errorNtB5_15InterpErrorInfo9into_kind
librustc_driver-0b75ba01aeee6012.so:_RNvMs0_NtNtNtCs9UaAlnGT11v_12rustc_middle3mir9interpret7queriesNtNtNtBb_2ty5query12TyCtxtEnsure15const_eval_poly
librustc_driver-0b75ba01aeee6012.so:_RNvMs0_NtNtNtCs9UaAlnGT11v_12rustc_middle3mir9interpret7queriesNtNtNtBb_2ty5query12TyCtxtEnsure23eval_static_initializer
librustc_driver-0b75ba01aeee6012.so:_RNvMs0_NtNtNtCsbQUXP7oyqOP_21rustc_trait_selection6traits15error_reporting16on_unimplementedNtB5_27OnUnimplementedFormatString6format
librustc_driver-0b75ba01aeee6012.so:_RNvMs0_NtNtNtCshJrk7kqXY5v_5serde9___private2de7contentNtB5_14ContentVisitor3new
librustc_driver-0b75ba01aeee6012.so:_RNvMs0_NtNtNtCshjMEON3iz53_16rustc_const_eval9transform12check_consts5checkNtB5_7Checker10check_body
librustc_driver-0b75ba01aeee6012.so:_RNvMs0_NtNtNtCshjMEON3iz53_16rustc_const_eval9transform12check_consts5checkNtB5_7Checker23qualifs_in_return_place
librustc_driver-0b75ba01aeee6012.so:_RNvMs0_NtNtNtCshjMEON3iz53_16rustc_const_eval9transform12check_consts5checkNtB5_7Checker3new
librustc_driver-0b75ba01aeee6012.so:_RNvMs10_NtCs9Yk5q5as75h_10rustc_lint7builtinNtB6_26MissingCopyImplementations9get_lints
librustc_driver-0b75ba01aeee6012.so:_RNvMs10_NtCs9fJVnCDuQRQ_9rustc_hir3hirNtB6_4Item7item_id
librustc_driver-0b75ba01aeee6012.so:_RNvMs11_NtCs9fJVnCDuQRQ_9rustc_hir3hirNtB6_8Unsafety10prefix_str
librustc_driver-0b75ba01aeee6012.so:_RNvMs12_NtNtCs9UaAlnGT11v_12rustc_middle2ty7contextNtB6_6TyCtxt13intern_layout
librustc_driver-0b75ba01aeee6012.so:_RNvMs13_NtCs9Yk5q5as75h_10rustc_lint7builtinNtB6_27MissingDebugImplementations9get_lints
librustc_driver-0b75ba01aeee6012.so:_RNvMs14_NtCs9fJVnCDuQRQ_9rustc_hir3hirNtB6_8FnHeader8is_async
librustc_driver-0b75ba01aeee6012.so:_RNvMs14_NtCs9fJVnCDuQRQ_9rustc_hir3hirNtB6_8FnHeader8is_const
librustc_driver-0b75ba01aeee6012.so:_RNvMs14_NtCs9fJVnCDuQRQ_9rustc_hir3hirNtB6_8FnHeader9is_unsafe
librustc_driver-0b75ba01aeee6012.so:_RNvMs14_NtNtCsb8kExLKizBh_7zerovec3ule5plainINtNtNtBa_7zerovec5slice9ZeroSlicehE14try_from_bytes
librustc_driver-0b75ba01aeee6012.so:_RNvMs15_NtCs9fJVnCDuQRQ_9rustc_hir3hirNtB6_8ItemKind5descr
librustc_driver-0b75ba01aeee6012.so:_RNvMs15_NtCs9fJVnCDuQRQ_9rustc_hir3hirNtB6_8ItemKind8generics
librustc_driver-0b75ba01aeee6012.so:_RNvMs15_NtNtCsb8kExLKizBh_7zerovec3ule5plainINtNtNtBa_7zerovec5slice9ZeroSlicetE14try_from_bytes
librustc_driver-0b75ba01aeee6012.so:_RNvMs16_NtNtCsb8kExLKizBh_7zerovec3ule5plainINtNtNtBa_7zerovec5slice9ZeroSlicemE14try_from_bytes
librustc_driver-0b75ba01aeee6012.so:_RNvMs17_NtCs9Yk5q5as75h_10rustc_lint7builtinNtB6_19AnonymousParameters9get_lints
librustc_driver-0b75ba01aeee6012.so:_RNvMs17_NtCs9fJVnCDuQRQ_9rustc_hir3hirNtB6_11ForeignItem15foreign_item_id
librustc_driver-0b75ba01aeee6012.so:_RNvMs17_NtNtCs9UaAlnGT11v_12rustc_middle2ty7contextNtB6_6TyCtxt14intern_adt_def
librustc_driver-0b75ba01aeee6012.so:_RNvMs17_NtNtCsb8kExLKizBh_7zerovec3ule5plainINtNtNtBa_7zerovec5slice9ZeroSliceyE14try_from_bytes
librustc_driver-0b75ba01aeee6012.so:_RNvMs18_NtCs9fJVnCDuQRQ_9rustc_hir3hirNtB6_9OwnerNode11expect_item
librustc_driver-0b75ba01aeee6012.so:_RNvMs18_NtCs9fJVnCDuQRQ_9rustc_hir3hirNtB6_9OwnerNode16expect_impl_item
librustc_driver-0b75ba01aeee6012.so:_RNvMs18_NtCs9fJVnCDuQRQ_9rustc_hir3hirNtB6_9OwnerNode17expect_trait_item
librustc_driver-0b75ba01aeee6012.so:_RNvMs18_NtCs9fJVnCDuQRQ_9rustc_hir3hirNtB6_9OwnerNode19expect_foreign_item
librustc_driver-0b75ba01aeee6012.so:_RNvMs18_NtCs9fJVnCDuQRQ_9rustc_hir3hirNtB6_9OwnerNode4span
librustc_driver-0b75ba01aeee6012.so:_RNvMs18_NtCs9fJVnCDuQRQ_9rustc_hir3hirNtB6_9OwnerNode5ident
librustc_driver-0b75ba01aeee6012.so:_RNvMs18_NtCs9fJVnCDuQRQ_9rustc_hir3hirNtB6_9OwnerNode6def_id
librustc_driver-0b75ba01aeee6012.so:_RNvMs18_NtCs9fJVnCDuQRQ_9rustc_hir3hirNtB6_9OwnerNode7body_id
librustc_driver-0b75ba01aeee6012.so:_RNvMs18_NtCs9fJVnCDuQRQ_9rustc_hir3hirNtB6_9OwnerNode7fn_decl
librustc_driver-0b75ba01aeee6012.so:_RNvMs18_NtCs9fJVnCDuQRQ_9rustc_hir3hirNtB6_9OwnerNode8generics
librustc_driver-0b75ba01aeee6012.so:_RNvMs18_NtNtCs9UaAlnGT11v_12rustc_middle2ty7contextNtB6_6TyCtxt13__intern_projs
librustc_driver-0b75ba01aeee6012.so:_RNvMs18_NtNtCs9UaAlnGT11v_12rustc_middle2ty7contextNtB6_6TyCtxt14__intern_substs
librustc_driver-0b75ba01aeee6012.so:_RNvMs18_NtNtCs9UaAlnGT11v_12rustc_middle2ty7contextNtB6_6TyCtxt18__intern_const_list
librustc_driver-0b75ba01aeee6012.so:_RNvMs18_NtNtCs9UaAlnGT11v_12rustc_middle2ty7contextNtB6_6TyCtxt18__intern_predicates
librustc_driver-0b75ba01aeee6012.so:_RNvMs18_NtNtCs9UaAlnGT11v_12rustc_middle2ty7contextNtB6_6TyCtxt19__intern_place_elems
librustc_driver-0b75ba01aeee6012.so:_RNvMs18_NtNtCs9UaAlnGT11v_12rustc_middle2ty7contextNtB6_6TyCtxt27__intern_canonical_var_infos
librustc_driver-0b75ba01aeee6012.so:_RNvMs18_NtNtCs9UaAlnGT11v_12rustc_middle2ty7contextNtB6_6TyCtxt28__intern_bound_variable_kinds
librustc_driver-0b75ba01aeee6012.so:_RNvMs18_NtNtCs9UaAlnGT11v_12rustc_middle2ty7contextNtB6_6TyCtxt35__intern_poly_existential_predicates
librustc_driver-0b75ba01aeee6012.so:_RNvMs18_NtNtCsb8kExLKizBh_7zerovec3ule5plainINtNtNtBa_7zerovec5slice9ZeroSliceoE14try_from_bytes
librustc_driver-0b75ba01aeee6012.so:_RNvMs19_NtNtCsb8kExLKizBh_7zerovec3ule5plainINtNtNtBa_7zerovec5slice9ZeroSlicebE14try_from_bytes
librustc_driver-0b75ba01aeee6012.so:_RNvMs1A_NtCshn1YiuQfVU7_12rustc_target4specNtB6_15LinkerFlavorCli4desc
librustc_driver-0b75ba01aeee6012.so:_RNvMs1A_NtCshn1YiuQfVU7_12rustc_target4specNtB6_15LinkerFlavorCli6one_of
librustc_driver-0b75ba01aeee6012.so:_RNvMs1A_NtCshn1YiuQfVU7_12rustc_target4specNtB6_15LinkerFlavorCli8from_str
librustc_driver-0b75ba01aeee6012.so:_RNvMs1C_NtCs9Yk5q5as75h_10rustc_lint7builtinNtB6_17UnusedBrokenConst9get_lints
librustc_driver-0b75ba01aeee6012.so:_RNvMs1G_NtCs9Yk5q5as75h_10rustc_lint7builtinNtB6_18TrivialConstraints9get_lints
librustc_driver-0b75ba01aeee6012.so:_RNvMs1K_NtCs8lLsNL5HvpN_5gimli9constantsNtB6_5DwLle13static_string
librustc_driver-0b75ba01aeee6012.so:_RNvMs1K_NtCs9Yk5q5as75h_10rustc_lint7builtinNtB6_9SoftLints9get_lints
librustc_driver-0b75ba01aeee6012.so:_RNvMs1N_NtCs9Yk5q5as75h_10rustc_lint7builtinNtB6_30EllipsisInclusiveRangePatterns9get_lints
librustc_driver-0b75ba01aeee6012.so:_RNvMs1P_NtCs9Yk5q5as75h_10rustc_lint7builtinNtB6_19UnnameableTestItems9get_lints
librustc_driver-0b75ba01aeee6012.so:_RNvMs1T_NtCs9Yk5q5as75h_10rustc_lint7builtinNtB6_13KeywordIdents9get_lints
librustc_driver-0b75ba01aeee6012.so:_RNvMs1W_NtCs8lLsNL5HvpN_5gimli9constantsNtB6_4DwDs13static_string
librustc_driver-0b75ba01aeee6012.so:_RNvMs1X_NtCs9Yk5q5as75h_10rustc_lint7builtinNtB6_28ExplicitOutlivesRequirements9get_lints
librustc_driver-0b75ba01aeee6012.so:_RNvMs1_Cs3BVciWoC1df_18rustc_parse_formatNtB5_8Position5index
librustc_driver-0b75ba01aeee6012.so:_RNvMs1_Cs4C9R4OzljKl_9rustc_abiNtB5_16TargetDataLayout33parse_from_llvm_datalayout_string
librustc_driver-0b75ba01aeee6012.so:_RNvMs1_Cs5rh5k6nS07H_9jobserverNtB5_12HelperThread13request_token
librustc_driver-0b75ba01aeee6012.so:_RNvMs1_Cs6eP2FAaHkoX_7getoptsNtB5_4Name8from_str
librustc_driver-0b75ba01aeee6012.so:_RNvMs1_Cs6eP2FAaHkoX_7getoptsNtB5_4Name9to_string
librustc_driver-0b75ba01aeee6012.so:_RNvMs1_Cs7P330ktdMbn_19rustc_save_analysisNtB5_11DumpHandler3new
librustc_driver-0b75ba01aeee6012.so:_RNvMs1_Cs8O5EifQp6yY_8fastrandNtB5_3Rng3f32
librustc_driver-0b75ba01aeee6012.so:_RNvMs1_Cs8O5EifQp6yY_8fastrandNtB5_3Rng3f64
librustc_driver-0b75ba01aeee6012.so:_RNvMs1_Cs9I0zmOhoApY_18rustc_ast_loweringNtB5_15LoweringContext17lower_param_bound
librustc_driver-0b75ba01aeee6012.so:_RNvMs1_Cs9I0zmOhoApY_18rustc_ast_loweringNtB5_15LoweringContext19lower_generic_param
librustc_driver-0b75ba01aeee6012.so:_RNvMs1_Cs9Yk5q5as75h_10rustc_lintNtB5_28BuiltinCombinedEarlyLintPass3new
librustc_driver-0b75ba01aeee6012.so:_RNvMs1_Cs9Yk5q5as75h_10rustc_lintNtB5_28BuiltinCombinedEarlyLintPass9get_lints
librustc_driver-0b75ba01aeee6012.so:_RNvMs1_CsfvMwm3M2twT_12tracing_treeNtB5_17HierarchicalLayer3new
librustc_driver-0b75ba01aeee6012.so:_RNvMs1_Csh1oXE7bm4Eb_10rustc_spanNtB5_12RealFileName10local_path
librustc_driver-0b75ba01aeee6012.so:_RNvMs1_Csh1oXE7bm4Eb_10rustc_spanNtB5_12RealFileName15into_local_path
librustc_driver-0b75ba01aeee6012.so:_RNvMs1_Csh1oXE7bm4Eb_10rustc_spanNtB5_12RealFileName15to_string_lossy
librustc_driver-0b75ba01aeee6012.so:_RNvMs1_Csh1oXE7bm4Eb_10rustc_spanNtB5_12RealFileName23local_path_if_available
librustc_driver-0b75ba01aeee6012.so:_RNvMs1_Csh1oXE7bm4Eb_10rustc_spanNtB5_12RealFileName26remapped_path_if_available
librustc_driver-0b75ba01aeee6012.so:_RNvMs1_CsiyJNtbvviN4_15rustc_lint_defsNtB5_5Level11to_cmd_flag
librustc_driver-0b75ba01aeee6012.so:_RNvMs1_CsiyJNtbvviN4_15rustc_lint_defsNtB5_5Level18get_expectation_id
librustc_driver-0b75ba01aeee6012.so:_RNvMs1_CsiyJNtbvviN4_15rustc_lint_defsNtB5_5Level6as_str
librustc_driver-0b75ba01aeee6012.so:_RNvMs1_CsiyJNtbvviN4_15rustc_lint_defsNtB5_5Level8from_str
librustc_driver-0b75ba01aeee6012.so:_RNvMs1_CsiyJNtbvviN4_15rustc_lint_defsNtB5_5Level8is_error
librustc_driver-0b75ba01aeee6012.so:_RNvMs1_CsiyJNtbvviN4_15rustc_lint_defsNtB5_5Level9from_attr
librustc_driver-0b75ba01aeee6012.so:_RNvMs1_NtCs1Br764BqhVG_6object2peNtB5_24ImageDelayloadDescriptor7is_null
librustc_driver-0b75ba01aeee6012.so:_RNvMs1_NtCs1Br764BqhVG_6object5writeNtB5_15StandardSection4kind
librustc_driver-0b75ba01aeee6012.so:_RNvMs1_NtCs2ldLjt3xnvI_9ansi_term4ansiNtNtB7_5style6Colour5infix
librustc_driver-0b75ba01aeee6012.so:_RNvMs1_NtCs2ldLjt3xnvI_9ansi_term4ansiNtNtB7_5style6Colour6prefix
librustc_driver-0b75ba01aeee6012.so:_RNvMs1_NtCs2ldLjt3xnvI_9ansi_term4ansiNtNtB7_5style6Colour6suffix
librustc_driver-0b75ba01aeee6012.so:_RNvMs1_NtCs3gJ41u96r5N_18rustc_codegen_llvm5llvm_NtNtB5_3ffi13AttributeKind11create_attr
librustc_driver-0b75ba01aeee6012.so:_RNvMs1_NtCs4TM5Xb5wYoE_16parking_lot_core11parking_lotNtB5_10ThreadData3new
librustc_driver-0b75ba01aeee6012.so:_RNvMs1_NtCs5ESSSXQhO3H_12regex_syntax4utf8NtB5_9Utf8Range7matches
librustc_driver-0b75ba01aeee6012.so:_RNvMs1_NtCs7PFPqSK8ZRQ_12chalk_engine5tableNtB5_11AnswerIndex13iterate_range
librustc_driver-0b75ba01aeee6012.so:_RNvMs1_NtCs7PFPqSK8ZRQ_12chalk_engine5tableNtB5_11AnswerIndex9increment
librustc_driver-0b75ba01aeee6012.so:_RNvMs1_NtCs8udwNclQ4om_16rustc_query_impl13on_disk_cacheNtB5_11OnDiskCache17load_side_effects
librustc_driver-0b75ba01aeee6012.so:_RNvMs1_NtCs8udwNclQ4om_16rustc_query_impl13on_disk_cacheNtB5_11OnDiskCache18store_side_effects
librustc_driver-0b75ba01aeee6012.so:_RNvMs1_NtCs8udwNclQ4om_16rustc_query_impl13on_disk_cacheNtB5_11OnDiskCache32store_side_effects_for_anon_node
librustc_driver-0b75ba01aeee6012.so:_RNvMs1_NtCs8udwNclQ4om_16rustc_query_impl13on_disk_cacheNtB5_11OnDiskCache6as_dyn
librustc_driver-0b75ba01aeee6012.so:_RNvMs1_NtCs8udwNclQ4om_16rustc_query_impl8plumbingNtB5_9QueryCtxt13on_disk_cache
librustc_driver-0b75ba01aeee6012.so:_RNvMs1_NtCs8udwNclQ4om_16rustc_query_impl8plumbingNtB5_9QueryCtxt21try_print_query_stack
librustc_driver-0b75ba01aeee6012.so:_RNvMs1_NtCs93julGFyfmy_10serde_json2deINtB5_12DeserializerNtNtB7_4read7StrReadE8from_str
librustc_driver-0b75ba01aeee6012.so:_RNvMs1_NtCs9IVbjQok2gJ_12icu_provider11hello_worldNtB5_18HelloWorldProvider18into_json_provider
librustc_driver-0b75ba01aeee6012.so:_RNvMs1_NtCs9KpYfezRtzb_9rustc_ast11tokenstreamNtB5_19LazyAttrTokenStream20to_attr_token_stream
librustc_driver-0b75ba01aeee6012.so:_RNvMs1_NtCs9KpYfezRtzb_9rustc_ast4attrNtNtB7_3ast8MetaItem13name_or_empty
librustc_driver-0b75ba01aeee6012.so:_RNvMs1_NtCs9KpYfezRtzb_9rustc_ast4attrNtNtB7_3ast8MetaItem14meta_item_list
librustc_driver-0b75ba01aeee6012.so:_RNvMs1_NtCs9KpYfezRtzb_9rustc_ast4attrNtNtB7_3ast8MetaItem18name_value_literal
librustc_driver-0b75ba01aeee6012.so:_RNvMs1_NtCs9KpYfezRtzb_9rustc_ast4attrNtNtB7_3ast8MetaItem23name_value_literal_span
librustc_driver-0b75ba01aeee6012.so:_RNvMs1_NtCs9KpYfezRtzb_9rustc_ast4attrNtNtB7_3ast8MetaItem5ident
librustc_driver-0b75ba01aeee6012.so:_RNvMs1_NtCs9KpYfezRtzb_9rustc_ast4attrNtNtB7_3ast8MetaItem7is_word
librustc_driver-0b75ba01aeee6012.so:_RNvMs1_NtCs9KpYfezRtzb_9rustc_ast4attrNtNtB7_3ast8MetaItem8has_name
librustc_driver-0b75ba01aeee6012.so:_RNvMs1_NtCs9KpYfezRtzb_9rustc_ast4attrNtNtB7_3ast8MetaItem9value_str
librustc_driver-0b75ba01aeee6012.so:_RNvMs1_NtCs9KpYfezRtzb_9rustc_ast5tokenNtB5_9TokenKind14similar_tokens
librustc_driver-0b75ba01aeee6012.so:_RNvMs1_NtCs9KpYfezRtzb_9rustc_ast5tokenNtB5_9TokenKind18break_two_token_op
librustc_driver-0b75ba01aeee6012.so:_RNvMs1_NtCs9KpYfezRtzb_9rustc_ast5tokenNtB5_9TokenKind20should_end_const_arg
librustc_driver-0b75ba01aeee6012.so:_RNvMs1_NtCs9KpYfezRtzb_9rustc_ast5tokenNtB5_9TokenKind3lit
librustc_driver-0b75ba01aeee6012.so:_RNvMs1_NtCs9UaAlnGT11v_12rustc_middle2tyNtB5_14BoundConstness3and
librustc_driver-0b75ba01aeee6012.so:_RNvMs1_NtCs9UaAlnGT11v_12rustc_middle3mirNtNtB5_6syntax13AnalysisPhase5parse
librustc_driver-0b75ba01aeee6012.so:_RNvMs1_NtCs9UaAlnGT11v_12rustc_middle4lintNtB5_15LintExpectation3new
librustc_driver-0b75ba01aeee6012.so:_RNvMs1_NtCs9UaAlnGT11v_12rustc_middle4thirNtB5_4Thir3new
librustc_driver-0b75ba01aeee6012.so:_RNvMs1_NtCs9Yk5q5as75h_10rustc_lint7contextNtB5_12EarlyContext3new
librustc_driver-0b75ba01aeee6012.so:_RNvMs1_NtCs9fJVnCDuQRQ_9rustc_hir10lang_itemsNtB5_8LangItem12variant_name
librustc_driver-0b75ba01aeee6012.so:_RNvMs1_NtCs9fJVnCDuQRQ_9rustc_hir10lang_itemsNtB5_8LangItem17required_generics
librustc_driver-0b75ba01aeee6012.so:_RNvMs1_NtCs9fJVnCDuQRQ_9rustc_hir10lang_itemsNtB5_8LangItem4name
librustc_driver-0b75ba01aeee6012.so:_RNvMs1_NtCs9fJVnCDuQRQ_9rustc_hir10lang_itemsNtB5_8LangItem6target
librustc_driver-0b75ba01aeee6012.so:_RNvMs1_NtCs9fJVnCDuQRQ_9rustc_hir10lang_itemsNtB5_8LangItem9from_name
librustc_driver-0b75ba01aeee6012.so:_RNvMs1_NtCs9fJVnCDuQRQ_9rustc_hir3hirNtB5_8Lifetime12is_anonymous
librustc_driver-0b75ba01aeee6012.so:_RNvMs1_NtCs9fJVnCDuQRQ_9rustc_hir3hirNtB5_8Lifetime19suggestion_position
librustc_driver-0b75ba01aeee6012.so:_RNvMs1_NtCs9fJVnCDuQRQ_9rustc_hir3hirNtB5_8Lifetime9is_elided
librustc_driver-0b75ba01aeee6012.so:_RNvMs1_NtCs9fJVnCDuQRQ_9rustc_hir3hirNtB5_8Lifetime9is_static
librustc_driver-0b75ba01aeee6012.so:_RNvMs1_NtCs9puRwE6Jrst_14rustc_borrowck10borrow_setNtB5_9BorrowSet12get_index_of
librustc_driver-0b75ba01aeee6012.so:_RNvMs1_NtCs9puRwE6Jrst_14rustc_borrowck10borrow_setNtB5_9BorrowSet5build
librustc_driver-0b75ba01aeee6012.so:_RNvMs1_NtCsBLdkomj5WW_13rustc_session17cgu_reuse_trackerNtB5_15CguReuseTracker12new_disabled
librustc_driver-0b75ba01aeee6012.so:_RNvMs1_NtCsBLdkomj5WW_13rustc_session17cgu_reuse_trackerNtB5_15CguReuseTracker15set_expectation
librustc_driver-0b75ba01aeee6012.so:_RNvMs1_NtCsBLdkomj5WW_13rustc_session17cgu_reuse_trackerNtB5_15CguReuseTracker16set_actual_reuse
librustc_driver-0b75ba01aeee6012.so:_RNvMs1_NtCsBLdkomj5WW_13rustc_session17cgu_reuse_trackerNtB5_15CguReuseTracker20check_expected_reuse
librustc_driver-0b75ba01aeee6012.so:_RNvMs1_NtCsBLdkomj5WW_13rustc_session17cgu_reuse_trackerNtB5_15CguReuseTracker3new
librustc_driver-0b75ba01aeee6012.so:_RNvMs1_NtCsBLdkomj5WW_13rustc_session5utilsNtB5_17CanonicalizedPath13canonicalized
librustc_driver-0b75ba01aeee6012.so:_RNvMs1_NtCsBLdkomj5WW_13rustc_session5utilsNtB5_17CanonicalizedPath3new
librustc_driver-0b75ba01aeee6012.so:_RNvMs1_NtCsBLdkomj5WW_13rustc_session5utilsNtB5_17CanonicalizedPath8original
librustc_driver-0b75ba01aeee6012.so:_RNvMs1_NtCsBLdkomj5WW_13rustc_session6cstoreNtB5_9DllImport7ordinal
librustc_driver-0b75ba01aeee6012.so:_RNvMs1_NtCsNX45m2jpYM_12aho_corasick7classesNtB5_16ByteClassBuilder3new
librustc_driver-0b75ba01aeee6012.so:_RNvMs1_NtCsNX45m2jpYM_12aho_corasick7classesNtB5_16ByteClassBuilder5build
librustc_driver-0b75ba01aeee6012.so:_RNvMs1_NtCsNX45m2jpYM_12aho_corasick7classesNtB5_16ByteClassBuilder9set_range
librustc_driver-0b75ba01aeee6012.so:_RNvMs1_NtCsNX45m2jpYM_12aho_corasick9prefilterNtB5_12PrefilterObj6as_ref
librustc_driver-0b75ba01aeee6012.so:_RNvMs1_NtCsavxwT4AFUQ9_15crossbeam_utils6threadNtB5_19ScopedThreadBuilder10stack_size
librustc_driver-0b75ba01aeee6012.so:_RNvMs1_NtCsavxwT4AFUQ9_15crossbeam_utils6threadNtB5_19ScopedThreadBuilder4name
librustc_driver-0b75ba01aeee6012.so:_RNvMs1_NtCscefVdIc028Y_11tracing_log10log_tracerNtB5_7Builder3new
librustc_driver-0b75ba01aeee6012.so:_RNvMs1_NtCscefVdIc028Y_11tracing_log10log_tracerNtB5_7Builder4init
librustc_driver-0b75ba01aeee6012.so:_RNvMs1_NtCsczMUV2s8Ncb_12rustc_errors18diagnostic_builderINtB5_17DiagnosticBuilderuE14new_diagnostic
librustc_driver-0b75ba01aeee6012.so:_RNvMs1_NtCsdSVoBVyZlHf_9measureme8countersNtB5_21InstructionsMinusIrqs3new
librustc_driver-0b75ba01aeee6012.so:_RNvMs1_NtCsee4YmzppDub_9twox_hash10sixty_fourNtB5_8XxHash644seed
librustc_driver-0b75ba01aeee6012.so:_RNvMs1_NtCsee4YmzppDub_9twox_hash10sixty_fourNtB5_8XxHash649total_len
librustc_driver-0b75ba01aeee6012.so:_RNvMs1_NtCsee4YmzppDub_9twox_hash10sixty_fourNtB5_8XxHash649with_seed
librustc_driver-0b75ba01aeee6012.so:_RNvMs1_NtCsee4YmzppDub_9twox_hash10thirty_twoNtB5_8XxHash3212total_len_64
librustc_driver-0b75ba01aeee6012.so:_RNvMs1_NtCsee4YmzppDub_9twox_hash10thirty_twoNtB5_8XxHash324seed
librustc_driver-0b75ba01aeee6012.so:_RNvMs1_NtCsee4YmzppDub_9twox_hash10thirty_twoNtB5_8XxHash329total_len
librustc_driver-0b75ba01aeee6012.so:_RNvMs1_NtCsee4YmzppDub_9twox_hash10thirty_twoNtB5_8XxHash329with_seed
librustc_driver-0b75ba01aeee6012.so:_RNvMs1_NtCserdW9TeaKDe_11rustc_infer6traitsNtB5_16FulfillmentError3new
librustc_driver-0b75ba01aeee6012.so:_RNvMs1_NtCsf8791Mi6qoe_12tracing_core4spanNtB5_6Record3len
librustc_driver-0b75ba01aeee6012.so:_RNvMs1_NtCsf8791Mi6qoe_12tracing_core4spanNtB5_6Record3new
librustc_driver-0b75ba01aeee6012.so:_RNvMs1_NtCsf8791Mi6qoe_12tracing_core4spanNtB5_6Record6record
librustc_driver-0b75ba01aeee6012.so:_RNvMs1_NtCsf8791Mi6qoe_12tracing_core4spanNtB5_6Record8contains
librustc_driver-0b75ba01aeee6012.so:_RNvMs1_NtCsf8791Mi6qoe_12tracing_core4spanNtB5_6Record8is_empty
librustc_driver-0b75ba01aeee6012.so:_RNvMs1_NtCsfoFF2VvnVQT_14rustc_metadata7creaderNtB5_6CStore14has_crate_data
librustc_driver-0b75ba01aeee6012.so:_RNvMs1_NtCsfoFF2VvnVQT_14rustc_metadata7creaderNtB5_6CStore18report_unused_deps
librustc_driver-0b75ba01aeee6012.so:_RNvMs1_NtCsfoFF2VvnVQT_14rustc_metadata7creaderNtB5_6CStore3new
librustc_driver-0b75ba01aeee6012.so:_RNvMs1_NtCsfoFF2VvnVQT_14rustc_metadata7creaderNtB5_6CStore8from_tcx
librustc_driver-0b75ba01aeee6012.so:_RNvMs1_NtCsgOwEnlkkb0y_16rustc_hir_typeck8coercionNtNtB7_7fn_ctxt6FnCtxt10can_coerce
librustc_driver-0b75ba01aeee6012.so:_RNvMs1_NtCsgOwEnlkkb0y_16rustc_hir_typeck8coercionNtNtB7_7fn_ctxt6FnCtxt10try_coerce
librustc_driver-0b75ba01aeee6012.so:_RNvMs1_NtCsgOwEnlkkb0y_16rustc_hir_typeck8coercionNtNtB7_7fn_ctxt6FnCtxt11deref_steps
librustc_driver-0b75ba01aeee6012.so:_RNvMs1_NtCsgOwEnlkkb0y_16rustc_hir_typeck8coercionNtNtB7_7fn_ctxt6FnCtxt33deref_once_mutably_for_diagnostic
librustc_driver-0b75ba01aeee6012.so:_RNvMs1_NtCsgOwEnlkkb0y_16rustc_hir_typeck9inheritedNtB5_9Inherited3new
librustc_driver-0b75ba01aeee6012.so:_RNvMs1_NtCsh1oXE7bm4Eb_10rustc_span10source_mapNtB5_15FilePathMapping27to_embeddable_absolute_path
librustc_driver-0b75ba01aeee6012.so:_RNvMs1_NtCsh1oXE7bm4Eb_10rustc_span10source_mapNtB5_15FilePathMapping3new
librustc_driver-0b75ba01aeee6012.so:_RNvMs1_NtCsh1oXE7bm4Eb_10rustc_span10source_mapNtB5_15FilePathMapping5empty
librustc_driver-0b75ba01aeee6012.so:_RNvMs1_NtCsh1oXE7bm4Eb_10rustc_span7hygieneNtB5_8ExpnHash3new
librustc_driver-0b75ba01aeee6012.so:_RNvMs1_NtCshn1YiuQfVU7_12rustc_target3asmNtB5_22InlineAsmRegOrRegClass9reg_class
librustc_driver-0b75ba01aeee6012.so:_RNvMs1_NtCsiEeU9cRUvPU_12rustc_expand6expandNtB5_13MacroExpander12expand_crate
librustc_driver-0b75ba01aeee6012.so:_RNvMs1_NtCsiEeU9cRUvPU_12rustc_expand6expandNtB5_13MacroExpander21fully_expand_fragment
librustc_driver-0b75ba01aeee6012.so:_RNvMs1_NtCsiEeU9cRUvPU_12rustc_expand6expandNtB5_13MacroExpander3new
librustc_driver-0b75ba01aeee6012.so:_RNvMs1_NtCsiyJNtbvviN4_15rustc_lint_defs7builtinNtB5_14HardwiredLints9get_lints
librustc_driver-0b75ba01aeee6012.so:_RNvMs1_NtCsjJMUtks5GNi_8icu_list8providerNtB5_28ConditionalListJoinerPattern9size_hint
librustc_driver-0b75ba01aeee6012.so:_RNvMs1_NtCsjUNssCUQA8T_10rustc_attr7builtinNtB5_14UnstableReason13to_opt_reason
librustc_driver-0b75ba01aeee6012.so:_RNvMs1_NtCsjwWoBr4mZn4_5regex4execNtB5_10ExecNoSync12shortest_nfa
librustc_driver-0b75ba01aeee6012.so:_RNvMs1_NtCsjwWoBr4mZn4_5regex4execNtB5_10ExecNoSync14match_nfa_type
librustc_driver-0b75ba01aeee6012.so:_RNvMs1_NtCsjwWoBr4mZn4_5regex4execNtB5_10ExecNoSync15many_matches_at
librustc_driver-0b75ba01aeee6012.so:_RNvMs1_NtCsjwWoBr4mZn4_5regex4execNtB5_10ExecNoSync16capture_name_idx
librustc_driver-0b75ba01aeee6012.so:_RNvMs1_NtCsjwWoBr4mZn4_5regex4execNtB5_10ExecNoSync17shortest_nfa_type
librustc_driver-0b75ba01aeee6012.so:_RNvMs1_NtCsjwWoBr4mZn4_5regex4execNtB5_10ExecNoSync8find_nfa
librustc_driver-0b75ba01aeee6012.so:_RNvMs1_NtCsjwWoBr4mZn4_5regex4execNtB5_10ExecNoSync9match_nfa
librustc_driver-0b75ba01aeee6012.so:_RNvMs1_NtCslNSrLHyiy2w_19rustc_mir_transform8simplifyNtB5_14SimplifyLocals3new
librustc_driver-0b75ba01aeee6012.so:_RNvMs1_NtCslkzSeYO0sIQ_11parking_lot9raw_mutexNtB5_8RawMutex11unlock_slow
librustc_driver-0b75ba01aeee6012.so:_RNvMs1_NtCslkzSeYO0sIQ_11parking_lot9raw_mutexNtB5_8RawMutex9bump_slow
librustc_driver-0b75ba01aeee6012.so:_RNvMs1_NtCslkzSeYO0sIQ_11parking_lot9raw_mutexNtB5_8RawMutex9lock_slow
librustc_driver-0b75ba01aeee6012.so:_RNvMs1_NtNtCs2ANZbKq4FAi_18tracing_subscriber3fmt6writerNtB5_10TestWriter3new
librustc_driver-0b75ba01aeee6012.so:_RNvMs1_NtNtCs3gJ41u96r5N_18rustc_codegen_llvm5llvm_10diagnosticNtB5_10Diagnostic6unpack
librustc_driver-0b75ba01aeee6012.so:_RNvMs1_NtNtCs3gJ41u96r5N_18rustc_codegen_llvm5llvm_3ffiNtB5_8TypeKind10to_generic
librustc_driver-0b75ba01aeee6012.so:_RNvMs1_NtNtCs5ESSSXQhO3H_12regex_syntax3ast5parseNtB5_6Parser19parse_with_comments
librustc_driver-0b75ba01aeee6012.so:_RNvMs1_NtNtCs5ESSSXQhO3H_12regex_syntax3ast5parseNtB5_6Parser3new
librustc_driver-0b75ba01aeee6012.so:_RNvMs1_NtNtCs5ESSSXQhO3H_12regex_syntax3ast5parseNtB5_6Parser5parse
librustc_driver-0b75ba01aeee6012.so:_RNvMs1_NtNtCs5ESSSXQhO3H_12regex_syntax3ast7visitorNtB5_11ClassInduct14from_bracketed
librustc_driver-0b75ba01aeee6012.so:_RNvMs1_NtNtCs6Xk4iZgn9ee_11miniz_oxide7inflate4coreNtB5_5State10is_failure
librustc_driver-0b75ba01aeee6012.so:_RNvMs1_NtNtCs7nHlYWzWSzq_11rustc_parse6parser11diagnosticsNtB5_25AttemptLocalParseRecovery2no
librustc_driver-0b75ba01aeee6012.so:_RNvMs1_NtNtCs7nHlYWzWSzq_11rustc_parse6parser11diagnosticsNtB5_25AttemptLocalParseRecovery3yes
librustc_driver-0b75ba01aeee6012.so:_RNvMs1_NtNtCs8lLsNL5HvpN_5gimli5write4lineNtB5_10LineString4form
librustc_driver-0b75ba01aeee6012.so:_RNvMs1_NtNtCs9UaAlnGT11v_12rustc_middle2ty3styNtB5_15GeneratorSubsts13parent_substs
librustc_driver-0b75ba01aeee6012.so:_RNvMs1_NtNtCs9UaAlnGT11v_12rustc_middle2ty3styNtB5_15GeneratorSubsts3new
librustc_driver-0b75ba01aeee6012.so:_RNvMs1_NtNtCs9UaAlnGT11v_12rustc_middle2ty3styNtB5_15GeneratorSubsts3sig
librustc_driver-0b75ba01aeee6012.so:_RNvMs1_NtNtCs9UaAlnGT11v_12rustc_middle2ty3styNtB5_15GeneratorSubsts5split
librustc_driver-0b75ba01aeee6012.so:_RNvMs1_NtNtCs9UaAlnGT11v_12rustc_middle2ty3styNtB5_15GeneratorSubsts7witness
librustc_driver-0b75ba01aeee6012.so:_RNvMs1_NtNtCs9UaAlnGT11v_12rustc_middle2ty3styNtB5_15GeneratorSubsts8is_valid
librustc_driver-0b75ba01aeee6012.so:_RNvMs1_NtNtCs9UaAlnGT11v_12rustc_middle2ty3styNtB5_15GeneratorSubsts8poly_sig
librustc_driver-0b75ba01aeee6012.so:_RNvMs1_NtNtCs9UaAlnGT11v_12rustc_middle2ty3styNtB5_15GeneratorSubsts8yield_ty
librustc_driver-0b75ba01aeee6012.so:_RNvMs1_NtNtCs9UaAlnGT11v_12rustc_middle2ty3styNtB5_15GeneratorSubsts9resume_ty
librustc_driver-0b75ba01aeee6012.so:_RNvMs1_NtNtCs9UaAlnGT11v_12rustc_middle2ty3styNtB5_15GeneratorSubsts9return_ty
librustc_driver-0b75ba01aeee6012.so:_RNvMs1_NtNtCs9UaAlnGT11v_12rustc_middle2ty4utilNtNtB7_7context6TyCtxt10is_closure
librustc_driver-0b75ba01aeee6012.so:_RNvMs1_NtNtCs9UaAlnGT11v_12rustc_middle2ty4utilNtNtB7_7context6TyCtxt12bound_fn_sig
librustc_driver-0b75ba01aeee6012.so:_RNvMs1_NtNtCs9UaAlnGT11v_12rustc_middle2ty4utilNtNtB7_7context6TyCtxt12type_id_hash
librustc_driver-0b75ba01aeee6012.so:_RNvMs1_NtNtCs9UaAlnGT11v_12rustc_middle2ty4utilNtNtB7_7context6TyCtxt13bound_type_of
librustc_driver-0b75ba01aeee6012.so:_RNvMs1_NtNtCs9UaAlnGT11v_12rustc_middle2ty4utilNtNtB7_7context6TyCtxt13static_ptr_ty
librustc_driver-0b75ba01aeee6012.so:_RNvMs1_NtNtCs9UaAlnGT11v_12rustc_middle2ty4utilNtNtB7_7context6TyCtxt14closure_env_ty
librustc_driver-0b75ba01aeee6012.so:_RNvMs1_NtNtCs9UaAlnGT11v_12rustc_middle2ty4utilNtNtB7_7context6TyCtxt14is_constructor
librustc_driver-0b75ba01aeee6012.so:_RNvMs1_NtNtCs9UaAlnGT11v_12rustc_middle2ty4utilNtNtB7_7context6TyCtxt14is_trait_alias
librustc_driver-0b75ba01aeee6012.so:_RNvMs1_NtNtCs9UaAlnGT11v_12rustc_middle2ty4utilNtNtB7_7context6TyCtxt15has_error_field
librustc_driver-0b75ba01aeee6012.so:_RNvMs1_NtNtCs9UaAlnGT11v_12rustc_middle2ty4utilNtNtB7_7context6TyCtxt15is_typeck_child
librustc_driver-0b75ba01aeee6012.so:_RNvMs1_NtNtCs9UaAlnGT11v_12rustc_middle2ty4utilNtNtB7_7context6TyCtxt18bound_impl_subject
librustc_driver-0b75ba01aeee6012.so:_RNvMs1_NtNtCs9UaAlnGT11v_12rustc_middle2ty4utilNtNtB7_7context6TyCtxt18typeck_root_def_id
librustc_driver-0b75ba01aeee6012.so:_RNvMs1_NtNtCs9UaAlnGT11v_12rustc_middle2ty4utilNtNtB7_7context6TyCtxt19res_generics_def_id
librustc_driver-0b75ba01aeee6012.so:_RNvMs1_NtNtCs9UaAlnGT11v_12rustc_middle2ty4utilNtNtB7_7context6TyCtxt22destructor_constraints
librustc_driver-0b75ba01aeee6012.so:_RNvMs1_NtNtCs9UaAlnGT11v_12rustc_middle2ty4utilNtNtB7_7context6TyCtxt22is_thread_local_static
librustc_driver-0b75ba01aeee6012.so:_RNvMs1_NtNtCs9UaAlnGT11v_12rustc_middle2ty4utilNtNtB7_7context6TyCtxt26bound_explicit_item_bounds
librustc_driver-0b75ba01aeee6012.so:_RNvMs1_NtNtCs9UaAlnGT11v_12rustc_middle2ty4utilNtNtB7_7context6TyCtxt26try_expand_impl_trait_type
librustc_driver-0b75ba01aeee6012.so:_RNvMs1_NtNtCs9UaAlnGT11v_12rustc_middle2ty4utilNtNtB7_7context6TyCtxt26uses_unique_generic_params
librustc_driver-0b75ba01aeee6012.so:_RNvMs1_NtNtCs9UaAlnGT11v_12rustc_middle2ty4utilNtNtB7_7context6TyCtxt29struct_tail_erasing_lifetimes
librustc_driver-0b75ba01aeee6012.so:_RNvMs1_NtNtCs9UaAlnGT11v_12rustc_middle2ty4utilNtNtB7_7context6TyCtxt33struct_tail_without_normalization
librustc_driver-0b75ba01aeee6012.so:_RNvMs1_NtNtCs9UaAlnGT11v_12rustc_middle2ty4utilNtNtB7_7context6TyCtxt38generator_layout_and_saved_local_names
librustc_driver-0b75ba01aeee6012.so:_RNvMs1_NtNtCs9UaAlnGT11v_12rustc_middle2ty4utilNtNtB7_7context6TyCtxt39struct_lockstep_tails_erasing_lifetimes
librustc_driver-0b75ba01aeee6012.so:_RNvMs1_NtNtCs9UaAlnGT11v_12rustc_middle2ty4utilNtNtB7_7context6TyCtxt41closure_saved_names_of_captured_variables
librustc_driver-0b75ba01aeee6012.so:_RNvMs1_NtNtCs9UaAlnGT11v_12rustc_middle2ty4utilNtNtB7_7context6TyCtxt45bound_return_position_impl_trait_in_trait_tys
librustc_driver-0b75ba01aeee6012.so:_RNvMs1_NtNtCs9UaAlnGT11v_12rustc_middle2ty4utilNtNtB7_7context6TyCtxt8is_trait
librustc_driver-0b75ba01aeee6012.so:_RNvMs1_NtNtCs9UaAlnGT11v_12rustc_middle2ty4walkNtB7_2Ty4walk
librustc_driver-0b75ba01aeee6012.so:_RNvMs1_NtNtCs9UaAlnGT11v_12rustc_middle2ty5assocNtB5_10AssocItems19in_definition_order
librustc_driver-0b75ba01aeee6012.so:_RNvMs1_NtNtCs9UaAlnGT11v_12rustc_middle2ty5assocNtB5_10AssocItems21find_by_name_and_kind
librustc_driver-0b75ba01aeee6012.so:_RNvMs1_NtNtCs9UaAlnGT11v_12rustc_middle2ty5assocNtB5_10AssocItems22find_by_name_and_kinds
librustc_driver-0b75ba01aeee6012.so:_RNvMs1_NtNtCs9UaAlnGT11v_12rustc_middle2ty5assocNtB5_10AssocItems25filter_by_name_unhygienic
librustc_driver-0b75ba01aeee6012.so:_RNvMs1_NtNtCs9UaAlnGT11v_12rustc_middle2ty5assocNtB5_10AssocItems26find_by_name_and_namespace
librustc_driver-0b75ba01aeee6012.so:_RNvMs1_NtNtCs9UaAlnGT11v_12rustc_middle2ty5assocNtB5_10AssocItems3len
librustc_driver-0b75ba01aeee6012.so:_RNvMs1_NtNtCs9UaAlnGT11v_12rustc_middle2ty5errorNtB5_9TypeError17must_include_note
librustc_driver-0b75ba01aeee6012.so:_RNvMs1_NtNtCs9UaAlnGT11v_12rustc_middle2ty7closureNtB5_10BorrowKind10from_mutbl
librustc_driver-0b75ba01aeee6012.so:_RNvMs1_NtNtCs9UaAlnGT11v_12rustc_middle2ty7closureNtB5_10BorrowKind14to_mutbl_lossy
librustc_driver-0b75ba01aeee6012.so:_RNvMs1_NtNtCs9UaAlnGT11v_12rustc_middle2ty8genericsNtB5_17GenericPredicates11instantiate
librustc_driver-0b75ba01aeee6012.so:_RNvMs1_NtNtCs9UaAlnGT11v_12rustc_middle2ty8genericsNtB5_17GenericPredicates15instantiate_own
librustc_driver-0b75ba01aeee6012.so:_RNvMs1_NtNtCs9UaAlnGT11v_12rustc_middle2ty8genericsNtB5_17GenericPredicates20instantiate_identity
librustc_driver-0b75ba01aeee6012.so:_RNvMs1_NtNtCs9UaAlnGT11v_12rustc_middle3mir10terminatorNtB5_10Terminator10successors
librustc_driver-0b75ba01aeee6012.so:_RNvMs1_NtNtCs9UaAlnGT11v_12rustc_middle3mir10terminatorNtB5_10Terminator10unwind_mut
librustc_driver-0b75ba01aeee6012.so:_RNvMs1_NtNtCs9UaAlnGT11v_12rustc_middle3mir10terminatorNtB5_10Terminator14successors_mut
librustc_driver-0b75ba01aeee6012.so:_RNvMs1_NtNtCs9UaAlnGT11v_12rustc_middle3mir10terminatorNtB5_10Terminator6unwind
librustc_driver-0b75ba01aeee6012.so:_RNvMs1_NtNtCs9UaAlnGT11v_12rustc_middle3mir5visitNtB5_12PlaceContext13is_address_of
librustc_driver-0b75ba01aeee6012.so:_RNvMs1_NtNtCs9UaAlnGT11v_12rustc_middle3mir5visitNtB5_12PlaceContext19is_place_assignment
librustc_driver-0b75ba01aeee6012.so:_RNvMs1_NtNtCs9UaAlnGT11v_12rustc_middle3mir5visitNtB5_12PlaceContext9is_borrow
librustc_driver-0b75ba01aeee6012.so:_RNvMs1_NtNtCs9UaAlnGT11v_12rustc_middle5infer9canonicalNtB5_16CanonicalVarInfo14is_existential
librustc_driver-0b75ba01aeee6012.so:_RNvMs1_NtNtCs9UaAlnGT11v_12rustc_middle5infer9canonicalNtB5_16CanonicalVarInfo8universe
librustc_driver-0b75ba01aeee6012.so:_RNvMs1_NtNtCs9xF1GXCZqXD_18rustc_mir_dataflow5impls16storage_livenessNtB5_20MaybeRequiresStorage3new
librustc_driver-0b75ba01aeee6012.so:_RNvMs1_NtNtCs9xF1GXCZqXD_18rustc_mir_dataflow9framework6engineNtB5_13RustcMirAttrs11output_path
librustc_driver-0b75ba01aeee6012.so:_RNvMs1_NtNtCs9xF1GXCZqXD_18rustc_mir_dataflow9framework6engineNtB5_13RustcMirAttrs5parse
librustc_driver-0b75ba01aeee6012.so:_RNvMs1_NtNtCsNX45m2jpYM_12aho_corasick6packed3apiNtB5_7Builder3new
librustc_driver-0b75ba01aeee6012.so:_RNvMs1_NtNtCsNX45m2jpYM_12aho_corasick6packed3apiNtB5_7Builder5build
librustc_driver-0b75ba01aeee6012.so:_RNvMs1_NtNtCsbzNEmrZraM0_18rustc_query_system9dep_graph8dep_nodeNtB5_13WorkProductId13from_cgu_name
librustc_driver-0b75ba01aeee6012.so:_RNvMs1_NtNtCserdW9TeaKDe_11rustc_infer5infer15error_reportingNtB5_11TypeErrCtxt13note_type_err
librustc_driver-0b75ba01aeee6012.so:_RNvMs1_NtNtCserdW9TeaKDe_11rustc_infer5infer15error_reportingNtB5_11TypeErrCtxt17is_try_conversion
librustc_driver-0b75ba01aeee6012.so:_RNvMs1_NtNtCserdW9TeaKDe_11rustc_infer5infer15error_reportingNtB5_11TypeErrCtxt20report_region_errors
librustc_driver-0b75ba01aeee6012.so:_RNvMs1_NtNtCserdW9TeaKDe_11rustc_infer5infer15error_reportingNtB5_11TypeErrCtxt22same_type_modulo_infer
librustc_driver-0b75ba01aeee6012.so:_RNvMs1_NtNtCserdW9TeaKDe_11rustc_infer5infer15error_reportingNtB5_11TypeErrCtxt28report_generic_bound_failure
librustc_driver-0b75ba01aeee6012.so:_RNvMs1_NtNtCserdW9TeaKDe_11rustc_infer5infer15error_reportingNtB5_11TypeErrCtxt29report_and_explain_type_error
librustc_driver-0b75ba01aeee6012.so:_RNvMs1_NtNtCserdW9TeaKDe_11rustc_infer5infer15error_reportingNtB5_11TypeErrCtxt31construct_generic_bound_failure
librustc_driver-0b75ba01aeee6012.so:_RNvMs1_NtNtCserdW9TeaKDe_11rustc_infer5infer15error_reportingNtB5_11TypeErrCtxt3cmp
librustc_driver-0b75ba01aeee6012.so:_RNvMs1_NtNtCserdW9TeaKDe_11rustc_infer5infer18region_constraintsNtB5_23RegionConstraintStorage3new
librustc_driver-0b75ba01aeee6012.so:_RNvMs1_NtNtCserdW9TeaKDe_11rustc_infer6traits7projectNtB5_15ProjectionCache11insert_term
librustc_driver-0b75ba01aeee6012.so:_RNvMs1_NtNtCserdW9TeaKDe_11rustc_infer6traits7projectNtB5_15ProjectionCache11is_complete
librustc_driver-0b75ba01aeee6012.so:_RNvMs1_NtNtCserdW9TeaKDe_11rustc_infer6traits7projectNtB5_15ProjectionCache5clear
librustc_driver-0b75ba01aeee6012.so:_RNvMs1_NtNtCserdW9TeaKDe_11rustc_infer6traits7projectNtB5_15ProjectionCache5error
librustc_driver-0b75ba01aeee6012.so:_RNvMs1_NtNtCserdW9TeaKDe_11rustc_infer6traits7projectNtB5_15ProjectionCache5recur
librustc_driver-0b75ba01aeee6012.so:_RNvMs1_NtNtCserdW9TeaKDe_11rustc_infer6traits7projectNtB5_15ProjectionCache8complete
librustc_driver-0b75ba01aeee6012.so:_RNvMs1_NtNtCserdW9TeaKDe_11rustc_infer6traits7projectNtB5_15ProjectionCache9ambiguous
librustc_driver-0b75ba01aeee6012.so:_RNvMs1_NtNtCserdW9TeaKDe_11rustc_infer6traits7projectNtB5_15ProjectionCache9try_start
librustc_driver-0b75ba01aeee6012.so:_RNvMs1_NtNtCsfCedNOdN1pK_17annotate_snippets12display_list7structsNtB5_6Margin3new
librustc_driver-0b75ba01aeee6012.so:_RNvMs1_NtNtCsgOwEnlkkb0y_16rustc_hir_typeck6method5probeNtB5_12ProbeContext19matches_return_type
librustc_driver-0b75ba01aeee6012.so:_RNvMs1_NtNtCsgOwEnlkkb0y_16rustc_hir_typeck6method5probeNtB5_12ProbeContext28assemble_inherent_candidates
librustc_driver-0b75ba01aeee6012.so:_RNvMs1_NtNtCsgOwEnlkkb0y_16rustc_hir_typeck6method5probeNtB5_12ProbeContext3new
librustc_driver-0b75ba01aeee6012.so:_RNvMs1_NtNtCsgOwEnlkkb0y_16rustc_hir_typeck6method5probeNtB5_12ProbeContext44assemble_extension_candidates_for_all_traits
librustc_driver-0b75ba01aeee6012.so:_RNvMs1_NtNtCsgOwEnlkkb0y_16rustc_hir_typeck6method5probeNtB5_12ProbeContext49assemble_extension_candidates_for_traits_in_scope
librustc_driver-0b75ba01aeee6012.so:_RNvMs1_NtNtCsgOwEnlkkb0y_16rustc_hir_typeck6method5probeNtB5_12ProbeContext4pick
librustc_driver-0b75ba01aeee6012.so:_RNvMs1_NtNtCsjwWoBr4mZn4_5regex7literal3impNtB5_13SingleByteSet5__find
librustc_driver-0b75ba01aeee6012.so:_RNvMs1_NtNtNtCs1Br764BqhVG_6object4read2pe6exportNtB5_11ExportTable10is_forward
librustc_driver-0b75ba01aeee6012.so:_RNvMs1_NtNtNtCs1Br764BqhVG_6object4read2pe6exportNtB5_11ExportTable12ordinal_base
librustc_driver-0b75ba01aeee6012.so:_RNvMs1_NtNtNtCs1Br764BqhVG_6object4read2pe6exportNtB5_11ExportTable13name_ordinals
librustc_driver-0b75ba01aeee6012.so:_RNvMs1_NtNtNtCs1Br764BqhVG_6object4read2pe6exportNtB5_11ExportTable13name_pointers
librustc_driver-0b75ba01aeee6012.so:_RNvMs1_NtNtNtCs1Br764BqhVG_6object4read2pe6exportNtB5_11ExportTable14forward_string
librustc_driver-0b75ba01aeee6012.so:_RNvMs1_NtNtNtCs1Br764BqhVG_6object4read2pe6exportNtB5_11ExportTable15parse_directory
librustc_driver-0b75ba01aeee6012.so:_RNvMs1_NtNtNtCs1Br764BqhVG_6object4read2pe6exportNtB5_11ExportTable15target_by_index
librustc_driver-0b75ba01aeee6012.so:_RNvMs1_NtNtNtCs1Br764BqhVG_6object4read2pe6exportNtB5_11ExportTable16address_by_index
librustc_driver-0b75ba01aeee6012.so:_RNvMs1_NtNtNtCs1Br764BqhVG_6object4read2pe6exportNtB5_11ExportTable17name_from_pointer
librustc_driver-0b75ba01aeee6012.so:_RNvMs1_NtNtNtCs1Br764BqhVG_6object4read2pe6exportNtB5_11ExportTable17target_by_ordinal
librustc_driver-0b75ba01aeee6012.so:_RNvMs1_NtNtNtCs1Br764BqhVG_6object4read2pe6exportNtB5_11ExportTable18address_by_ordinal
librustc_driver-0b75ba01aeee6012.so:_RNvMs1_NtNtNtCs1Br764BqhVG_6object4read2pe6exportNtB5_11ExportTable19target_from_address
librustc_driver-0b75ba01aeee6012.so:_RNvMs1_NtNtNtCs1Br764BqhVG_6object4read2pe6exportNtB5_11ExportTable5parse
librustc_driver-0b75ba01aeee6012.so:_RNvMs1_NtNtNtCs1Br764BqhVG_6object4read2pe6exportNtB5_11ExportTable7exports
librustc_driver-0b75ba01aeee6012.so:_RNvMs1_NtNtNtCs1Br764BqhVG_6object4read2pe6exportNtB5_11ExportTable9addresses
librustc_driver-0b75ba01aeee6012.so:_RNvMs1_NtNtNtCs1Br764BqhVG_6object4read2pe6exportNtB5_11ExportTable9directory
librustc_driver-0b75ba01aeee6012.so:_RNvMs1_NtNtNtCs1Br764BqhVG_6object4read2pe6exportNtB5_11ExportTable9name_iter
librustc_driver-0b75ba01aeee6012.so:_RNvMs1_NtNtNtCs1Br764BqhVG_6object4read2pe8resourceNtB5_26ResourceDirectoryEntryData4data
librustc_driver-0b75ba01aeee6012.so:_RNvMs1_NtNtNtCs1Br764BqhVG_6object4read2pe8resourceNtB5_26ResourceDirectoryEntryData5table
librustc_driver-0b75ba01aeee6012.so:_RNvMs1_NtNtNtCs1Br764BqhVG_6object4read4coff6symbolNtNtBb_2pe11ImageSymbol13is_definition
librustc_driver-0b75ba01aeee6012.so:_RNvMs1_NtNtNtCs1Br764BqhVG_6object4read4coff6symbolNtNtBb_2pe11ImageSymbol15has_aux_section
librustc_driver-0b75ba01aeee6012.so:_RNvMs1_NtNtNtCs1Br764BqhVG_6object4read4coff6symbolNtNtBb_2pe11ImageSymbol16has_aux_function
librustc_driver-0b75ba01aeee6012.so:_RNvMs1_NtNtNtCs1Br764BqhVG_6object4read4coff6symbolNtNtBb_2pe11ImageSymbol17has_aux_file_name
librustc_driver-0b75ba01aeee6012.so:_RNvMs1_NtNtNtCs1Br764BqhVG_6object4read4coff6symbolNtNtBb_2pe11ImageSymbol7address
librustc_driver-0b75ba01aeee6012.so:_RNvMs1_NtNtNtCs2zXTrlMMQY6_6object4read2pe6exportNtB5_11ExportTable10is_forward
librustc_driver-0b75ba01aeee6012.so:_RNvMs1_NtNtNtCs2zXTrlMMQY6_6object4read2pe6exportNtB5_11ExportTable12ordinal_base
librustc_driver-0b75ba01aeee6012.so:_RNvMs1_NtNtNtCs2zXTrlMMQY6_6object4read2pe6exportNtB5_11ExportTable13name_ordinals
librustc_driver-0b75ba01aeee6012.so:_RNvMs1_NtNtNtCs2zXTrlMMQY6_6object4read2pe6exportNtB5_11ExportTable13name_pointers
librustc_driver-0b75ba01aeee6012.so:_RNvMs1_NtNtNtCs2zXTrlMMQY6_6object4read2pe6exportNtB5_11ExportTable14forward_string
librustc_driver-0b75ba01aeee6012.so:_RNvMs1_NtNtNtCs2zXTrlMMQY6_6object4read2pe6exportNtB5_11ExportTable15parse_directory
librustc_driver-0b75ba01aeee6012.so:_RNvMs1_NtNtNtCs2zXTrlMMQY6_6object4read2pe6exportNtB5_11ExportTable15target_by_index
librustc_driver-0b75ba01aeee6012.so:_RNvMs1_NtNtNtCs2zXTrlMMQY6_6object4read2pe6exportNtB5_11ExportTable16address_by_index
librustc_driver-0b75ba01aeee6012.so:_RNvMs1_NtNtNtCs2zXTrlMMQY6_6object4read2pe6exportNtB5_11ExportTable17name_from_pointer
librustc_driver-0b75ba01aeee6012.so:_RNvMs1_NtNtNtCs2zXTrlMMQY6_6object4read2pe6exportNtB5_11ExportTable17target_by_ordinal
librustc_driver-0b75ba01aeee6012.so:_RNvMs1_NtNtNtCs2zXTrlMMQY6_6object4read2pe6exportNtB5_11ExportTable18address_by_ordinal
librustc_driver-0b75ba01aeee6012.so:_RNvMs1_NtNtNtCs2zXTrlMMQY6_6object4read2pe6exportNtB5_11ExportTable19target_from_address
librustc_driver-0b75ba01aeee6012.so:_RNvMs1_NtNtNtCs2zXTrlMMQY6_6object4read2pe6exportNtB5_11ExportTable5parse
librustc_driver-0b75ba01aeee6012.so:_RNvMs1_NtNtNtCs2zXTrlMMQY6_6object4read2pe6exportNtB5_11ExportTable7exports
librustc_driver-0b75ba01aeee6012.so:_RNvMs1_NtNtNtCs2zXTrlMMQY6_6object4read2pe6exportNtB5_11ExportTable9addresses
librustc_driver-0b75ba01aeee6012.so:_RNvMs1_NtNtNtCs2zXTrlMMQY6_6object4read2pe6exportNtB5_11ExportTable9directory
librustc_driver-0b75ba01aeee6012.so:_RNvMs1_NtNtNtCs2zXTrlMMQY6_6object4read2pe6exportNtB5_11ExportTable9name_iter
librustc_driver-0b75ba01aeee6012.so:_RNvMs1_NtNtNtCs2zXTrlMMQY6_6object4read2pe8resourceNtB5_26ResourceDirectoryEntryData4data
librustc_driver-0b75ba01aeee6012.so:_RNvMs1_NtNtNtCs2zXTrlMMQY6_6object4read2pe8resourceNtB5_26ResourceDirectoryEntryData5table
librustc_driver-0b75ba01aeee6012.so:_RNvMs1_NtNtNtCs2zXTrlMMQY6_6object4read4coff6symbolNtNtBb_2pe11ImageSymbol13is_definition
librustc_driver-0b75ba01aeee6012.so:_RNvMs1_NtNtNtCs2zXTrlMMQY6_6object4read4coff6symbolNtNtBb_2pe11ImageSymbol15has_aux_section
librustc_driver-0b75ba01aeee6012.so:_RNvMs1_NtNtNtCs2zXTrlMMQY6_6object4read4coff6symbolNtNtBb_2pe11ImageSymbol16has_aux_function
librustc_driver-0b75ba01aeee6012.so:_RNvMs1_NtNtNtCs2zXTrlMMQY6_6object4read4coff6symbolNtNtBb_2pe11ImageSymbol17has_aux_file_name
librustc_driver-0b75ba01aeee6012.so:_RNvMs1_NtNtNtCs2zXTrlMMQY6_6object4read4coff6symbolNtNtBb_2pe11ImageSymbol7address
librustc_driver-0b75ba01aeee6012.so:_RNvMs1_NtNtNtCs9UaAlnGT11v_12rustc_middle2ty5print6prettyNtB5_10FmtPrinter11into_buffer
librustc_driver-0b75ba01aeee6012.so:_RNvMs1_NtNtNtCs9UaAlnGT11v_12rustc_middle2ty5print6prettyNtB5_10FmtPrinter14new_with_limit
librustc_driver-0b75ba01aeee6012.so:_RNvMs1_NtNtNtCs9UaAlnGT11v_12rustc_middle2ty5print6prettyNtB5_10FmtPrinter3new
librustc_driver-0b75ba01aeee6012.so:_RNvMs1_NtNtNtCs9UaAlnGT11v_12rustc_middle3mir9interpret7queriesNtNtNtBb_2ty7context6TyCtxt24destructure_mir_constant
librustc_driver-0b75ba01aeee6012.so:_RNvMs1a_NtCs8lLsNL5HvpN_5gimli9constantsNtB6_4DwAt13static_string
librustc_driver-0b75ba01aeee6012.so:_RNvMs1a_NtCs9Yk5q5as75h_10rustc_lint7builtinNtB6_14DeprecatedAttr9get_lints
librustc_driver-0b75ba01aeee6012.so:_RNvMs1e_NtCs9Yk5q5as75h_10rustc_lint7builtinNtB6_20InvalidNoMangleItems9get_lints
librustc_driver-0b75ba01aeee6012.so:_RNvMs1e_NtCs9fJVnCDuQRQ_9rustc_hir3hirNtB6_4Node12tuple_fields
librustc_driver-0b75ba01aeee6012.so:_RNvMs1e_NtCs9fJVnCDuQRQ_9rustc_hir3hirNtB6_4Node5ident
librustc_driver-0b75ba01aeee6012.so:_RNvMs1e_NtCs9fJVnCDuQRQ_9rustc_hir3hirNtB6_4Node6fn_sig
librustc_driver-0b75ba01aeee6012.so:_RNvMs1e_NtCs9fJVnCDuQRQ_9rustc_hir3hirNtB6_4Node7body_id
librustc_driver-0b75ba01aeee6012.so:_RNvMs1e_NtCs9fJVnCDuQRQ_9rustc_hir3hirNtB6_4Node7fn_decl
librustc_driver-0b75ba01aeee6012.so:_RNvMs1e_NtCs9fJVnCDuQRQ_9rustc_hir3hirNtB6_4Node7fn_kind
librustc_driver-0b75ba01aeee6012.so:_RNvMs1e_NtCs9fJVnCDuQRQ_9rustc_hir3hirNtB6_4Node8as_owner
librustc_driver-0b75ba01aeee6012.so:_RNvMs1e_NtCs9fJVnCDuQRQ_9rustc_hir3hirNtB6_4Node8generics
librustc_driver-0b75ba01aeee6012.so:_RNvMs1i_NtCs9Yk5q5as75h_10rustc_lint7builtinNtB6_17MutableTransmutes9get_lints
librustc_driver-0b75ba01aeee6012.so:_RNvMs1m_NtCs8lLsNL5HvpN_5gimli9constantsNtB6_6DwForm13static_string
librustc_driver-0b75ba01aeee6012.so:_RNvMs1m_NtCs9Yk5q5as75h_10rustc_lint7builtinNtB6_16UnstableFeatures9get_lints
librustc_driver-0b75ba01aeee6012.so:_RNvMs1q_NtCs9Yk5q5as75h_10rustc_lint7builtinNtB6_25UngatedAsyncFnTrackCaller9get_lints
librustc_driver-0b75ba01aeee6012.so:_RNvMs1u_NtCs9Yk5q5as75h_10rustc_lint7builtinNtB6_14UnreachablePub9get_lints
librustc_driver-0b75ba01aeee6012.so:_RNvMs1y_NtCs8lLsNL5HvpN_5gimli9constantsNtB6_5DwAte13static_string
librustc_driver-0b75ba01aeee6012.so:_RNvMs1y_NtCs9Yk5q5as75h_10rustc_lint7builtinNtB6_15TypeAliasBounds9get_lints
librustc_driver-0b75ba01aeee6012.so:_RNvMs21_NtCs9Yk5q5as75h_10rustc_lint7builtinNtB6_18IncompleteFeatures9get_lints
librustc_driver-0b75ba01aeee6012.so:_RNvMs25_NtCs9Yk5q5as75h_10rustc_lint7builtinNtB6_12InvalidValue9get_lints
librustc_driver-0b75ba01aeee6012.so:_RNvMs27_NtCs9Yk5q5as75h_10rustc_lint7builtinNtB6_26ClashingExternDeclarations9get_lints
librustc_driver-0b75ba01aeee6012.so:_RNvMs28_NtCs8lLsNL5HvpN_5gimli9constantsNtB6_5DwEnd13static_string
librustc_driver-0b75ba01aeee6012.so:_RNvMs2I_NtCs8lLsNL5HvpN_5gimli9constantsNtB6_12DwVirtuality13static_string
librustc_driver-0b75ba01aeee6012.so:_RNvMs2U_NtCs8lLsNL5HvpN_5gimli9constantsNtB6_6DwLang13static_string
librustc_driver-0b75ba01aeee6012.so:_RNvMs2_Cs6eP2FAaHkoX_7getoptsNtB5_8OptGroup13long_to_short
librustc_driver-0b75ba01aeee6012.so:_RNvMs2_CsczMUV2s8Ncb_12rustc_errorsNtB5_7Handler10has_errors
librustc_driver-0b75ba01aeee6012.so:_RNvMs2_CsczMUV2s8Ncb_12rustc_errorsNtB5_7Handler10must_teach
librustc_driver-0b75ba01aeee6012.so:_RNvMs2_CsczMUV2s8Ncb_12rustc_errorsNtB5_7Handler12with_emitter
librustc_driver-0b75ba01aeee6012.so:_RNvMs2_CsczMUV2s8Ncb_12rustc_errorsNtB5_7Handler13flush_delayed
librustc_driver-0b75ba01aeee6012.so:_RNvMs2_CsczMUV2s8Ncb_12rustc_errorsNtB5_7Handler15abort_if_errors
librustc_driver-0b75ba01aeee6012.so:_RNvMs2_CsczMUV2s8Ncb_12rustc_errorsNtB5_7Handler15emit_diagnostic
librustc_driver-0b75ba01aeee6012.so:_RNvMs2_CsczMUV2s8Ncb_12rustc_errorsNtB5_7Handler15reset_err_count
librustc_driver-0b75ba01aeee6012.so:_RNvMs2_CsczMUV2s8Ncb_12rustc_errorsNtB5_7Handler16stash_diagnostic
librustc_driver-0b75ba01aeee6012.so:_RNvMs2_CsczMUV2s8Ncb_12rustc_errorsNtB5_7Handler16steal_diagnostic
librustc_driver-0b75ba01aeee6012.so:_RNvMs2_CsczMUV2s8Ncb_12rustc_errorsNtB5_7Handler16with_tty_emitter
librustc_driver-0b75ba01aeee6012.so:_RNvMs2_CsczMUV2s8Ncb_12rustc_errorsNtB5_7Handler17can_emit_warnings
librustc_driver-0b75ba01aeee6012.so:_RNvMs2_CsczMUV2s8Ncb_12rustc_errorsNtB5_7Handler17print_error_count
librustc_driver-0b75ba01aeee6012.so:_RNvMs2_CsczMUV2s8Ncb_12rustc_errorsNtB5_7Handler19emit_unused_externs
librustc_driver-0b75ba01aeee6012.so:_RNvMs2_CsczMUV2s8Ncb_12rustc_errorsNtB5_7Handler22force_print_diagnostic
librustc_driver-0b75ba01aeee6012.so:_RNvMs2_CsczMUV2s8Ncb_12rustc_errorsNtB5_7Handler22has_stashed_diagnostic
librustc_driver-0b75ba01aeee6012.so:_RNvMs2_CsczMUV2s8Ncb_12rustc_errorsNtB5_7Handler22with_emitter_and_flags
librustc_driver-0b75ba01aeee6012.so:_RNvMs2_CsczMUV2s8Ncb_12rustc_errorsNtB5_7Handler24emit_stashed_diagnostics
librustc_driver-0b75ba01aeee6012.so:_RNvMs2_CsczMUV2s8Ncb_12rustc_errorsNtB5_7Handler25has_errors_or_lint_errors
librustc_driver-0b75ba01aeee6012.so:_RNvMs2_CsczMUV2s8Ncb_12rustc_errorsNtB5_7Handler26emit_artifact_notification
librustc_driver-0b75ba01aeee6012.so:_RNvMs2_CsczMUV2s8Ncb_12rustc_errorsNtB5_7Handler26with_tty_emitter_and_flags
librustc_driver-0b75ba01aeee6012.so:_RNvMs2_CsczMUV2s8Ncb_12rustc_errorsNtB5_7Handler27emit_future_breakage_report
librustc_driver-0b75ba01aeee6012.so:_RNvMs2_CsczMUV2s8Ncb_12rustc_errorsNtB5_7Handler28is_compilation_going_to_fail
librustc_driver-0b75ba01aeee6012.so:_RNvMs2_CsczMUV2s8Ncb_12rustc_errorsNtB5_7Handler30update_unstable_expectation_id
librustc_driver-0b75ba01aeee6012.so:_RNvMs2_CsczMUV2s8Ncb_12rustc_errorsNtB5_7Handler31has_errors_or_delayed_span_bugs
librustc_driver-0b75ba01aeee6012.so:_RNvMs2_CsczMUV2s8Ncb_12rustc_errorsNtB5_7Handler31steal_fulfilled_expectation_ids
librustc_driver-0b75ba01aeee6012.so:_RNvMs2_CsczMUV2s8Ncb_12rustc_errorsNtB5_7Handler32take_future_breakage_diagnostics
librustc_driver-0b75ba01aeee6012.so:_RNvMs2_CsiyJNtbvviN4_15rustc_lint_defsNtB5_27FutureIncompatibilityReason7edition
librustc_driver-0b75ba01aeee6012.so:_RNvMs2_NtCs1Br764BqhVG_6object5writeNtB5_7Section10append_bss
librustc_driver-0b75ba01aeee6012.so:_RNvMs2_NtCs1Br764BqhVG_6object5writeNtB5_7Section11append_data
librustc_driver-0b75ba01aeee6012.so:_RNvMs2_NtCs1Br764BqhVG_6object5writeNtB5_7Section4data
librustc_driver-0b75ba01aeee6012.so:_RNvMs2_NtCs1Br764BqhVG_6object5writeNtB5_7Section8data_mut
librustc_driver-0b75ba01aeee6012.so:_RNvMs2_NtCs2ANZbKq4FAi_18tracing_subscriber5layerNtB5_8Identity3new
librustc_driver-0b75ba01aeee6012.so:_RNvMs2_NtCs2ANZbKq4FAi_18tracing_subscriber6reloadNtB5_5Error10is_dropped
librustc_driver-0b75ba01aeee6012.so:_RNvMs2_NtCs2ANZbKq4FAi_18tracing_subscriber6reloadNtB5_5Error11is_poisoned
librustc_driver-0b75ba01aeee6012.so:_RNvMs2_NtCs2ANZbKq4FAi_18tracing_subscriber6reloadNtB5_5Error8poisoned
librustc_driver-0b75ba01aeee6012.so:_RNvMs2_NtCs3Tcv2dxS6si_6flate23memNtB5_15DecompressError7message
librustc_driver-0b75ba01aeee6012.so:_RNvMs2_NtCs3gJ41u96r5N_18rustc_codegen_llvm5llvm_NtNtB5_3ffi13MemoryEffects11create_attr
librustc_driver-0b75ba01aeee6012.so:_RNvMs2_NtCs3gJ41u96r5N_18rustc_codegen_llvm5type_NvNtNtB7_5llvm_3ffi4Type7i8_llcx
librustc_driver-0b75ba01aeee6012.so:_RNvMs2_NtCs3gJ41u96r5N_18rustc_codegen_llvm5type_NvNtNtB7_5llvm_3ffi4Type7ix_llcx
librustc_driver-0b75ba01aeee6012.so:_RNvMs2_NtCs3gJ41u96r5N_18rustc_codegen_llvm5type_NvNtNtB7_5llvm_3ffi4Type8i8p_llcx
librustc_driver-0b75ba01aeee6012.so:_RNvMs2_NtCs8AvggvKXVYZ_6memchr6memmemNtB5_6Finder4find
librustc_driver-0b75ba01aeee6012.so:_RNvMs2_NtCs8lLsNL5HvpN_5gimli4archNtB5_3Arm13register_name
librustc_driver-0b75ba01aeee6012.so:_RNvMs2_NtCs8lLsNL5HvpN_5gimli4archNtB5_3Arm16name_to_register
librustc_driver-0b75ba01aeee6012.so:_RNvMs2_NtCs8lLsNL5HvpN_5gimli4readNtNtB7_6common8Register8from_u64
librustc_driver-0b75ba01aeee6012.so:_RNvMs2_NtCs8saYb8IjRm8_21rustc_data_structures9profilingNtB5_18VerboseTimingGuard5start
librustc_driver-0b75ba01aeee6012.so:_RNvMs2_NtCs8udwNclQ4om_16rustc_query_impl8plumbingNtB7_7Queries3new
librustc_driver-0b75ba01aeee6012.so:_RNvMs2_NtCs93julGFyfmy_10serde_json2deNtB5_12ParserNumber12invalid_type
librustc_driver-0b75ba01aeee6012.so:_RNvMs2_NtCs9IVbjQok2gJ_12icu_provider3keyNtB5_16FallbackPriority13const_default
librustc_driver-0b75ba01aeee6012.so:_RNvMs2_NtCs9KpYfezRtzb_9rustc_ast4attrNtNtB7_3ast8AttrItem4meta
librustc_driver-0b75ba01aeee6012.so:_RNvMs2_NtCs9KpYfezRtzb_9rustc_ast4attrNtNtB7_3ast8AttrItem4span
librustc_driver-0b75ba01aeee6012.so:_RNvMs2_NtCs9KpYfezRtzb_9rustc_ast4attrNtNtB7_3ast8AttrItem9meta_kind
librustc_driver-0b75ba01aeee6012.so:_RNvMs2_NtCs9KpYfezRtzb_9rustc_ast5tokenNtB5_5Token10is_keyword
librustc_driver-0b75ba01aeee6012.so:_RNvMs2_NtCs9KpYfezRtzb_9rustc_ast5tokenNtB5_5Token11is_bool_lit
librustc_driver-0b75ba01aeee6012.so:_RNvMs2_NtCs9KpYfezRtzb_9rustc_ast5tokenNtB5_5Token11is_lifetime
librustc_driver-0b75ba01aeee6012.so:_RNvMs2_NtCs9KpYfezRtzb_9rustc_ast5tokenNtB5_5Token12is_like_plus
librustc_driver-0b75ba01aeee6012.so:_RNvMs2_NtCs9KpYfezRtzb_9rustc_ast5tokenNtB5_5Token13is_mutability
librustc_driver-0b75ba01aeee6012.so:_RNvMs2_NtCs9KpYfezRtzb_9rustc_ast5tokenNtB5_5Token13is_path_start
librustc_driver-0b75ba01aeee6012.so:_RNvMs2_NtCs9KpYfezRtzb_9rustc_ast5tokenNtB5_5Token13is_whole_expr
librustc_driver-0b75ba01aeee6012.so:_RNvMs2_NtCs9KpYfezRtzb_9rustc_ast5tokenNtB5_5Token13uninterpolate
librustc_driver-0b75ba01aeee6012.so:_RNvMs2_NtCs9KpYfezRtzb_9rustc_ast5tokenNtB5_5Token14can_begin_expr
librustc_driver-0b75ba01aeee6012.so:_RNvMs2_NtCs9KpYfezRtzb_9rustc_ast5tokenNtB5_5Token14can_begin_item
librustc_driver-0b75ba01aeee6012.so:_RNvMs2_NtCs9KpYfezRtzb_9rustc_ast5tokenNtB5_5Token14can_begin_type
librustc_driver-0b75ba01aeee6012.so:_RNvMs2_NtCs9KpYfezRtzb_9rustc_ast5tokenNtB5_5Token14from_ast_ident
librustc_driver-0b75ba01aeee6012.so:_RNvMs2_NtCs9KpYfezRtzb_9rustc_ast5tokenNtB5_5Token14is_ident_named
librustc_driver-0b75ba01aeee6012.so:_RNvMs2_NtCs9KpYfezRtzb_9rustc_ast5tokenNtB5_5Token14is_numeric_lit
librustc_driver-0b75ba01aeee6012.so:_RNvMs2_NtCs9KpYfezRtzb_9rustc_ast5tokenNtB5_5Token14is_qpath_start
librustc_driver-0b75ba01aeee6012.so:_RNvMs2_NtCs9KpYfezRtzb_9rustc_ast5tokenNtB5_5Token14is_whole_block
librustc_driver-0b75ba01aeee6012.so:_RNvMs2_NtCs9KpYfezRtzb_9rustc_ast5tokenNtB5_5Token15can_begin_bound
librustc_driver-0b75ba01aeee6012.so:_RNvMs2_NtCs9KpYfezRtzb_9rustc_ast5tokenNtB5_5Token15is_keyword_case
librustc_driver-0b75ba01aeee6012.so:_RNvMs2_NtCs9KpYfezRtzb_9rustc_ast5tokenNtB5_5Token15is_used_keyword
librustc_driver-0b75ba01aeee6012.so:_RNvMs2_NtCs9KpYfezRtzb_9rustc_ast5tokenNtB5_5Token16is_special_ident
librustc_driver-0b75ba01aeee6012.so:_RNvMs2_NtCs9KpYfezRtzb_9rustc_ast5tokenNtB5_5Token17can_begin_pattern
librustc_driver-0b75ba01aeee6012.so:_RNvMs2_NtCs9KpYfezRtzb_9rustc_ast5tokenNtB5_5Token17is_reserved_ident
librustc_driver-0b75ba01aeee6012.so:_RNvMs2_NtCs9KpYfezRtzb_9rustc_ast5tokenNtB5_5Token17is_unused_keyword
librustc_driver-0b75ba01aeee6012.so:_RNvMs2_NtCs9KpYfezRtzb_9rustc_ast5tokenNtB5_5Token18is_range_separator
librustc_driver-0b75ba01aeee6012.so:_RNvMs2_NtCs9KpYfezRtzb_9rustc_ast5tokenNtB5_5Token19can_begin_const_arg
librustc_driver-0b75ba01aeee6012.so:_RNvMs2_NtCs9KpYfezRtzb_9rustc_ast5tokenNtB5_5Token19uninterpolated_span
librustc_driver-0b75ba01aeee6012.so:_RNvMs2_NtCs9KpYfezRtzb_9rustc_ast5tokenNtB5_5Token23is_path_segment_keyword
librustc_driver-0b75ba01aeee6012.so:_RNvMs2_NtCs9KpYfezRtzb_9rustc_ast5tokenNtB5_5Token29can_begin_literal_maybe_minus
librustc_driver-0b75ba01aeee6012.so:_RNvMs2_NtCs9KpYfezRtzb_9rustc_ast5tokenNtB5_5Token3new
librustc_driver-0b75ba01aeee6012.so:_RNvMs2_NtCs9KpYfezRtzb_9rustc_ast5tokenNtB5_5Token4glue
librustc_driver-0b75ba01aeee6012.so:_RNvMs2_NtCs9KpYfezRtzb_9rustc_ast5tokenNtB5_5Token5dummy
librustc_driver-0b75ba01aeee6012.so:_RNvMs2_NtCs9KpYfezRtzb_9rustc_ast5tokenNtB5_5Token5is_op
librustc_driver-0b75ba01aeee6012.so:_RNvMs2_NtCs9KpYfezRtzb_9rustc_ast5tokenNtB5_5Token6is_lit
librustc_driver-0b75ba01aeee6012.so:_RNvMs2_NtCs9KpYfezRtzb_9rustc_ast5tokenNtB5_5Token8is_ident
librustc_driver-0b75ba01aeee6012.so:_RNvMs2_NtCs9UaAlnGT11v_12rustc_middle3mirNtNtB5_6syntax12RuntimePhase5parse
librustc_driver-0b75ba01aeee6012.so:_RNvMs2_NtCs9fJVnCDuQRQ_9rustc_hir10lang_itemsNtB5_13LanguageItems10copy_trait
librustc_driver-0b75ba01aeee6012.so:_RNvMs2_NtCs9fJVnCDuQRQ_9rustc_hir10lang_itemsNtB5_13LanguageItems10drop_trait
librustc_driver-0b75ba01aeee6012.so:_RNvMs2_NtCs9fJVnCDuQRQ_9rustc_hir10lang_itemsNtB5_13LanguageItems10panic_impl
librustc_driver-0b75ba01aeee6012.so:_RNvMs2_NtCs9fJVnCDuQRQ_9rustc_hir10lang_itemsNtB5_13LanguageItems10panic_info
librustc_driver-0b75ba01aeee6012.so:_RNvMs2_NtCs9fJVnCDuQRQ_9rustc_hir10lang_itemsNtB5_13LanguageItems10sync_trait
librustc_driver-0b75ba01aeee6012.so:_RNvMs2_NtCs9fJVnCDuQRQ_9rustc_hir10lang_itemsNtB5_13LanguageItems11bitor_trait
librustc_driver-0b75ba01aeee6012.so:_RNvMs2_NtCs9fJVnCDuQRQ_9rustc_hir10lang_itemsNtB5_13LanguageItems11box_free_fn
librustc_driver-0b75ba01aeee6012.so:_RNvMs2_NtCs9fJVnCDuQRQ_9rustc_hir10lang_itemsNtB5_13LanguageItems11clone_trait
librustc_driver-0b75ba01aeee6012.so:_RNvMs2_NtCs9fJVnCDuQRQ_9rustc_hir10lang_itemsNtB5_13LanguageItems11deref_trait
librustc_driver-0b75ba01aeee6012.so:_RNvMs2_NtCs9fJVnCDuQRQ_9rustc_hir10lang_itemsNtB5_13LanguageItems11index_trait
librustc_driver-0b75ba01aeee6012.so:_RNvMs2_NtCs9fJVnCDuQRQ_9rustc_hir10lang_itemsNtB5_13LanguageItems11sized_trait
librustc_driver-0b75ba01aeee6012.so:_RNvMs2_NtCs9fJVnCDuQRQ_9rustc_hir10lang_itemsNtB5_13LanguageItems11termination
librustc_driver-0b75ba01aeee6012.so:_RNvMs2_NtCs9fJVnCDuQRQ_9rustc_hir10lang_itemsNtB5_13LanguageItems11tuple_trait
librustc_driver-0b75ba01aeee6012.so:_RNvMs2_NtCs9fJVnCDuQRQ_9rustc_hir10lang_itemsNtB5_13LanguageItems11unpin_trait
librustc_driver-0b75ba01aeee6012.so:_RNvMs2_NtCs9fJVnCDuQRQ_9rustc_hir10lang_itemsNtB5_13LanguageItems12alloc_layout
librustc_driver-0b75ba01aeee6012.so:_RNvMs2_NtCs9fJVnCDuQRQ_9rustc_hir10lang_itemsNtB5_13LanguageItems12bitand_trait
librustc_driver-0b75ba01aeee6012.so:_RNvMs2_NtCs9fJVnCDuQRQ_9rustc_hir10lang_itemsNtB5_13LanguageItems12bitxor_trait
librustc_driver-0b75ba01aeee6012.so:_RNvMs2_NtCs9fJVnCDuQRQ_9rustc_hir10lang_itemsNtB5_13LanguageItems12deref_target
librustc_driver-0b75ba01aeee6012.so:_RNvMs2_NtCs9fJVnCDuQRQ_9rustc_hir10lang_itemsNtB5_13LanguageItems12dyn_metadata
librustc_driver-0b75ba01aeee6012.so:_RNvMs2_NtCs9fJVnCDuQRQ_9rustc_hir10lang_itemsNtB5_13LanguageItems12fn_mut_trait
librustc_driver-0b75ba01aeee6012.so:_RNvMs2_NtCs9fJVnCDuQRQ_9rustc_hir10lang_itemsNtB5_13LanguageItems12freeze_trait
librustc_driver-0b75ba01aeee6012.so:_RNvMs2_NtCs9fJVnCDuQRQ_9rustc_hir10lang_itemsNtB5_13LanguageItems12from_yeet_fn
librustc_driver-0b75ba01aeee6012.so:_RNvMs2_NtCs9fJVnCDuQRQ_9rustc_hir10lang_itemsNtB5_13LanguageItems12future_trait
librustc_driver-0b75ba01aeee6012.so:_RNvMs2_NtCs9fJVnCDuQRQ_9rustc_hir10lang_itemsNtB5_13LanguageItems12into_iter_fn
librustc_driver-0b75ba01aeee6012.so:_RNvMs2_NtCs9fJVnCDuQRQ_9rustc_hir10lang_itemsNtB5_13LanguageItems12maybe_uninit
librustc_driver-0b75ba01aeee6012.so:_RNvMs2_NtCs9fJVnCDuQRQ_9rustc_hir10lang_itemsNtB5_13LanguageItems12phantom_data
librustc_driver-0b75ba01aeee6012.so:_RNvMs2_NtCs9fJVnCDuQRQ_9rustc_hir10lang_itemsNtB5_13LanguageItems12range_struct
librustc_driver-0b75ba01aeee6012.so:_RNvMs2_NtCs9fJVnCDuQRQ_9rustc_hir10lang_itemsNtB5_13LanguageItems12slice_len_fn
librustc_driver-0b75ba01aeee6012.so:_RNvMs2_NtCs9fJVnCDuQRQ_9rustc_hir10lang_itemsNtB5_13LanguageItems12unsize_trait
librustc_driver-0b75ba01aeee6012.so:_RNvMs2_NtCs9fJVnCDuQRQ_9rustc_hir10lang_itemsNtB5_13LanguageItems13fn_once_trait
librustc_driver-0b75ba01aeee6012.so:_RNvMs2_NtCs9fJVnCDuQRQ_9rustc_hir10lang_itemsNtB5_13LanguageItems13manually_drop
librustc_driver-0b75ba01aeee6012.so:_RNvMs2_NtCs9fJVnCDuQRQ_9rustc_hir10lang_itemsNtB5_13LanguageItems13metadata_type
librustc_driver-0b75ba01aeee6012.so:_RNvMs2_NtCs9fJVnCDuQRQ_9rustc_hir10lang_itemsNtB5_13LanguageItems13panic_display
librustc_driver-0b75ba01aeee6012.so:_RNvMs2_NtCs9fJVnCDuQRQ_9rustc_hir10lang_itemsNtB5_13LanguageItems13pointee_trait
librustc_driver-0b75ba01aeee6012.so:_RNvMs2_NtCs9fJVnCDuQRQ_9rustc_hir10lang_itemsNtB5_13LanguageItems13pointer_sized
librustc_driver-0b75ba01aeee6012.so:_RNvMs2_NtCs9fJVnCDuQRQ_9rustc_hir10lang_itemsNtB5_13LanguageItems14begin_panic_fn
librustc_driver-0b75ba01aeee6012.so:_RNvMs2_NtCs9fJVnCDuQRQ_9rustc_hir10lang_itemsNtB5_13LanguageItems14destruct_trait
librustc_driver-0b75ba01aeee6012.so:_RNvMs2_NtCs9fJVnCDuQRQ_9rustc_hir10lang_itemsNtB5_13LanguageItems14eh_personality
librustc_driver-0b75ba01aeee6012.so:_RNvMs2_NtCs9fJVnCDuQRQ_9rustc_hir10lang_itemsNtB5_13LanguageItems14fn_once_output
librustc_driver-0b75ba01aeee6012.so:_RNvMs2_NtCs9fJVnCDuQRQ_9rustc_hir10lang_itemsNtB5_13LanguageItems14from_output_fn
librustc_driver-0b75ba01aeee6012.so:_RNvMs2_NtCs9fJVnCDuQRQ_9rustc_hir10lang_itemsNtB5_13LanguageItems14future_poll_fn
librustc_driver-0b75ba01aeee6012.so:_RNvMs2_NtCs9fJVnCDuQRQ_9rustc_hir10lang_itemsNtB5_13LanguageItems14get_context_fn
librustc_driver-0b75ba01aeee6012.so:_RNvMs2_NtCs9fJVnCDuQRQ_9rustc_hir10lang_itemsNtB5_13LanguageItems14into_future_fn
librustc_driver-0b75ba01aeee6012.so:_RNvMs2_NtCs9fJVnCDuQRQ_9rustc_hir10lang_itemsNtB5_13LanguageItems14panic_location
librustc_driver-0b75ba01aeee6012.so:_RNvMs2_NtCs9fJVnCDuQRQ_9rustc_hir10lang_itemsNtB5_13LanguageItems14panic_nounwind
librustc_driver-0b75ba01aeee6012.so:_RNvMs2_NtCs9fJVnCDuQRQ_9rustc_hir10lang_itemsNtB5_13LanguageItems14receiver_trait
librustc_driver-0b75ba01aeee6012.so:_RNvMs2_NtCs9fJVnCDuQRQ_9rustc_hir10lang_itemsNtB5_13LanguageItems14transmute_opts
librustc_driver-0b75ba01aeee6012.so:_RNvMs2_NtCs9fJVnCDuQRQ_9rustc_hir10lang_itemsNtB5_13LanguageItems15align_offset_fn
librustc_driver-0b75ba01aeee6012.so:_RNvMs2_NtCs9fJVnCDuQRQ_9rustc_hir10lang_itemsNtB5_13LanguageItems15const_panic_fmt
librustc_driver-0b75ba01aeee6012.so:_RNvMs2_NtCs9fJVnCDuQRQ_9rustc_hir10lang_itemsNtB5_13LanguageItems15deref_mut_trait
librustc_driver-0b75ba01aeee6012.so:_RNvMs2_NtCs9fJVnCDuQRQ_9rustc_hir10lang_itemsNtB5_13LanguageItems15index_mut_trait
librustc_driver-0b75ba01aeee6012.so:_RNvMs2_NtCs9fJVnCDuQRQ_9rustc_hir10lang_itemsNtB5_13LanguageItems15range_to_struct
librustc_driver-0b75ba01aeee6012.so:_RNvMs2_NtCs9fJVnCDuQRQ_9rustc_hir10lang_itemsNtB5_13LanguageItems15transmute_trait
librustc_driver-0b75ba01aeee6012.so:_RNvMs2_NtCs9fJVnCDuQRQ_9rustc_hir10lang_itemsNtB5_13LanguageItems16add_assign_trait
librustc_driver-0b75ba01aeee6012.so:_RNvMs2_NtCs9fJVnCDuQRQ_9rustc_hir10lang_itemsNtB5_13LanguageItems16cf_break_variant
librustc_driver-0b75ba01aeee6012.so:_RNvMs2_NtCs9fJVnCDuQRQ_9rustc_hir10lang_itemsNtB5_13LanguageItems16div_assign_trait
librustc_driver-0b75ba01aeee6012.so:_RNvMs2_NtCs9fJVnCDuQRQ_9rustc_hir10lang_itemsNtB5_13LanguageItems16drop_in_place_fn
librustc_driver-0b75ba01aeee6012.so:_RNvMs2_NtCs9fJVnCDuQRQ_9rustc_hir10lang_itemsNtB5_13LanguageItems16from_residual_fn
librustc_driver-0b75ba01aeee6012.so:_RNvMs2_NtCs9fJVnCDuQRQ_9rustc_hir10lang_itemsNtB5_13LanguageItems16mul_assign_trait
librustc_driver-0b75ba01aeee6012.so:_RNvMs2_NtCs9fJVnCDuQRQ_9rustc_hir10lang_itemsNtB5_13LanguageItems16new_unchecked_fn
librustc_driver-0b75ba01aeee6012.so:_RNvMs2_NtCs9fJVnCDuQRQ_9rustc_hir10lang_itemsNtB5_13LanguageItems16rem_assign_trait
librustc_driver-0b75ba01aeee6012.so:_RNvMs2_NtCs9fJVnCDuQRQ_9rustc_hir10lang_itemsNtB5_13LanguageItems16shl_assign_trait
librustc_driver-0b75ba01aeee6012.so:_RNvMs2_NtCs9fJVnCDuQRQ_9rustc_hir10lang_itemsNtB5_13LanguageItems16shr_assign_trait
librustc_driver-0b75ba01aeee6012.so:_RNvMs2_NtCs9fJVnCDuQRQ_9rustc_hir10lang_itemsNtB5_13LanguageItems16sub_assign_trait
librustc_driver-0b75ba01aeee6012.so:_RNvMs2_NtCs9fJVnCDuQRQ_9rustc_hir10lang_itemsNtB5_13LanguageItems16unsafe_cell_type
librustc_driver-0b75ba01aeee6012.so:_RNvMs2_NtCs9fJVnCDuQRQ_9rustc_hir10lang_itemsNtB5_13LanguageItems17discriminant_type
librustc_driver-0b75ba01aeee6012.so:_RNvMs2_NtCs9fJVnCDuQRQ_9rustc_hir10lang_itemsNtB5_13LanguageItems17eh_catch_typeinfo
librustc_driver-0b75ba01aeee6012.so:_RNvMs2_NtCs9fJVnCDuQRQ_9rustc_hir10lang_itemsNtB5_13LanguageItems17partial_ord_trait
librustc_driver-0b75ba01aeee6012.so:_RNvMs2_NtCs9fJVnCDuQRQ_9rustc_hir10lang_itemsNtB5_13LanguageItems17range_from_struct
librustc_driver-0b75ba01aeee6012.so:_RNvMs2_NtCs9fJVnCDuQRQ_9rustc_hir10lang_itemsNtB5_13LanguageItems17range_full_struct
librustc_driver-0b75ba01aeee6012.so:_RNvMs2_NtCs9fJVnCDuQRQ_9rustc_hir10lang_itemsNtB5_13LanguageItems17result_ok_variant
librustc_driver-0b75ba01aeee6012.so:_RNvMs2_NtCs9fJVnCDuQRQ_9rustc_hir10lang_itemsNtB5_13LanguageItems18bitor_assign_trait
librustc_driver-0b75ba01aeee6012.so:_RNvMs2_NtCs9fJVnCDuQRQ_9rustc_hir10lang_itemsNtB5_13LanguageItems18exchange_malloc_fn
librustc_driver-0b75ba01aeee6012.so:_RNvMs2_NtCs9fJVnCDuQRQ_9rustc_hir10lang_itemsNtB5_13LanguageItems18identity_future_fn
librustc_driver-0b75ba01aeee6012.so:_RNvMs2_NtCs9fJVnCDuQRQ_9rustc_hir10lang_itemsNtB5_13LanguageItems18poll_ready_variant
librustc_driver-0b75ba01aeee6012.so:_RNvMs2_NtCs9fJVnCDuQRQ_9rustc_hir10lang_itemsNtB5_13LanguageItems18result_err_variant
librustc_driver-0b75ba01aeee6012.so:_RNvMs2_NtCs9fJVnCDuQRQ_9rustc_hir10lang_itemsNtB5_13LanguageItems19bitand_assign_trait
librustc_driver-0b75ba01aeee6012.so:_RNvMs2_NtCs9fJVnCDuQRQ_9rustc_hir10lang_itemsNtB5_13LanguageItems19bitxor_assign_trait
librustc_driver-0b75ba01aeee6012.so:_RNvMs2_NtCs9fJVnCDuQRQ_9rustc_hir10lang_itemsNtB5_13LanguageItems19cf_continue_variant
librustc_driver-0b75ba01aeee6012.so:_RNvMs2_NtCs9fJVnCDuQRQ_9rustc_hir10lang_itemsNtB5_13LanguageItems19option_none_variant
librustc_driver-0b75ba01aeee6012.so:_RNvMs2_NtCs9fJVnCDuQRQ_9rustc_hir10lang_itemsNtB5_13LanguageItems19option_some_variant
librustc_driver-0b75ba01aeee6012.so:_RNvMs2_NtCs9fJVnCDuQRQ_9rustc_hir10lang_itemsNtB5_13LanguageItems19panic_cannot_unwind
librustc_driver-0b75ba01aeee6012.so:_RNvMs2_NtCs9fJVnCDuQRQ_9rustc_hir10lang_itemsNtB5_13LanguageItems20coerce_unsized_trait
librustc_driver-0b75ba01aeee6012.so:_RNvMs2_NtCs9fJVnCDuQRQ_9rustc_hir10lang_itemsNtB5_13LanguageItems20poll_pending_variant
librustc_driver-0b75ba01aeee6012.so:_RNvMs2_NtCs9fJVnCDuQRQ_9rustc_hir10lang_itemsNtB5_13LanguageItems20structural_peq_trait
librustc_driver-0b75ba01aeee6012.so:_RNvMs2_NtCs9fJVnCDuQRQ_9rustc_hir10lang_itemsNtB5_13LanguageItems20structural_teq_trait
librustc_driver-0b75ba01aeee6012.so:_RNvMs2_NtCs9fJVnCDuQRQ_9rustc_hir10lang_itemsNtB5_13LanguageItems21panic_bounds_check_fn
librustc_driver-0b75ba01aeee6012.so:_RNvMs2_NtCs9fJVnCDuQRQ_9rustc_hir10lang_itemsNtB5_13LanguageItems22range_inclusive_struct
librustc_driver-0b75ba01aeee6012.so:_RNvMs2_NtCs9fJVnCDuQRQ_9rustc_hir10lang_itemsNtB5_13LanguageItems23discriminant_kind_trait
librustc_driver-0b75ba01aeee6012.so:_RNvMs2_NtCs9fJVnCDuQRQ_9rustc_hir10lang_itemsNtB5_13LanguageItems23dispatch_from_dyn_trait
librustc_driver-0b75ba01aeee6012.so:_RNvMs2_NtCs9fJVnCDuQRQ_9rustc_hir10lang_itemsNtB5_13LanguageItems25range_to_inclusive_struct
librustc_driver-0b75ba01aeee6012.so:_RNvMs2_NtCs9fJVnCDuQRQ_9rustc_hir10lang_itemsNtB5_13LanguageItems26range_inclusive_new_method
librustc_driver-0b75ba01aeee6012.so:_RNvMs2_NtCs9fJVnCDuQRQ_9rustc_hir10lang_itemsNtB5_13LanguageItems4poll
librustc_driver-0b75ba01aeee6012.so:_RNvMs2_NtCs9fJVnCDuQRQ_9rustc_hir10lang_itemsNtB5_13LanguageItems6string
librustc_driver-0b75ba01aeee6012.so:_RNvMs2_NtCs9fJVnCDuQRQ_9rustc_hir10lang_itemsNtB5_13LanguageItems7context
librustc_driver-0b75ba01aeee6012.so:_RNvMs2_NtCs9fJVnCDuQRQ_9rustc_hir10lang_itemsNtB5_13LanguageItems7from_fn
librustc_driver-0b75ba01aeee6012.so:_RNvMs2_NtCs9fJVnCDuQRQ_9rustc_hir10lang_itemsNtB5_13LanguageItems7next_fn
librustc_driver-0b75ba01aeee6012.so:_RNvMs2_NtCs9fJVnCDuQRQ_9rustc_hir10lang_itemsNtB5_13LanguageItems7va_list
librustc_driver-0b75ba01aeee6012.so:_RNvMs2_NtCs9fJVnCDuQRQ_9rustc_hir10lang_itemsNtB5_13LanguageItems8eq_trait
librustc_driver-0b75ba01aeee6012.so:_RNvMs2_NtCs9fJVnCDuQRQ_9rustc_hir10lang_itemsNtB5_13LanguageItems8fn_trait
librustc_driver-0b75ba01aeee6012.so:_RNvMs2_NtCs9fJVnCDuQRQ_9rustc_hir10lang_itemsNtB5_13LanguageItems8panic_fn
librustc_driver-0b75ba01aeee6012.so:_RNvMs2_NtCs9fJVnCDuQRQ_9rustc_hir10lang_itemsNtB5_13LanguageItems8pin_type
librustc_driver-0b75ba01aeee6012.so:_RNvMs2_NtCs9fJVnCDuQRQ_9rustc_hir10lang_itemsNtB5_13LanguageItems8start_fn
librustc_driver-0b75ba01aeee6012.so:_RNvMs2_NtCs9fJVnCDuQRQ_9rustc_hir10lang_itemsNtB5_13LanguageItems9add_trait
librustc_driver-0b75ba01aeee6012.so:_RNvMs2_NtCs9fJVnCDuQRQ_9rustc_hir10lang_itemsNtB5_13LanguageItems9branch_fn
librustc_driver-0b75ba01aeee6012.so:_RNvMs2_NtCs9fJVnCDuQRQ_9rustc_hir10lang_itemsNtB5_13LanguageItems9div_trait
librustc_driver-0b75ba01aeee6012.so:_RNvMs2_NtCs9fJVnCDuQRQ_9rustc_hir10lang_itemsNtB5_13LanguageItems9gen_state
librustc_driver-0b75ba01aeee6012.so:_RNvMs2_NtCs9fJVnCDuQRQ_9rustc_hir10lang_itemsNtB5_13LanguageItems9gen_trait
librustc_driver-0b75ba01aeee6012.so:_RNvMs2_NtCs9fJVnCDuQRQ_9rustc_hir10lang_itemsNtB5_13LanguageItems9mul_trait
librustc_driver-0b75ba01aeee6012.so:_RNvMs2_NtCs9fJVnCDuQRQ_9rustc_hir10lang_itemsNtB5_13LanguageItems9neg_trait
librustc_driver-0b75ba01aeee6012.so:_RNvMs2_NtCs9fJVnCDuQRQ_9rustc_hir10lang_itemsNtB5_13LanguageItems9not_trait
librustc_driver-0b75ba01aeee6012.so:_RNvMs2_NtCs9fJVnCDuQRQ_9rustc_hir10lang_itemsNtB5_13LanguageItems9owned_box
librustc_driver-0b75ba01aeee6012.so:_RNvMs2_NtCs9fJVnCDuQRQ_9rustc_hir10lang_itemsNtB5_13LanguageItems9panic_fmt
librustc_driver-0b75ba01aeee6012.so:_RNvMs2_NtCs9fJVnCDuQRQ_9rustc_hir10lang_itemsNtB5_13LanguageItems9rem_trait
librustc_driver-0b75ba01aeee6012.so:_RNvMs2_NtCs9fJVnCDuQRQ_9rustc_hir10lang_itemsNtB5_13LanguageItems9resume_ty
librustc_driver-0b75ba01aeee6012.so:_RNvMs2_NtCs9fJVnCDuQRQ_9rustc_hir10lang_itemsNtB5_13LanguageItems9shl_trait
librustc_driver-0b75ba01aeee6012.so:_RNvMs2_NtCs9fJVnCDuQRQ_9rustc_hir10lang_itemsNtB5_13LanguageItems9shr_trait
librustc_driver-0b75ba01aeee6012.so:_RNvMs2_NtCs9fJVnCDuQRQ_9rustc_hir10lang_itemsNtB5_13LanguageItems9sub_trait
librustc_driver-0b75ba01aeee6012.so:_RNvMs2_NtCs9fJVnCDuQRQ_9rustc_hir10lang_itemsNtB5_13LanguageItems9try_trait
librustc_driver-0b75ba01aeee6012.so:_RNvMs2_NtCs9fJVnCDuQRQ_9rustc_hir11definitionsNtB5_7DefPath26to_string_no_crate_verbose
librustc_driver-0b75ba01aeee6012.so:_RNvMs2_NtCs9fJVnCDuQRQ_9rustc_hir11definitionsNtB5_7DefPath29to_filename_friendly_no_crate
librustc_driver-0b75ba01aeee6012.so:_RNvMs2_NtCs9fJVnCDuQRQ_9rustc_hir3hirNtB5_4Path9is_global
librustc_driver-0b75ba01aeee6012.so:_RNvMs2_NtCs9puRwE6Jrst_14rustc_borrowck17universal_regionsNtB5_22UniversalRegionIndices24insert_late_bound_region
librustc_driver-0b75ba01aeee6012.so:_RNvMs2_NtCs9xF1GXCZqXD_18rustc_mir_dataflow5implsNtB5_27DefinitelyInitializedPlaces3new
librustc_driver-0b75ba01aeee6012.so:_RNvMs2_NtCsBLdkomj5WW_13rustc_session7optionsNtB5_14CodegenOptions5build
librustc_driver-0b75ba01aeee6012.so:_RNvMs2_NtCsNX45m2jpYM_12aho_corasick9prefilterNtB5_14PrefilterState3new
librustc_driver-0b75ba01aeee6012.so:_RNvMs2_NtCsNX45m2jpYM_12aho_corasick9prefilterNtB5_14PrefilterState8disabled
librustc_driver-0b75ba01aeee6012.so:_RNvMs2_NtCsbQyOJncyArB_8tempfile4fileNtB5_8TempPath4keep
librustc_driver-0b75ba01aeee6012.so:_RNvMs2_NtCsbQyOJncyArB_8tempfile4fileNtB5_8TempPath5close
librustc_driver-0b75ba01aeee6012.so:_RNvMs2_NtCscsydK7qefXH_9itertools12permutationsNtB5_13CompleteState7advance
librustc_driver-0b75ba01aeee6012.so:_RNvMs2_NtCscsydK7qefXH_9itertools12permutationsNtB5_13CompleteState9remaining
librustc_driver-0b75ba01aeee6012.so:_RNvMs2_NtCsczMUV2s8Ncb_12rustc_errors10diagnosticNtB5_22DiagnosticStyledString3new
librustc_driver-0b75ba01aeee6012.so:_RNvMs2_NtCsczMUV2s8Ncb_12rustc_errors10diagnosticNtB5_22DiagnosticStyledString7content
librustc_driver-0b75ba01aeee6012.so:_RNvMs2_NtCsdSVoBVyZlHf_9measureme11stringtableNtB5_18StringTableBuilder30map_virtual_to_concrete_string
librustc_driver-0b75ba01aeee6012.so:_RNvMs2_NtCsdSVoBVyZlHf_9measureme11stringtableNtB5_18StringTableBuilder3new
librustc_driver-0b75ba01aeee6012.so:_RNvMs2_NtCsdSVoBVyZlHf_9measureme8countersNtB5_24InstructionsMinusRaw04203new
librustc_driver-0b75ba01aeee6012.so:_RNvMs2_NtCserdW9TeaKDe_11rustc_infer6traitsINtB5_10ObligationINtNtNtCs9UaAlnGT11v_12rustc_middle2ty3sty6BinderNtB12_14TraitPredicateEE7self_ty
librustc_driver-0b75ba01aeee6012.so:_RNvMs2_NtCserdW9TeaKDe_11rustc_infer6traitsINtB5_10ObligationINtNtNtCs9UaAlnGT11v_12rustc_middle2ty3sty6BinderNtB12_14TraitPredicateEE8polarity
librustc_driver-0b75ba01aeee6012.so:_RNvMs2_NtCsf8791Mi6qoe_12tracing_core4spanNtB5_7Current10into_inner
librustc_driver-0b75ba01aeee6012.so:_RNvMs2_NtCsf8791Mi6qoe_12tracing_core4spanNtB5_7Current2id
librustc_driver-0b75ba01aeee6012.so:_RNvMs2_NtCsf8791Mi6qoe_12tracing_core4spanNtB5_7Current3new
librustc_driver-0b75ba01aeee6012.so:_RNvMs2_NtCsf8791Mi6qoe_12tracing_core4spanNtB5_7Current4none
librustc_driver-0b75ba01aeee6012.so:_RNvMs2_NtCsf8791Mi6qoe_12tracing_core4spanNtB5_7Current7unknown
librustc_driver-0b75ba01aeee6012.so:_RNvMs2_NtCsf8791Mi6qoe_12tracing_core4spanNtB5_7Current8is_known
librustc_driver-0b75ba01aeee6012.so:_RNvMs2_NtCsf8791Mi6qoe_12tracing_core4spanNtB5_7Current8metadata
librustc_driver-0b75ba01aeee6012.so:_RNvMs2_NtCsf8791Mi6qoe_12tracing_core8metadataNtB5_5Level6as_str
librustc_driver-0b75ba01aeee6012.so:_RNvMs2_NtCsfoFF2VvnVQT_14rustc_metadata7creaderNtB5_11CrateLoader11postprocess
librustc_driver-0b75ba01aeee6012.so:_RNvMs2_NtCsfoFF2VvnVQT_14rustc_metadata7creaderNtB5_11CrateLoader19process_path_extern
librustc_driver-0b75ba01aeee6012.so:_RNvMs2_NtCsfoFF2VvnVQT_14rustc_metadata7creaderNtB5_11CrateLoader20process_extern_crate
librustc_driver-0b75ba01aeee6012.so:_RNvMs2_NtCsfoFF2VvnVQT_14rustc_metadata7creaderNtB5_11CrateLoader25maybe_process_path_extern
librustc_driver-0b75ba01aeee6012.so:_RNvMs2_NtCsfoFF2VvnVQT_14rustc_metadata7creaderNtB5_11CrateLoader3new
librustc_driver-0b75ba01aeee6012.so:_RNvMs2_NtCsfoFF2VvnVQT_14rustc_metadata7creaderNtB5_11CrateLoader6cstore
librustc_driver-0b75ba01aeee6012.so:_RNvMs2_NtCsh1oXE7bm4Eb_10rustc_span6def_idNtB5_11DefPathHash3new
librustc_driver-0b75ba01aeee6012.so:_RNvMs2_NtCsh1oXE7bm4Eb_10rustc_span7hygieneNtB5_11LocalExpnId11fresh_empty
librustc_driver-0b75ba01aeee6012.so:_RNvMs2_NtCshn1YiuQfVU7_12rustc_target4specNtB5_13PanicStrategy11desc_symbol
librustc_driver-0b75ba01aeee6012.so:_RNvMs2_NtCshn1YiuQfVU7_12rustc_target4specNtB5_13PanicStrategy3all
librustc_driver-0b75ba01aeee6012.so:_RNvMs2_NtCshn1YiuQfVU7_12rustc_target4specNtB5_13PanicStrategy4desc
librustc_driver-0b75ba01aeee6012.so:_RNvMs2_NtCsjJMUtks5GNi_8icu_list8providerNtB5_17ListJoinerPattern12borrow_tuple
librustc_driver-0b75ba01aeee6012.so:_RNvMs2_NtCsjwWoBr4mZn4_5regex4execNtB5_13ExecNoSyncStr16capture_name_idx
librustc_driver-0b75ba01aeee6012.so:_RNvMs2_NtCsjwWoBr4mZn4_5regex4progNtB5_4Inst8is_match
librustc_driver-0b75ba01aeee6012.so:_RNvMs2_NtNtCs2ANZbKq4FAi_18tracing_subscriber8registry7shardedNtB5_10CloseGuard10is_closing
librustc_driver-0b75ba01aeee6012.so:_RNvMs2_NtNtCs2iGwUc7EAmY_17rustc_codegen_ssa4back5writeNtB5_13SharedEmitter16inline_asm_error
librustc_driver-0b75ba01aeee6012.so:_RNvMs2_NtNtCs2iGwUc7EAmY_17rustc_codegen_ssa4back5writeNtB5_13SharedEmitter3new
librustc_driver-0b75ba01aeee6012.so:_RNvMs2_NtNtCs2iGwUc7EAmY_17rustc_codegen_ssa4back5writeNtB5_13SharedEmitter5fatal
librustc_driver-0b75ba01aeee6012.so:_RNvMs2_NtNtCs3Tcv2dxS6si_6flate22gz7bufreadNtB5_15GzHeaderPartial11take_header
librustc_driver-0b75ba01aeee6012.so:_RNvMs2_NtNtCs3Tcv2dxS6si_6flate22gz7bufreadNtB5_15GzHeaderPartial3new
librustc_driver-0b75ba01aeee6012.so:_RNvMs2_NtNtCs3gJ41u96r5N_18rustc_codegen_llvm4back3ltoNtB5_12ModuleBuffer3new
librustc_driver-0b75ba01aeee6012.so:_RNvMs2_NtNtCs3gJ41u96r5N_18rustc_codegen_llvm5llvm_3ffiNtB5_14AtomicRmwBinOp12from_generic
librustc_driver-0b75ba01aeee6012.so:_RNvMs2_NtNtCs6Xk4iZgn9ee_11miniz_oxide7inflate6streamNtB5_12InflateState11last_status
librustc_driver-0b75ba01aeee6012.so:_RNvMs2_NtNtCs6Xk4iZgn9ee_11miniz_oxide7inflate6streamNtB5_12InflateState12decompressor
librustc_driver-0b75ba01aeee6012.so:_RNvMs2_NtNtCs6Xk4iZgn9ee_11miniz_oxide7inflate6streamNtB5_12InflateState26new_boxed_with_window_bits
librustc_driver-0b75ba01aeee6012.so:_RNvMs2_NtNtCs6Xk4iZgn9ee_11miniz_oxide7inflate6streamNtB5_12InflateState3new
librustc_driver-0b75ba01aeee6012.so:_RNvMs2_NtNtCs6Xk4iZgn9ee_11miniz_oxide7inflate6streamNtB5_12InflateState9new_boxed
librustc_driver-0b75ba01aeee6012.so:_RNvMs2_NtNtCs8lLsNL5HvpN_5gimli5write4unitNtB5_14AttributeValue4form
librustc_driver-0b75ba01aeee6012.so:_RNvMs2_NtNtCs8plho0yHpPq_14regex_automata3dfa5accelNtB5_5Accel10from_slice
librustc_driver-0b75ba01aeee6012.so:_RNvMs2_NtNtCs8plho0yHpPq_14regex_automata4util2idNtB5_12StateIDError9attempted
librustc_driver-0b75ba01aeee6012.so:_RNvMs2_NtNtCs8plho0yHpPq_14regex_automata4util9prefilterNtB5_5State16update_last_scan
librustc_driver-0b75ba01aeee6012.so:_RNvMs2_NtNtCs8plho0yHpPq_14regex_automata4util9prefilterNtB5_5State3new
librustc_driver-0b75ba01aeee6012.so:_RNvMs2_NtNtCs9UaAlnGT11v_12rustc_middle2ty14typeck_resultsINtNtNtB9_5infer9canonical9CanonicalNtB5_8UserTypeE11is_identity
librustc_driver-0b75ba01aeee6012.so:_RNvMs2_NtNtCs9UaAlnGT11v_12rustc_middle2ty25normalize_erasing_regionsNtB5_37TryNormalizeAfterErasingRegionsFolder3new
librustc_driver-0b75ba01aeee6012.so:_RNvMs2_NtNtCs9UaAlnGT11v_12rustc_middle2ty3styNtB5_15GeneratorSubsts12variant_name
librustc_driver-0b75ba01aeee6012.so:_RNvMs2_NtNtCs9UaAlnGT11v_12rustc_middle2ty4utilNtNtB7_5query8TyCtxtAt13bound_type_of
librustc_driver-0b75ba01aeee6012.so:_RNvMs2_NtNtCs9UaAlnGT11v_12rustc_middle2ty4walkNtNtB7_6consts5Const4walk
librustc_driver-0b75ba01aeee6012.so:_RNvMs2_NtNtCs9UaAlnGT11v_12rustc_middle2ty5errorNtB7_2Ty11sort_string
librustc_driver-0b75ba01aeee6012.so:_RNvMs2_NtNtCs9UaAlnGT11v_12rustc_middle2ty5errorNtB7_2Ty13prefix_string
librustc_driver-0b75ba01aeee6012.so:_RNvMs2_NtNtCs9UaAlnGT11v_12rustc_middle2ty8instanceNtB5_8Instance12polymorphize
librustc_driver-0b75ba01aeee6012.so:_RNvMs2_NtNtCs9UaAlnGT11v_12rustc_middle2ty8instanceNtB5_8Instance14expect_resolve
librustc_driver-0b75ba01aeee6012.so:_RNvMs2_NtNtCs9UaAlnGT11v_12rustc_middle2ty8instanceNtB5_8Instance15resolve_closure
librustc_driver-0b75ba01aeee6012.so:_RNvMs2_NtNtCs9UaAlnGT11v_12rustc_middle2ty8instanceNtB5_8Instance18resolve_for_fn_ptr
librustc_driver-0b75ba01aeee6012.so:_RNvMs2_NtNtCs9UaAlnGT11v_12rustc_middle2ty8instanceNtB5_8Instance18resolve_for_vtable
librustc_driver-0b75ba01aeee6012.so:_RNvMs2_NtNtCs9UaAlnGT11v_12rustc_middle2ty8instanceNtB5_8Instance19substs_for_mir_body
librustc_driver-0b75ba01aeee6012.so:_RNvMs2_NtNtCs9UaAlnGT11v_12rustc_middle2ty8instanceNtB5_8Instance21resolve_drop_in_place
librustc_driver-0b75ba01aeee6012.so:_RNvMs2_NtNtCs9UaAlnGT11v_12rustc_middle2ty8instanceNtB5_8Instance21resolve_opt_const_arg
librustc_driver-0b75ba01aeee6012.so:_RNvMs2_NtNtCs9UaAlnGT11v_12rustc_middle2ty8instanceNtB5_8Instance24fn_once_adapter_instance
librustc_driver-0b75ba01aeee6012.so:_RNvMs2_NtNtCs9UaAlnGT11v_12rustc_middle2ty8instanceNtB5_8Instance3new
librustc_driver-0b75ba01aeee6012.so:_RNvMs2_NtNtCs9UaAlnGT11v_12rustc_middle2ty8instanceNtB5_8Instance4mono
librustc_driver-0b75ba01aeee6012.so:_RNvMs2_NtNtCs9UaAlnGT11v_12rustc_middle2ty8instanceNtB5_8Instance7resolve
librustc_driver-0b75ba01aeee6012.so:_RNvMs2_NtNtCs9UaAlnGT11v_12rustc_middle3mir10terminatorNtNtB7_6syntax14TerminatorKind10successors
librustc_driver-0b75ba01aeee6012.so:_RNvMs2_NtNtCs9UaAlnGT11v_12rustc_middle3mir10terminatorNtNtB7_6syntax14TerminatorKind10unwind_mut
librustc_driver-0b75ba01aeee6012.so:_RNvMs2_NtNtCs9UaAlnGT11v_12rustc_middle3mir10terminatorNtNtB7_6syntax14TerminatorKind14successors_mut
librustc_driver-0b75ba01aeee6012.so:_RNvMs2_NtNtCs9UaAlnGT11v_12rustc_middle3mir10terminatorNtNtB7_6syntax14TerminatorKind3if_
librustc_driver-0b75ba01aeee6012.so:_RNvMs2_NtNtCs9UaAlnGT11v_12rustc_middle3mir10terminatorNtNtB7_6syntax14TerminatorKind6unwind
librustc_driver-0b75ba01aeee6012.so:_RNvMs2_NtNtCs9UaAlnGT11v_12rustc_middle3mir10terminatorNtNtB7_6syntax14TerminatorKind7as_goto
librustc_driver-0b75ba01aeee6012.so:_RNvMs2_NtNtCs9UaAlnGT11v_12rustc_middle3mir10terminatorNtNtB7_6syntax14TerminatorKind9as_switch
librustc_driver-0b75ba01aeee6012.so:_RNvMs2_NtNtCs9UaAlnGT11v_12rustc_middle3mir4monoNtB5_22CodegenUnitNameBuilder3new
librustc_driver-0b75ba01aeee6012.so:_RNvMs2_NtNtCs9UaAlnGT11v_12rustc_middle3mir8coverageNtB5_12CoverageKind13as_operand_id
librustc_driver-0b75ba01aeee6012.so:_RNvMs2_NtNtCs9UaAlnGT11v_12rustc_middle3mir8coverageNtB5_12CoverageKind13is_expression
librustc_driver-0b75ba01aeee6012.so:_RNvMs2_NtNtCs9UaAlnGT11v_12rustc_middle3mir9traversalNtB5_16ReversePostorder3new
librustc_driver-0b75ba01aeee6012.so:_RNvMs2_NtNtCs9UaAlnGT11v_12rustc_middle5infer9canonicalNtB5_16CanonicalVarKind8universe
librustc_driver-0b75ba01aeee6012.so:_RNvMs2_NtNtCs9UaAlnGT11v_12rustc_middle6traits20specialization_graphNtB5_7LeafDef8is_final
librustc_driver-0b75ba01aeee6012.so:_RNvMs2_NtNtCs9xF1GXCZqXD_18rustc_mir_dataflow5impls8livenessNtB5_6DefUse9for_place
librustc_driver-0b75ba01aeee6012.so:_RNvMs2_NtNtCserdW9TeaKDe_11rustc_infer5infer18region_constraintsNtB5_25RegionConstraintCollector15num_region_vars
librustc_driver-0b75ba01aeee6012.so:_RNvMs2_NtNtCserdW9TeaKDe_11rustc_infer5infer18region_constraintsNtB5_25RegionConstraintCollector19into_infos_and_data
librustc_driver-0b75ba01aeee6012.so:_RNvMs2_NtNtCserdW9TeaKDe_11rustc_infer5infer18region_constraintsNtB5_25RegionConstraintCollector19take_and_reset_data
librustc_driver-0b75ba01aeee6012.so:_RNvMs2_NtNtCserdW9TeaKDe_11rustc_infer5infer18region_constraintsNtB5_25RegionConstraintCollector19vars_since_snapshot
librustc_driver-0b75ba01aeee6012.so:_RNvMs2_NtNtCserdW9TeaKDe_11rustc_infer5infer18region_constraintsNtB5_25RegionConstraintCollector22region_constraint_data
librustc_driver-0b75ba01aeee6012.so:_RNvMs2_NtNtCserdW9TeaKDe_11rustc_infer5infer18region_constraintsNtB5_25RegionConstraintCollector28opportunistic_resolve_region
librustc_driver-0b75ba01aeee6012.so:_RNvMs2_NtNtCserdW9TeaKDe_11rustc_infer5infer18region_constraintsNtB5_25RegionConstraintCollector36region_constraints_added_in_snapshot
librustc_driver-0b75ba01aeee6012.so:_RNvMs2_NtNtCserdW9TeaKDe_11rustc_infer5infer18region_constraintsNtB5_25RegionConstraintCollector4data
librustc_driver-0b75ba01aeee6012.so:_RNvMs2_NtNtCserdW9TeaKDe_11rustc_infer5infer18region_constraintsNtB5_25RegionConstraintCollector8universe
librustc_driver-0b75ba01aeee6012.so:_RNvMs2_NtNtCserdW9TeaKDe_11rustc_infer5infer7resolveNtB5_27UnresolvedTypeOrConstFinder3new
librustc_driver-0b75ba01aeee6012.so:_RNvMs2_NtNtCsgOwEnlkkb0y_16rustc_hir_typeck6method5probeNtB5_4Pick12differs_from
librustc_driver-0b75ba01aeee6012.so:_RNvMs2_NtNtCsgOwEnlkkb0y_16rustc_hir_typeck6method5probeNtB5_4Pick39maybe_emit_unstable_name_collision_hint
librustc_driver-0b75ba01aeee6012.so:_RNvMs2_NtNtCsjwWoBr4mZn4_5regex7literal3impNtB5_6Memmem3len
librustc_driver-0b75ba01aeee6012.so:_RNvMs2_NtNtCsjwWoBr4mZn4_5regex7literal3impNtB5_6Memmem8char_len
librustc_driver-0b75ba01aeee6012.so:_RNvMs2_NtNtNtCs1Br764BqhVG_6object4read2pe8resourceNtB5_12ResourceName15to_string_lossy
librustc_driver-0b75ba01aeee6012.so:_RNvMs2_NtNtNtCs1Br764BqhVG_6object4read2pe8resourceNtB5_12ResourceName4data
librustc_driver-0b75ba01aeee6012.so:_RNvMs2_NtNtNtCs1Br764BqhVG_6object4read2pe8resourceNtB5_12ResourceName8raw_data
librustc_driver-0b75ba01aeee6012.so:_RNvMs2_NtNtNtCs2BBApAlL7Qg_15rustc_mir_build4thir7pattern15deconstruct_patNtB5_5Slice3new
librustc_driver-0b75ba01aeee6012.so:_RNvMs2_NtNtNtCs2zXTrlMMQY6_6object4read2pe8resourceNtB5_12ResourceName15to_string_lossy
librustc_driver-0b75ba01aeee6012.so:_RNvMs2_NtNtNtCs2zXTrlMMQY6_6object4read2pe8resourceNtB5_12ResourceName4data
librustc_driver-0b75ba01aeee6012.so:_RNvMs2_NtNtNtCs9UaAlnGT11v_12rustc_middle2ty5print6prettyNtNtB9_7context6TyCtxt12def_path_str
librustc_driver-0b75ba01aeee6012.so:_RNvMs2_NtNtNtCs9UaAlnGT11v_12rustc_middle2ty5print6prettyNtNtB9_7context6TyCtxt24def_path_str_with_substs
librustc_driver-0b75ba01aeee6012.so:_RNvMs2_NtNtNtCs9UaAlnGT11v_12rustc_middle2ty5print6prettyNtNtB9_7context6TyCtxt26value_path_str_with_substs
librustc_driver-0b75ba01aeee6012.so:_RNvMs2_NtNtNtCs9UaAlnGT11v_12rustc_middle3mir9interpret10allocationNtB5_10AllocError15to_interp_error
librustc_driver-0b75ba01aeee6012.so:_RNvMs2_NtNtNtCshJrk7kqXY5v_5serde9___private2de7contentNtB5_19TagOrContentVisitor3new
librustc_driver-0b75ba01aeee6012.so:_RNvMs2b_NtCs9Yk5q5as75h_10rustc_lint7builtinNtB6_12DerefNullPtr9get_lints
librustc_driver-0b75ba01aeee6012.so:_RNvMs2f_NtCs9Yk5q5as75h_10rustc_lint7builtinNtB6_14NamedAsmLabels9get_lints
librustc_driver-0b75ba01aeee6012.so:_RNvMs2j_NtCs9Yk5q5as75h_10rustc_lint7builtinNtB6_17SpecialModuleName9get_lints
librustc_driver-0b75ba01aeee6012.so:_RNvMs2k_NtCs8lLsNL5HvpN_5gimli9constantsNtB6_8DwAccess13static_string
librustc_driver-0b75ba01aeee6012.so:_RNvMs2n_NtCs9Yk5q5as75h_10rustc_lint7builtinNtB6_14UnexpectedCfgs9get_lints
librustc_driver-0b75ba01aeee6012.so:_RNvMs2w_NtCs8lLsNL5HvpN_5gimli9constantsNtB6_5DwVis13static_string
librustc_driver-0b75ba01aeee6012.so:_RNvMs36_NtCs8lLsNL5HvpN_5gimli9constantsNtB6_6DwAddr13static_string
librustc_driver-0b75ba01aeee6012.so:_RNvMs3G_NtCs8lLsNL5HvpN_5gimli9constantsNtB6_5DwInl13static_string
librustc_driver-0b75ba01aeee6012.so:_RNvMs3S_NtCs8lLsNL5HvpN_5gimli9constantsNtB6_5DwOrd13static_string
librustc_driver-0b75ba01aeee6012.so:_RNvMs3_Cs3BVciWoC1df_18rustc_parse_formatNtB5_6Parser3new
librustc_driver-0b75ba01aeee6012.so:_RNvMs3_Cs4C9R4OzljKl_9rustc_abiNtB5_6Endian6as_str
librustc_driver-0b75ba01aeee6012.so:_RNvMs3_Cs6eP2FAaHkoX_7getoptsNtB5_7Matches11opt_default
librustc_driver-0b75ba01aeee6012.so:_RNvMs3_Cs6eP2FAaHkoX_7getoptsNtB5_7Matches11opt_defined
librustc_driver-0b75ba01aeee6012.so:_RNvMs3_Cs6eP2FAaHkoX_7getoptsNtB5_7Matches11opt_present
librustc_driver-0b75ba01aeee6012.so:_RNvMs3_Cs6eP2FAaHkoX_7getoptsNtB5_7Matches12opt_strs_pos
librustc_driver-0b75ba01aeee6012.so:_RNvMs3_Cs6eP2FAaHkoX_7getoptsNtB5_7Matches12opts_present
librustc_driver-0b75ba01aeee6012.so:_RNvMs3_Cs6eP2FAaHkoX_7getoptsNtB5_7Matches13opt_positions
librustc_driver-0b75ba01aeee6012.so:_RNvMs3_Cs6eP2FAaHkoX_7getoptsNtB5_7Matches7opt_str
librustc_driver-0b75ba01aeee6012.so:_RNvMs3_Cs6eP2FAaHkoX_7getoptsNtB5_7Matches7opt_val
librustc_driver-0b75ba01aeee6012.so:_RNvMs3_Cs6eP2FAaHkoX_7getoptsNtB5_7Matches8opt_strs
librustc_driver-0b75ba01aeee6012.so:_RNvMs3_Cs6eP2FAaHkoX_7getoptsNtB5_7Matches8opts_str
librustc_driver-0b75ba01aeee6012.so:_RNvMs3_Cs6eP2FAaHkoX_7getoptsNtB5_7Matches9opt_count
librustc_driver-0b75ba01aeee6012.so:_RNvMs3_Cs7NPstCHd46s_7memmap2NtB5_7MmapRaw7map_raw
librustc_driver-0b75ba01aeee6012.so:_RNvMs3_Cs8QjxJP0DI7Q_8rls_spanINtB5_6ColumnNtB5_10OneIndexedE12zero_indexed
librustc_driver-0b75ba01aeee6012.so:_RNvMs3_Cs8QjxJP0DI7Q_8rls_spanINtB5_6ColumnNtB5_10OneIndexedE15new_one_indexed
librustc_driver-0b75ba01aeee6012.so:_RNvMs3_CsczMUV2s8Ncb_12rustc_errorsNtB5_12HandlerInner15emit_diagnostic
librustc_driver-0b75ba01aeee6012.so:_RNvMs3_CsczMUV2s8Ncb_12rustc_errorsNtB5_12HandlerInner16treat_err_as_bug
librustc_driver-0b75ba01aeee6012.so:_RNvMs3_CsczMUV2s8Ncb_12rustc_errorsNtB5_12HandlerInner17delayed_bug_count
librustc_driver-0b75ba01aeee6012.so:_RNvMs3_CsgFkdJhQPPIX_13rustc_type_irNtB5_5IntTy8name_str
librustc_driver-0b75ba01aeee6012.so:_RNvMs3_CsgFkdJhQPPIX_13rustc_type_irNtB5_5IntTy9bit_width
librustc_driver-0b75ba01aeee6012.so:_RNvMs3_CsgFkdJhQPPIX_13rustc_type_irNtB5_5IntTy9normalize
librustc_driver-0b75ba01aeee6012.so:_RNvMs3_CsgH9G0KvhIGM_8datafrogNtB5_9Iteration3new
librustc_driver-0b75ba01aeee6012.so:_RNvMs3_CsgH9G0KvhIGM_8datafrogNtB5_9Iteration7changed
librustc_driver-0b75ba01aeee6012.so:_RNvMs3_CsipHzpiWsw7P_20rustc_error_messagesNtB5_17DiagnosticMessage26with_subdiagnostic_message
librustc_driver-0b75ba01aeee6012.so:_RNvMs3_CsiyJNtbvviN4_15rustc_lint_defsNtB5_22FutureIncompatibleInfo24default_fields_for_macro
librustc_driver-0b75ba01aeee6012.so:_RNvMs3_NtCs3gJ41u96r5N_18rustc_codegen_llvm5llvm_NtB5_16OperandBundleDef3new
librustc_driver-0b75ba01aeee6012.so:_RNvMs3_NtCs5ESSSXQhO3H_12regex_syntax3hirNtB5_3Hir10is_literal
librustc_driver-0b75ba01aeee6012.so:_RNvMs3_NtCs5ESSSXQhO3H_12regex_syntax3hirNtB5_3Hir10repetition
librustc_driver-0b75ba01aeee6012.so:_RNvMs3_NtCs5ESSSXQhO3H_12regex_syntax3hirNtB5_3Hir11alternation
librustc_driver-0b75ba01aeee6012.so:_RNvMs3_NtCs5ESSSXQhO3H_12regex_syntax3hirNtB5_3Hir13word_boundary
librustc_driver-0b75ba01aeee6012.so:_RNvMs3_NtCs5ESSSXQhO3H_12regex_syntax3hirNtB5_3Hir14is_always_utf8
librustc_driver-0b75ba01aeee6012.so:_RNvMs3_NtCs5ESSSXQhO3H_12regex_syntax3hirNtB5_3Hir14is_match_empty
librustc_driver-0b75ba01aeee6012.so:_RNvMs3_NtCs5ESSSXQhO3H_12regex_syntax3hirNtB5_3Hir15is_anchored_end
librustc_driver-0b75ba01aeee6012.so:_RNvMs3_NtCs5ESSSXQhO3H_12regex_syntax3hirNtB5_3Hir17is_all_assertions
librustc_driver-0b75ba01aeee6012.so:_RNvMs3_NtCs5ESSSXQhO3H_12regex_syntax3hirNtB5_3Hir17is_anchored_start
librustc_driver-0b75ba01aeee6012.so:_RNvMs3_NtCs5ESSSXQhO3H_12regex_syntax3hirNtB5_3Hir19is_any_anchored_end
librustc_driver-0b75ba01aeee6012.so:_RNvMs3_NtCs5ESSSXQhO3H_12regex_syntax3hirNtB5_3Hir20is_line_anchored_end
librustc_driver-0b75ba01aeee6012.so:_RNvMs3_NtCs5ESSSXQhO3H_12regex_syntax3hirNtB5_3Hir21is_any_anchored_start
librustc_driver-0b75ba01aeee6012.so:_RNvMs3_NtCs5ESSSXQhO3H_12regex_syntax3hirNtB5_3Hir22is_alternation_literal
librustc_driver-0b75ba01aeee6012.so:_RNvMs3_NtCs5ESSSXQhO3H_12regex_syntax3hirNtB5_3Hir22is_line_anchored_start
librustc_driver-0b75ba01aeee6012.so:_RNvMs3_NtCs5ESSSXQhO3H_12regex_syntax3hirNtB5_3Hir3any
librustc_driver-0b75ba01aeee6012.so:_RNvMs3_NtCs5ESSSXQhO3H_12regex_syntax3hirNtB5_3Hir3dot
librustc_driver-0b75ba01aeee6012.so:_RNvMs3_NtCs5ESSSXQhO3H_12regex_syntax3hirNtB5_3Hir4kind
librustc_driver-0b75ba01aeee6012.so:_RNvMs3_NtCs5ESSSXQhO3H_12regex_syntax3hirNtB5_3Hir5class
librustc_driver-0b75ba01aeee6012.so:_RNvMs3_NtCs5ESSSXQhO3H_12regex_syntax3hirNtB5_3Hir5empty
librustc_driver-0b75ba01aeee6012.so:_RNvMs3_NtCs5ESSSXQhO3H_12regex_syntax3hirNtB5_3Hir5group
librustc_driver-0b75ba01aeee6012.so:_RNvMs3_NtCs5ESSSXQhO3H_12regex_syntax3hirNtB5_3Hir6anchor
librustc_driver-0b75ba01aeee6012.so:_RNvMs3_NtCs5ESSSXQhO3H_12regex_syntax3hirNtB5_3Hir6concat
librustc_driver-0b75ba01aeee6012.so:_RNvMs3_NtCs5ESSSXQhO3H_12regex_syntax3hirNtB5_3Hir7literal
librustc_driver-0b75ba01aeee6012.so:_RNvMs3_NtCs5ESSSXQhO3H_12regex_syntax3hirNtB5_3Hir9into_kind
librustc_driver-0b75ba01aeee6012.so:_RNvMs3_NtCs5ESSSXQhO3H_12regex_syntax4utf8NtB5_13Utf8Sequences3new
librustc_driver-0b75ba01aeee6012.so:_RNvMs3_NtCs5ESSSXQhO3H_12regex_syntax4utf8NtB5_13Utf8Sequences5reset
librustc_driver-0b75ba01aeee6012.so:_RNvMs3_NtCs7nHlYWzWSzq_11rustc_parse6parserNtB5_16TokenDescription10from_token
librustc_driver-0b75ba01aeee6012.so:_RNvMs3_NtCs7tPUXX4pCjz_14regex_automata5regexNtB5_12RegexBuilder10nest_limit
librustc_driver-0b75ba01aeee6012.so:_RNvMs3_NtCs7tPUXX4pCjz_14regex_automata5regexNtB5_12RegexBuilder10swap_greed
librustc_driver-0b75ba01aeee6012.so:_RNvMs3_NtCs7tPUXX4pCjz_14regex_automata5regexNtB5_12RegexBuilder11premultiply
librustc_driver-0b75ba01aeee6012.so:_RNvMs3_NtCs7tPUXX4pCjz_14regex_automata5regexNtB5_12RegexBuilder12build_sparse
librustc_driver-0b75ba01aeee6012.so:_RNvMs3_NtCs7tPUXX4pCjz_14regex_automata5regexNtB5_12RegexBuilder12byte_classes
librustc_driver-0b75ba01aeee6012.so:_RNvMs3_NtCs7tPUXX4pCjz_14regex_automata5regexNtB5_12RegexBuilder16case_insensitive
librustc_driver-0b75ba01aeee6012.so:_RNvMs3_NtCs7tPUXX4pCjz_14regex_automata5regexNtB5_12RegexBuilder17ignore_whitespace
librustc_driver-0b75ba01aeee6012.so:_RNvMs3_NtCs7tPUXX4pCjz_14regex_automata5regexNtB5_12RegexBuilder18allow_invalid_utf8
librustc_driver-0b75ba01aeee6012.so:_RNvMs3_NtCs7tPUXX4pCjz_14regex_automata5regexNtB5_12RegexBuilder20dot_matches_new_line
librustc_driver-0b75ba01aeee6012.so:_RNvMs3_NtCs7tPUXX4pCjz_14regex_automata5regexNtB5_12RegexBuilder3new
librustc_driver-0b75ba01aeee6012.so:_RNvMs3_NtCs7tPUXX4pCjz_14regex_automata5regexNtB5_12RegexBuilder5build
librustc_driver-0b75ba01aeee6012.so:_RNvMs3_NtCs7tPUXX4pCjz_14regex_automata5regexNtB5_12RegexBuilder6shrink
librustc_driver-0b75ba01aeee6012.so:_RNvMs3_NtCs7tPUXX4pCjz_14regex_automata5regexNtB5_12RegexBuilder7unicode
librustc_driver-0b75ba01aeee6012.so:_RNvMs3_NtCs7tPUXX4pCjz_14regex_automata5regexNtB5_12RegexBuilder8anchored
librustc_driver-0b75ba01aeee6012.so:_RNvMs3_NtCs7tPUXX4pCjz_14regex_automata5regexNtB5_12RegexBuilder8minimize
librustc_driver-0b75ba01aeee6012.so:_RNvMs3_NtCs93julGFyfmy_10serde_json4readNtB5_9SliceRead3new
librustc_driver-0b75ba01aeee6012.so:_RNvMs3_NtCs9IVbjQok2gJ_12icu_provider11hello_worldINtNtB7_8response11DataPayloadNtB5_18HelloWorldV1MarkerE15from_static_str
librustc_driver-0b75ba01aeee6012.so:_RNvMs3_NtCs9KpYfezRtzb_9rustc_ast3astNtB5_4Path10from_ident
librustc_driver-0b75ba01aeee6012.so:_RNvMs3_NtCs9KpYfezRtzb_9rustc_ast3astNtB5_4Path9is_global
librustc_driver-0b75ba01aeee6012.so:_RNvMs3_NtCs9KpYfezRtzb_9rustc_ast4attrNtNtB7_3ast9Attribute14is_doc_comment
librustc_driver-0b75ba01aeee6012.so:_RNvMs3_NtCs9KpYfezRtzb_9rustc_ast4attrNtNtB7_3ast9Attribute15get_normal_item
librustc_driver-0b75ba01aeee6012.so:_RNvMs3_NtCs9KpYfezRtzb_9rustc_ast4attrNtNtB7_3ast9Attribute18may_have_doc_links
librustc_driver-0b75ba01aeee6012.so:_RNvMs3_NtCs9KpYfezRtzb_9rustc_ast4attrNtNtB7_3ast9Attribute18unwrap_normal_item
librustc_driver-0b75ba01aeee6012.so:_RNvMs3_NtCs9KpYfezRtzb_9rustc_ast4attrNtNtB7_3ast9Attribute24doc_str_and_comment_kind
librustc_driver-0b75ba01aeee6012.so:_RNvMs3_NtCs9KpYfezRtzb_9rustc_ast4attrNtNtB7_3ast9Attribute4meta
librustc_driver-0b75ba01aeee6012.so:_RNvMs3_NtCs9KpYfezRtzb_9rustc_ast4attrNtNtB7_3ast9Attribute6tokens
librustc_driver-0b75ba01aeee6012.so:_RNvMs3_NtCs9KpYfezRtzb_9rustc_ast4attrNtNtB7_3ast9Attribute7doc_str
librustc_driver-0b75ba01aeee6012.so:_RNvMs3_NtCs9KpYfezRtzb_9rustc_ast4attrNtNtB7_3ast9Attribute9meta_kind
librustc_driver-0b75ba01aeee6012.so:_RNvMs3_NtCs9UaAlnGT11v_12rustc_middle3mirNtB5_9MirSource13from_instance
librustc_driver-0b75ba01aeee6012.so:_RNvMs3_NtCs9UaAlnGT11v_12rustc_middle3mirNtB5_9MirSource14with_opt_param
librustc_driver-0b75ba01aeee6012.so:_RNvMs3_NtCs9UaAlnGT11v_12rustc_middle3mirNtB5_9MirSource4item
librustc_driver-0b75ba01aeee6012.so:_RNvMs3_NtCs9UaAlnGT11v_12rustc_middle6traitsNtB5_19ObligationCauseCode12peel_derives
librustc_driver-0b75ba01aeee6012.so:_RNvMs3_NtCs9UaAlnGT11v_12rustc_middle6traitsNtB5_19ObligationCauseCode16peel_match_impls
librustc_driver-0b75ba01aeee6012.so:_RNvMs3_NtCs9UaAlnGT11v_12rustc_middle6traitsNtB5_19ObligationCauseCode6parent
librustc_driver-0b75ba01aeee6012.so:_RNvMs3_NtCs9Yk5q5as75h_10rustc_lint25hidden_unicode_codepointsNtB5_23HiddenUnicodeCodepoints9get_lints
librustc_driver-0b75ba01aeee6012.so:_RNvMs3_NtCs9Yk5q5as75h_10rustc_lint6unusedNtB5_12UnusedParens23check_unused_parens_pat
librustc_driver-0b75ba01aeee6012.so:_RNvMs3_NtCs9fJVnCDuQRQ_9rustc_hir10lang_itemsNtB5_8LangItem8from_u32
librustc_driver-0b75ba01aeee6012.so:_RNvMs3_NtCs9fJVnCDuQRQ_9rustc_hir11definitionsNtB5_11Definitions10create_def
librustc_driver-0b75ba01aeee6012.so:_RNvMs3_NtCs9fJVnCDuQRQ_9rustc_hir11definitionsNtB5_11Definitions14def_path_table
librustc_driver-0b75ba01aeee6012.so:_RNvMs3_NtCs9fJVnCDuQRQ_9rustc_hir11definitionsNtB5_11Definitions15def_index_count
librustc_driver-0b75ba01aeee6012.so:_RNvMs3_NtCs9fJVnCDuQRQ_9rustc_hir11definitionsNtB5_11Definitions15num_definitions
librustc_driver-0b75ba01aeee6012.so:_RNvMs3_NtCs9fJVnCDuQRQ_9rustc_hir11definitionsNtB5_11Definitions30def_path_hash_to_def_index_map
librustc_driver-0b75ba01aeee6012.so:_RNvMs3_NtCs9fJVnCDuQRQ_9rustc_hir11definitionsNtB5_11Definitions3new
librustc_driver-0b75ba01aeee6012.so:_RNvMs3_NtCs9fJVnCDuQRQ_9rustc_hir11definitionsNtB5_11Definitions8def_path
librustc_driver-0b75ba01aeee6012.so:_RNvMs3_NtCs9fJVnCDuQRQ_9rustc_hir3hirNtB5_11PathSegment3new
librustc_driver-0b75ba01aeee6012.so:_RNvMs3_NtCs9fJVnCDuQRQ_9rustc_hir3hirNtB5_11PathSegment4args
librustc_driver-0b75ba01aeee6012.so:_RNvMs3_NtCs9fJVnCDuQRQ_9rustc_hir3hirNtB5_11PathSegment7invalid
librustc_driver-0b75ba01aeee6012.so:_RNvMs3_NtCsNX45m2jpYM_12aho_corasick9prefilterNtB5_7Builder22ascii_case_insensitive
librustc_driver-0b75ba01aeee6012.so:_RNvMs3_NtCsNX45m2jpYM_12aho_corasick9prefilterNtB5_7Builder3add
librustc_driver-0b75ba01aeee6012.so:_RNvMs3_NtCsNX45m2jpYM_12aho_corasick9prefilterNtB5_7Builder3new
librustc_driver-0b75ba01aeee6012.so:_RNvMs3_NtCsNX45m2jpYM_12aho_corasick9prefilterNtB5_7Builder5build
librustc_driver-0b75ba01aeee6012.so:_RNvMs3_NtCsczMUV2s8Ncb_12rustc_errors10diagnosticNtB5_10StringPart7content
librustc_driver-0b75ba01aeee6012.so:_RNvMs3_NtCsczMUV2s8Ncb_12rustc_errors18diagnostic_builderINtB5_17DiagnosticBuilderNtB5_5NotedE19new_diagnostic_note
librustc_driver-0b75ba01aeee6012.so:_RNvMs3_NtCserdW9TeaKDe_11rustc_infer5inferNtB5_16InferCtxtBuilder10intercrate
librustc_driver-0b75ba01aeee6012.so:_RNvMs3_NtCserdW9TeaKDe_11rustc_infer5inferNtB5_16InferCtxtBuilder16ignoring_regions
librustc_driver-0b75ba01aeee6012.so:_RNvMs3_NtCserdW9TeaKDe_11rustc_infer5inferNtB5_16InferCtxtBuilder26with_opaque_type_inference
librustc_driver-0b75ba01aeee6012.so:_RNvMs3_NtCserdW9TeaKDe_11rustc_infer5inferNtB5_16InferCtxtBuilder5build
librustc_driver-0b75ba01aeee6012.so:_RNvMs3_NtCsh1oXE7bm4Eb_10rustc_span6symbolNtB5_12IdentPrinter13for_ast_ident
librustc_driver-0b75ba01aeee6012.so:_RNvMs3_NtCsh1oXE7bm4Eb_10rustc_span6symbolNtB5_12IdentPrinter3new
librustc_driver-0b75ba01aeee6012.so:_RNvMs3_NtCsh1oXE7bm4Eb_10rustc_span7hygieneNtB5_6ExpnId15expansion_cause
librustc_driver-0b75ba01aeee6012.so:_RNvMs3_NtCsh1oXE7bm4Eb_10rustc_span7hygieneNtB5_6ExpnId27outer_expn_is_descendant_of
librustc_driver-0b75ba01aeee6012.so:_RNvMs3_NtCsh1oXE7bm4Eb_10rustc_span7hygieneNtB5_6ExpnId4root
librustc_driver-0b75ba01aeee6012.so:_RNvMs3_NtCshn1YiuQfVU7_12rustc_target3asmNtB5_13InlineAsmType10is_integer
librustc_driver-0b75ba01aeee6012.so:_RNvMs3_NtCshn1YiuQfVU7_12rustc_target3asmNtB5_13InlineAsmType4size
librustc_driver-0b75ba01aeee6012.so:_RNvMs3_NtCsjwWoBr4mZn4_5regex3dfaNtB5_3Fsm10has_prefix
librustc_driver-0b75ba01aeee6012.so:_RNvMs3_NtCsjwWoBr4mZn4_5regex3dfaNtB5_3Fsm10next_state
librustc_driver-0b75ba01aeee6012.so:_RNvMs3_NtCsjwWoBr4mZn4_5regex3dfaNtB5_3Fsm11start_flags
librustc_driver-0b75ba01aeee6012.so:_RNvMs3_NtCsjwWoBr4mZn4_5regex3dfaNtB5_3Fsm12cached_state
librustc_driver-0b75ba01aeee6012.so:_RNvMs3_NtCsjwWoBr4mZn4_5regex3dfaNtB5_3Fsm15follow_epsilons
librustc_driver-0b75ba01aeee6012.so:_RNvMs3_NtCsjwWoBr4mZn4_5regex3dfaNtB5_3Fsm19start_flags_reverse
librustc_driver-0b75ba01aeee6012.so:_RNvMs3_NtCsjwWoBr4mZn4_5regex3dfaNtB5_3Fsm5state
librustc_driver-0b75ba01aeee6012.so:_RNvMs3_NtCsjwWoBr4mZn4_5regex3dfaNtB5_3Fsm9prefix_at
librustc_driver-0b75ba01aeee6012.so:_RNvMs3_NtCsjwWoBr4mZn4_5regex3dfaNtB5_3Fsm9start_ptr
librustc_driver-0b75ba01aeee6012.so:_RNvMs3_NtCsjwWoBr4mZn4_5regex4execNtB5_4Exec10into_regex
librustc_driver-0b75ba01aeee6012.so:_RNvMs3_NtCsjwWoBr4mZn4_5regex4execNtB5_4Exec13capture_names
librustc_driver-0b75ba01aeee6012.so:_RNvMs3_NtCsjwWoBr4mZn4_5regex4execNtB5_4Exec13regex_strings
librustc_driver-0b75ba01aeee6012.so:_RNvMs3_NtCsjwWoBr4mZn4_5regex4execNtB5_4Exec14into_regex_set
librustc_driver-0b75ba01aeee6012.so:_RNvMs3_NtCsjwWoBr4mZn4_5regex4execNtB5_4Exec15into_byte_regex
librustc_driver-0b75ba01aeee6012.so:_RNvMs3_NtCsjwWoBr4mZn4_5regex4execNtB5_4Exec16capture_name_idx
librustc_driver-0b75ba01aeee6012.so:_RNvMs3_NtCsjwWoBr4mZn4_5regex4execNtB5_4Exec19into_byte_regex_set
librustc_driver-0b75ba01aeee6012.so:_RNvMs3_NtCsjwWoBr4mZn4_5regex4progNtB5_10InstRanges7matches
librustc_driver-0b75ba01aeee6012.so:_RNvMs3_NtCsjwWoBr4mZn4_5regex4progNtB5_10InstRanges9num_chars
librustc_driver-0b75ba01aeee6012.so:_RNvMs3_NtCsl3oRsZZKr3x_15rustc_interface7queriesNtB5_7Queries11global_ctxt
librustc_driver-0b75ba01aeee6012.so:_RNvMs3_NtCsl3oRsZZKr3x_15rustc_interface7queriesNtB5_7Queries15ongoing_codegen
librustc_driver-0b75ba01aeee6012.so:_RNvMs3_NtCsl3oRsZZKr3x_15rustc_interface7queriesNtB5_7Queries16register_plugins
librustc_driver-0b75ba01aeee6012.so:_RNvMs3_NtCsl3oRsZZKr3x_15rustc_interface7queriesNtB5_7Queries3new
librustc_driver-0b75ba01aeee6012.so:_RNvMs3_NtCsl3oRsZZKr3x_15rustc_interface7queriesNtB5_7Queries5parse
librustc_driver-0b75ba01aeee6012.so:_RNvMs3_NtCsl3oRsZZKr3x_15rustc_interface7queriesNtB5_7Queries6linker
librustc_driver-0b75ba01aeee6012.so:_RNvMs3_NtCsl3oRsZZKr3x_15rustc_interface7queriesNtB5_7Queries7session
librustc_driver-0b75ba01aeee6012.so:_RNvMs3_NtCsl3oRsZZKr3x_15rustc_interface7queriesNtB5_7Queries9expansion
librustc_driver-0b75ba01aeee6012.so:_RNvMs3_NtNtCs3gJ41u96r5N_18rustc_codegen_llvm5llvm_10archive_roNtB5_5Child4name
librustc_driver-0b75ba01aeee6012.so:_RNvMs3_NtNtCs3gJ41u96r5N_18rustc_codegen_llvm5llvm_3ffiNtB5_14AtomicOrdering12from_generic
librustc_driver-0b75ba01aeee6012.so:_RNvMs3_NtNtCs56hrLJnUVy1_13fluent_bundle5types6numberNtB5_19FluentNumberOptions5merge
librustc_driver-0b75ba01aeee6012.so:_RNvMs3_NtNtCs8lLsNL5HvpN_5gimli4read6abbrevNtB5_13Abbreviations5empty
librustc_driver-0b75ba01aeee6012.so:_RNvMs3_NtNtCs8lLsNL5HvpN_5gimli4read6abbrevNtB5_13Abbreviations6insert
librustc_driver-0b75ba01aeee6012.so:_RNvMs3_NtNtCs9UaAlnGT11v_12rustc_middle2ty5errorNtNtB7_7context6TyCtxt15short_ty_string
librustc_driver-0b75ba01aeee6012.so:_RNvMs3_NtNtCs9UaAlnGT11v_12rustc_middle2ty5errorNtNtB7_7context6TyCtxt25note_and_explain_type_err
librustc_driver-0b75ba01aeee6012.so:_RNvMs3_NtNtCs9UaAlnGT11v_12rustc_middle2ty6layoutNtB5_12SizeSkeleton7compute
librustc_driver-0b75ba01aeee6012.so:_RNvMs3_NtNtCs9UaAlnGT11v_12rustc_middle2ty6layoutNtB5_12SizeSkeleton9same_size
librustc_driver-0b75ba01aeee6012.so:_RNvMs3_NtNtCs9UaAlnGT11v_12rustc_middle2ty7contextNtB5_6TyCtxt15feed_unit_query
librustc_driver-0b75ba01aeee6012.so:_RNvMs3_NtNtCs9UaAlnGT11v_12rustc_middle2ty7contextNtB5_6TyCtxt16feed_local_crate
librustc_driver-0b75ba01aeee6012.so:_RNvMs3_NtNtCs9UaAlnGT11v_12rustc_middle2ty8instanceNtB5_19UnusedGenericParams12new_all_used
librustc_driver-0b75ba01aeee6012.so:_RNvMs3_NtNtCs9UaAlnGT11v_12rustc_middle2ty8instanceNtB5_19UnusedGenericParams14new_all_unused
librustc_driver-0b75ba01aeee6012.so:_RNvMs3_NtNtCs9UaAlnGT11v_12rustc_middle2ty8instanceNtB5_19UnusedGenericParams7is_used
librustc_driver-0b75ba01aeee6012.so:_RNvMs3_NtNtCs9UaAlnGT11v_12rustc_middle2ty8instanceNtB5_19UnusedGenericParams8all_used
librustc_driver-0b75ba01aeee6012.so:_RNvMs3_NtNtCs9UaAlnGT11v_12rustc_middle2ty8instanceNtB5_19UnusedGenericParams9is_unused
librustc_driver-0b75ba01aeee6012.so:_RNvMs3_NtNtCs9UaAlnGT11v_12rustc_middle2ty8instanceNtB5_19UnusedGenericParams9mark_used
librustc_driver-0b75ba01aeee6012.so:_RNvMs3_NtNtCs9UaAlnGT11v_12rustc_middle3mir3tcxNtNtB7_6syntax5BinOp2ty
librustc_driver-0b75ba01aeee6012.so:_RNvMs3_NtNtCs9UaAlnGT11v_12rustc_middle5infer9canonicalNtB5_22QueryRegionConstraints8is_empty
librustc_driver-0b75ba01aeee6012.so:_RNvMs3_NtNtCs9UaAlnGT11v_12rustc_middle5infer9unify_keyNtB5_18ConstVariableValue5known
librustc_driver-0b75ba01aeee6012.so:_RNvMs3_NtNtCs9UaAlnGT11v_12rustc_middle6traits20specialization_graphNtB5_9Ancestors8leaf_def
librustc_driver-0b75ba01aeee6012.so:_RNvMs3_NtNtCs9xF1GXCZqXD_18rustc_mir_dataflow5impls8livenessNtB5_25MaybeTransitiveLiveLocals3new
librustc_driver-0b75ba01aeee6012.so:_RNvMs3_NtNtCsNX45m2jpYM_12aho_corasick6packed3apiNtB5_8Searcher10heap_bytes
librustc_driver-0b75ba01aeee6012.so:_RNvMs3_NtNtCsNX45m2jpYM_12aho_corasick6packed3apiNtB5_8Searcher10match_kind
librustc_driver-0b75ba01aeee6012.so:_RNvMs3_NtNtCsNX45m2jpYM_12aho_corasick6packed3apiNtB5_8Searcher11minimum_len
librustc_driver-0b75ba01aeee6012.so:_RNvMs3_NtNtCsNX45m2jpYM_12aho_corasick6packed3apiNtB5_8Searcher7slow_at
librustc_driver-0b75ba01aeee6012.so:_RNvMs3_NtNtCserdW9TeaKDe_11rustc_infer5infer13type_variableNtB5_17TypeVariableValue10is_unknown
librustc_driver-0b75ba01aeee6012.so:_RNvMs3_NtNtCserdW9TeaKDe_11rustc_infer5infer13type_variableNtB5_17TypeVariableValue5known
librustc_driver-0b75ba01aeee6012.so:_RNvMs3_NtNtCsj89wkcdy9Rv_16rustc_ast_pretty6pprust5stateNtB5_5State10print_stmt
librustc_driver-0b75ba01aeee6012.so:_RNvMs3_NtNtCsj89wkcdy9Rv_16rustc_ast_pretty6pprust5stateNtB5_5State10print_type
librustc_driver-0b75ba01aeee6012.so:_RNvMs3_NtNtCsj89wkcdy9Rv_16rustc_ast_pretty6pprust5stateNtB5_5State11print_block
librustc_driver-0b75ba01aeee6012.so:_RNvMs3_NtNtCsj89wkcdy9Rv_16rustc_ast_pretty6pprust5stateNtB5_5State11print_param
librustc_driver-0b75ba01aeee6012.so:_RNvMs3_NtNtCsj89wkcdy9Rv_16rustc_ast_pretty6pprust5stateNtB5_5State16print_mutability
librustc_driver-0b75ba01aeee6012.so:_RNvMs3_NtNtCsj89wkcdy9Rv_16rustc_ast_pretty6pprust5stateNtB5_5State17print_generic_arg
librustc_driver-0b75ba01aeee6012.so:_RNvMs3_NtNtCsj89wkcdy9Rv_16rustc_ast_pretty6pprust5stateNtB5_5State17print_type_bounds
librustc_driver-0b75ba01aeee6012.so:_RNvMs3_NtNtCsj89wkcdy9Rv_16rustc_ast_pretty6pprust5stateNtB5_5State18print_opt_lifetime
librustc_driver-0b75ba01aeee6012.so:_RNvMs3_NtNtCsj89wkcdy9Rv_16rustc_ast_pretty6pprust5stateNtB5_5State20print_generic_params
librustc_driver-0b75ba01aeee6012.so:_RNvMs3_NtNtCsj89wkcdy9Rv_16rustc_ast_pretty6pprust5stateNtB5_5State22print_assoc_constraint
librustc_driver-0b75ba01aeee6012.so:_RNvMs3_NtNtCsj89wkcdy9Rv_16rustc_ast_pretty6pprust5stateNtB5_5State3new
librustc_driver-0b75ba01aeee6012.so:_RNvMs3_NtNtCsj89wkcdy9Rv_16rustc_ast_pretty6pprust5stateNtB5_5State9print_pat
librustc_driver-0b75ba01aeee6012.so:_RNvMs3_NtNtNtCs1Br764BqhVG_6object4read2pe6importNtB5_20DelayLoadImportTable11descriptors
librustc_driver-0b75ba01aeee6012.so:_RNvMs3_NtNtNtCs1Br764BqhVG_6object4read2pe6importNtB5_20DelayLoadImportTable3new
librustc_driver-0b75ba01aeee6012.so:_RNvMs3_NtNtNtCs1Br764BqhVG_6object4read2pe6importNtB5_20DelayLoadImportTable4name
librustc_driver-0b75ba01aeee6012.so:_RNvMs3_NtNtNtCs1Br764BqhVG_6object4read2pe6importNtB5_20DelayLoadImportTable6thunks
librustc_driver-0b75ba01aeee6012.so:_RNvMs3_NtNtNtCs1Br764BqhVG_6object4read2pe6importNtB5_20DelayLoadImportTable9hint_name
librustc_driver-0b75ba01aeee6012.so:_RNvMs3_NtNtNtCs1Br764BqhVG_6object4read2pe8resourceNtB5_16ResourceNameOrId2id
librustc_driver-0b75ba01aeee6012.so:_RNvMs3_NtNtNtCs1Br764BqhVG_6object4read2pe8resourceNtB5_16ResourceNameOrId4name
librustc_driver-0b75ba01aeee6012.so:_RNvMs3_NtNtNtCs2zXTrlMMQY6_6object4read2pe8resourceNtB5_16ResourceNameOrId2id
librustc_driver-0b75ba01aeee6012.so:_RNvMs3_NtNtNtCs2zXTrlMMQY6_6object4read2pe8resourceNtB5_16ResourceNameOrId4name
librustc_driver-0b75ba01aeee6012.so:_RNvMs3_NtNtNtCs9UaAlnGT11v_12rustc_middle2ty6consts3intNtB5_9ScalarInt10try_to_i16
librustc_driver-0b75ba01aeee6012.so:_RNvMs3_NtNtNtCs9UaAlnGT11v_12rustc_middle2ty6consts3intNtB5_9ScalarInt10try_to_i32
librustc_driver-0b75ba01aeee6012.so:_RNvMs3_NtNtNtCs9UaAlnGT11v_12rustc_middle2ty6consts3intNtB5_9ScalarInt10try_to_i64
librustc_driver-0b75ba01aeee6012.so:_RNvMs3_NtNtNtCs9UaAlnGT11v_12rustc_middle2ty6consts3intNtB5_9ScalarInt11try_to_i128
librustc_driver-0b75ba01aeee6012.so:_RNvMs3_NtNtNtCs9UaAlnGT11v_12rustc_middle2ty6consts3intNtB5_9ScalarInt9try_to_i8
librustc_driver-0b75ba01aeee6012.so:_RNvMs3_NtNtNtCserdW9TeaKDe_11rustc_infer5infer15error_reporting14need_type_infoNtB9_9InferCtxt34extract_inference_diagnostics_data
librustc_driver-0b75ba01aeee6012.so:_RNvMs3_NtNtNtNtCs9UaAlnGT11v_12rustc_middle3mir9interpret10allocation9init_maskNtB5_8InitCopy13no_bytes_init
librustc_driver-0b75ba01aeee6012.so:_RNvMs3i_NtCs8lLsNL5HvpN_5gimli9constantsNtB6_4DwId13static_string
librustc_driver-0b75ba01aeee6012.so:_RNvMs3u_NtCs8lLsNL5HvpN_5gimli9constantsNtB6_4DwCc13static_string
librustc_driver-0b75ba01aeee6012.so:_RNvMs44_NtCs8lLsNL5HvpN_5gimli9constantsNtB6_5DwDsc13static_string
librustc_driver-0b75ba01aeee6012.so:_RNvMs4E_NtCs8lLsNL5HvpN_5gimli9constantsNtB6_5DwLns13static_string
librustc_driver-0b75ba01aeee6012.so:_RNvMs4Q_NtCs8lLsNL5HvpN_5gimli9constantsNtB6_5DwLne13static_string
librustc_driver-0b75ba01aeee6012.so:_RNvMs4_Cs3gJ41u96r5N_18rustc_codegen_llvmNtB5_18LlvmCodegenBackend3new
librustc_driver-0b75ba01aeee6012.so:_RNvMs4_Cs8QjxJP0DI7Q_8rls_spanINtB5_6ColumnNtB5_11ZeroIndexedE11one_indexed
librustc_driver-0b75ba01aeee6012.so:_RNvMs4_Cs8QjxJP0DI7Q_8rls_spanINtB5_6ColumnNtB5_11ZeroIndexedE16new_zero_indexed
librustc_driver-0b75ba01aeee6012.so:_RNvMs4_Cs9Yk5q5as75h_10rustc_lintNtB5_27BuiltinCombinedLateLintPass3new
librustc_driver-0b75ba01aeee6012.so:_RNvMs4_Cs9Yk5q5as75h_10rustc_lintNtB5_27BuiltinCombinedLateLintPass9get_lints
librustc_driver-0b75ba01aeee6012.so:_RNvMs4_CsakaMy1pI56V_2ccNtB5_5Build10static_crt
librustc_driver-0b75ba01aeee6012.so:_RNvMs4_CsakaMy1pI56V_2ccNtB5_5Build10try_expand
librustc_driver-0b75ba01aeee6012.so:_RNvMs4_CsakaMy1pI56V_2ccNtB5_5Build11shared_flag
librustc_driver-0b75ba01aeee6012.so:_RNvMs4_CsakaMy1pI56V_2ccNtB5_5Build11static_flag
librustc_driver-0b75ba01aeee6012.so:_RNvMs4_CsakaMy1pI56V_2ccNtB5_5Build11try_compile
librustc_driver-0b75ba01aeee6012.so:_RNvMs4_CsakaMy1pI56V_2ccNtB5_5Build12get_compiler
librustc_driver-0b75ba01aeee6012.so:_RNvMs4_CsakaMy1pI56V_2ccNtB5_5Build13opt_level_str
librustc_driver-0b75ba01aeee6012.so:_RNvMs4_CsakaMy1pI56V_2ccNtB5_5Build14cargo_metadata
librustc_driver-0b75ba01aeee6012.so:_RNvMs4_CsakaMy1pI56V_2ccNtB5_5Build14extra_warnings
librustc_driver-0b75ba01aeee6012.so:_RNvMs4_CsakaMy1pI56V_2ccNtB5_5Build16no_default_flags
librustc_driver-0b75ba01aeee6012.so:_RNvMs4_CsakaMy1pI56V_2ccNtB5_5Build16try_get_compiler
librustc_driver-0b75ba01aeee6012.so:_RNvMs4_CsakaMy1pI56V_2ccNtB5_5Build17flag_if_supported
librustc_driver-0b75ba01aeee6012.so:_RNvMs4_CsakaMy1pI56V_2ccNtB5_5Build17is_flag_supported
librustc_driver-0b75ba01aeee6012.so:_RNvMs4_CsakaMy1pI56V_2ccNtB5_5Build17link_lib_modifier
librustc_driver-0b75ba01aeee6012.so:_RNvMs4_CsakaMy1pI56V_2ccNtB5_5Build19force_frame_pointer
librustc_driver-0b75ba01aeee6012.so:_RNvMs4_CsakaMy1pI56V_2ccNtB5_5Build20warnings_into_errors
librustc_driver-0b75ba01aeee6012.so:_RNvMs4_CsakaMy1pI56V_2ccNtB5_5Build25emit_rerun_if_env_changed
librustc_driver-0b75ba01aeee6012.so:_RNvMs4_CsakaMy1pI56V_2ccNtB5_5Build3cpp
librustc_driver-0b75ba01aeee6012.so:_RNvMs4_CsakaMy1pI56V_2ccNtB5_5Build3new
librustc_driver-0b75ba01aeee6012.so:_RNvMs4_CsakaMy1pI56V_2ccNtB5_5Build3pic
librustc_driver-0b75ba01aeee6012.so:_RNvMs4_CsakaMy1pI56V_2ccNtB5_5Build4cuda
librustc_driver-0b75ba01aeee6012.so:_RNvMs4_CsakaMy1pI56V_2ccNtB5_5Build4flag
librustc_driver-0b75ba01aeee6012.so:_RNvMs4_CsakaMy1pI56V_2ccNtB5_5Build4host
librustc_driver-0b75ba01aeee6012.so:_RNvMs4_CsakaMy1pI56V_2ccNtB5_5Build5debug
librustc_driver-0b75ba01aeee6012.so:_RNvMs4_CsakaMy1pI56V_2ccNtB5_5Build6cudart
librustc_driver-0b75ba01aeee6012.so:_RNvMs4_CsakaMy1pI56V_2ccNtB5_5Build6expand
librustc_driver-0b75ba01aeee6012.so:_RNvMs4_CsakaMy1pI56V_2ccNtB5_5Build6target
librustc_driver-0b75ba01aeee6012.so:_RNvMs4_CsakaMy1pI56V_2ccNtB5_5Build7ar_flag
librustc_driver-0b75ba01aeee6012.so:_RNvMs4_CsakaMy1pI56V_2ccNtB5_5Build7compile
librustc_driver-0b75ba01aeee6012.so:_RNvMs4_CsakaMy1pI56V_2ccNtB5_5Build7use_plt
librustc_driver-0b75ba01aeee6012.so:_RNvMs4_CsakaMy1pI56V_2ccNtB5_5Build8asm_flag
librustc_driver-0b75ba01aeee6012.so:_RNvMs4_CsakaMy1pI56V_2ccNtB5_5Build8warnings
librustc_driver-0b75ba01aeee6012.so:_RNvMs4_CsakaMy1pI56V_2ccNtB5_5Build9opt_level
librustc_driver-0b75ba01aeee6012.so:_RNvMs4_CsczMUV2s8Ncb_12rustc_errorsNtB5_17DelayedDiagnostic14with_backtrace
librustc_driver-0b75ba01aeee6012.so:_RNvMs4_CsfgDlnlwzToT_9termcolorNtB5_14StandardStream4lock
librustc_driver-0b75ba01aeee6012.so:_RNvMs4_CsfgDlnlwzToT_9termcolorNtB5_14StandardStream6stderr
librustc_driver-0b75ba01aeee6012.so:_RNvMs4_CsfgDlnlwzToT_9termcolorNtB5_14StandardStream6stdout
librustc_driver-0b75ba01aeee6012.so:_RNvMs4_CsgFkdJhQPPIX_13rustc_type_irNtB5_6UintTy8name_str
librustc_driver-0b75ba01aeee6012.so:_RNvMs4_CsgFkdJhQPPIX_13rustc_type_irNtB5_6UintTy9bit_width
librustc_driver-0b75ba01aeee6012.so:_RNvMs4_CsgFkdJhQPPIX_13rustc_type_irNtB5_6UintTy9normalize
librustc_driver-0b75ba01aeee6012.so:_RNvMs4_CsgbGF1fahqUQ_4odhtNtB5_6Factor10to_percent
librustc_driver-0b75ba01aeee6012.so:_RNvMs4_Csh1oXE7bm4Eb_10rustc_spanNtB5_15FileNameDisplay15to_string_lossy
librustc_driver-0b75ba01aeee6012.so:_RNvMs4_CsiyJNtbvviN4_15rustc_lint_defsNtB5_4Lint10name_lower
librustc_driver-0b75ba01aeee6012.so:_RNvMs4_CsiyJNtbvviN4_15rustc_lint_defsNtB5_4Lint13default_level
librustc_driver-0b75ba01aeee6012.so:_RNvMs4_CsiyJNtbvviN4_15rustc_lint_defsNtB5_4Lint24default_fields_for_macro
librustc_driver-0b75ba01aeee6012.so:_RNvMs4_CsjRjSeHQZpui_16rustc_hir_prettyNtB5_5State14new_from_input
librustc_driver-0b75ba01aeee6012.so:_RNvMs4_CskE3VyvieIqV_14unicode_scriptNtB5_15ScriptExtension10new_common
librustc_driver-0b75ba01aeee6012.so:_RNvMs4_CskE3VyvieIqV_14unicode_scriptNtB5_15ScriptExtension11new_unknown
librustc_driver-0b75ba01aeee6012.so:_RNvMs4_CskE3VyvieIqV_14unicode_scriptNtB5_15ScriptExtension12intersection
librustc_driver-0b75ba01aeee6012.so:_RNvMs4_CskE3VyvieIqV_14unicode_scriptNtB5_15ScriptExtension12is_inherited
librustc_driver-0b75ba01aeee6012.so:_RNvMs4_CskE3VyvieIqV_14unicode_scriptNtB5_15ScriptExtension13new_inherited
librustc_driver-0b75ba01aeee6012.so:_RNvMs4_CskE3VyvieIqV_14unicode_scriptNtB5_15ScriptExtension14intersect_with
librustc_driver-0b75ba01aeee6012.so:_RNvMs4_CskE3VyvieIqV_14unicode_scriptNtB5_15ScriptExtension15contains_script
librustc_driver-0b75ba01aeee6012.so:_RNvMs4_CskE3VyvieIqV_14unicode_scriptNtB5_15ScriptExtension22is_common_or_inherited
librustc_driver-0b75ba01aeee6012.so:_RNvMs4_CskE3VyvieIqV_14unicode_scriptNtB5_15ScriptExtension3len
librustc_driver-0b75ba01aeee6012.so:_RNvMs4_CskE3VyvieIqV_14unicode_scriptNtB5_15ScriptExtension3new
librustc_driver-0b75ba01aeee6012.so:_RNvMs4_CskE3VyvieIqV_14unicode_scriptNtB5_15ScriptExtension4iter
librustc_driver-0b75ba01aeee6012.so:_RNvMs4_CskE3VyvieIqV_14unicode_scriptNtB5_15ScriptExtension5union
librustc_driver-0b75ba01aeee6012.so:_RNvMs4_CskE3VyvieIqV_14unicode_scriptNtB5_15ScriptExtension7for_str
librustc_driver-0b75ba01aeee6012.so:_RNvMs4_CskE3VyvieIqV_14unicode_scriptNtB5_15ScriptExtension8is_empty
librustc_driver-0b75ba01aeee6012.so:_RNvMs4_CskE3VyvieIqV_14unicode_scriptNtB5_15ScriptExtension9is_common
librustc_driver-0b75ba01aeee6012.so:_RNvMs4_CskJTYWfBGr7m_8chalk_irNtB5_13UniverseIndex4next
librustc_driver-0b75ba01aeee6012.so:_RNvMs4_CskJTYWfBGr7m_8chalk_irNtB5_13UniverseIndex4root
librustc_driver-0b75ba01aeee6012.so:_RNvMs4_CskJTYWfBGr7m_8chalk_irNtB5_13UniverseIndex7can_see
librustc_driver-0b75ba01aeee6012.so:_RNvMs4_NtCs1GqRMZUbMGF_16unicode_security12mixed_scriptNtB5_18AugmentedScriptSet14intersect_with
librustc_driver-0b75ba01aeee6012.so:_RNvMs4_NtCs1GqRMZUbMGF_16unicode_security12mixed_scriptNtB5_18AugmentedScriptSet6is_all
librustc_driver-0b75ba01aeee6012.so:_RNvMs4_NtCs1GqRMZUbMGF_16unicode_security12mixed_scriptNtB5_18AugmentedScriptSet7for_str
librustc_driver-0b75ba01aeee6012.so:_RNvMs4_NtCs1GqRMZUbMGF_16unicode_security12mixed_scriptNtB5_18AugmentedScriptSet8for_char
librustc_driver-0b75ba01aeee6012.so:_RNvMs4_NtCs1GqRMZUbMGF_16unicode_security12mixed_scriptNtB5_18AugmentedScriptSet8is_empty
librustc_driver-0b75ba01aeee6012.so:_RNvMs4_NtCs2qkp8pQJBHP_17crossbeam_channel6selectNtB5_6Select10try_select
librustc_driver-0b75ba01aeee6012.so:_RNvMs4_NtCs2qkp8pQJBHP_17crossbeam_channel6selectNtB5_6Select13ready_timeout
librustc_driver-0b75ba01aeee6012.so:_RNvMs4_NtCs2qkp8pQJBHP_17crossbeam_channel6selectNtB5_6Select14ready_deadline
librustc_driver-0b75ba01aeee6012.so:_RNvMs4_NtCs2qkp8pQJBHP_17crossbeam_channel6selectNtB5_6Select14select_timeout
librustc_driver-0b75ba01aeee6012.so:_RNvMs4_NtCs2qkp8pQJBHP_17crossbeam_channel6selectNtB5_6Select15select_deadline
librustc_driver-0b75ba01aeee6012.so:_RNvMs4_NtCs2qkp8pQJBHP_17crossbeam_channel6selectNtB5_6Select3new
librustc_driver-0b75ba01aeee6012.so:_RNvMs4_NtCs2qkp8pQJBHP_17crossbeam_channel6selectNtB5_6Select5ready
librustc_driver-0b75ba01aeee6012.so:_RNvMs4_NtCs2qkp8pQJBHP_17crossbeam_channel6selectNtB5_6Select6remove
librustc_driver-0b75ba01aeee6012.so:_RNvMs4_NtCs2qkp8pQJBHP_17crossbeam_channel6selectNtB5_6Select6select
librustc_driver-0b75ba01aeee6012.so:_RNvMs4_NtCs2qkp8pQJBHP_17crossbeam_channel6selectNtB5_6Select9try_ready
librustc_driver-0b75ba01aeee6012.so:_RNvMs4_NtCs5ESSSXQhO3H_12regex_syntax3hirNtB5_7HirKind12has_subexprs
librustc_driver-0b75ba01aeee6012.so:_RNvMs4_NtCs5ESSSXQhO3H_12regex_syntax3hirNtB5_7HirKind8is_empty
librustc_driver-0b75ba01aeee6012.so:_RNvMs4_NtCs7nHlYWzWSzq_11rustc_parse6parserNtB5_6Parser11eat_keyword
librustc_driver-0b75ba01aeee6012.so:_RNvMs4_NtCs7nHlYWzWSzq_11rustc_parse6parserNtB5_6Parser11parse_ident
librustc_driver-0b75ba01aeee6012.so:_RNvMs4_NtCs7nHlYWzWSzq_11rustc_parse6parserNtB5_6Parser12eat_noexpect
librustc_driver-0b75ba01aeee6012.so:_RNvMs4_NtCs7nHlYWzWSzq_11rustc_parse6parserNtB5_6Parser12parse_tokens
librustc_driver-0b75ba01aeee6012.so:_RNvMs4_NtCs7nHlYWzWSzq_11rustc_parse6parserNtB5_6Parser13expect_one_of
librustc_driver-0b75ba01aeee6012.so:_RNvMs4_NtCs7nHlYWzWSzq_11rustc_parse6parserNtB5_6Parser16parse_token_tree
librustc_driver-0b75ba01aeee6012.so:_RNvMs4_NtCs7nHlYWzWSzq_11rustc_parse6parserNtB5_6Parser16parse_visibility
librustc_driver-0b75ba01aeee6012.so:_RNvMs4_NtCs7nHlYWzWSzq_11rustc_parse6parserNtB5_6Parser21clear_expected_tokens
librustc_driver-0b75ba01aeee6012.so:_RNvMs4_NtCs7nHlYWzWSzq_11rustc_parse6parserNtB5_6Parser21parse_all_token_trees
librustc_driver-0b75ba01aeee6012.so:_RNvMs4_NtCs7nHlYWzWSzq_11rustc_parse6parserNtB5_6Parser23approx_token_stream_pos
librustc_driver-0b75ba01aeee6012.so:_RNvMs4_NtCs7nHlYWzWSzq_11rustc_parse6parserNtB5_6Parser3eat
librustc_driver-0b75ba01aeee6012.so:_RNvMs4_NtCs7nHlYWzWSzq_11rustc_parse6parserNtB5_6Parser3new
librustc_driver-0b75ba01aeee6012.so:_RNvMs4_NtCs7nHlYWzWSzq_11rustc_parse6parserNtB5_6Parser4bump
librustc_driver-0b75ba01aeee6012.so:_RNvMs4_NtCs7nHlYWzWSzq_11rustc_parse6parserNtB5_6Parser6expect
librustc_driver-0b75ba01aeee6012.so:_RNvMs4_NtCs7nHlYWzWSzq_11rustc_parse6parserNtB5_6Parser8recovery
librustc_driver-0b75ba01aeee6012.so:_RNvMs4_NtCs8AvggvKXVYZ_6memchr6memmemNtB5_13FinderBuilder3new
librustc_driver-0b75ba01aeee6012.so:_RNvMs4_NtCs8AvggvKXVYZ_6memchr6memmemNtB5_13FinderBuilder9prefilter
librustc_driver-0b75ba01aeee6012.so:_RNvMs4_NtCs9KpYfezRtzb_9rustc_ast3astNtB5_11PathSegment10from_ident
librustc_driver-0b75ba01aeee6012.so:_RNvMs4_NtCs9KpYfezRtzb_9rustc_ast3astNtB5_11PathSegment4span
librustc_driver-0b75ba01aeee6012.so:_RNvMs4_NtCs9KpYfezRtzb_9rustc_ast3astNtB5_11PathSegment9path_root
librustc_driver-0b75ba01aeee6012.so:_RNvMs4_NtCs9KpYfezRtzb_9rustc_ast4attrNtB5_15AttrIdGenerator10mk_attr_id
librustc_driver-0b75ba01aeee6012.so:_RNvMs4_NtCs9KpYfezRtzb_9rustc_ast4attrNtB5_15AttrIdGenerator3new
librustc_driver-0b75ba01aeee6012.so:_RNvMs4_NtCs9UaAlnGT11v_12rustc_middle3mirNtB5_4Body11source_info
librustc_driver-0b75ba01aeee6012.so:_RNvMs4_NtCs9UaAlnGT11v_12rustc_middle3mirNtB5_4Body12new_cfg_only
librustc_driver-0b75ba01aeee6012.so:_RNvMs4_NtCs9UaAlnGT11v_12rustc_middle3mirNtB5_4Body3new
librustc_driver-0b75ba01aeee6012.so:_RNvMs4_NtCs9UaAlnGT11v_12rustc_middle3mirNtB5_4Body7stmt_at
librustc_driver-0b75ba01aeee6012.so:_RNvMs4_NtCs9Yk5q5as75h_10rustc_lint7builtinNtB5_10MissingDoc10doc_hidden
librustc_driver-0b75ba01aeee6012.so:_RNvMs4_NtCs9Yk5q5as75h_10rustc_lint7builtinNtB5_10MissingDoc3new
librustc_driver-0b75ba01aeee6012.so:_RNvMs4_NtCs9Yk5q5as75h_10rustc_lint7contextNtB5_11LateContext12get_def_path
librustc_driver-0b75ba01aeee6012.so:_RNvMs4_NtCs9Yk5q5as75h_10rustc_lint7contextNtB5_11LateContext14match_def_path
librustc_driver-0b75ba01aeee6012.so:_RNvMs4_NtCs9Yk5q5as75h_10rustc_lint7contextNtB5_11LateContext14typeck_results
librustc_driver-0b75ba01aeee6012.so:_RNvMs4_NtCs9Yk5q5as75h_10rustc_lint7contextNtB5_11LateContext19get_associated_type
librustc_driver-0b75ba01aeee6012.so:_RNvMs4_NtCs9Yk5q5as75h_10rustc_lint7contextNtB5_11LateContext20maybe_typeck_results
librustc_driver-0b75ba01aeee6012.so:_RNvMs4_NtCs9Yk5q5as75h_10rustc_lint7contextNtB5_11LateContext9qpath_res
librustc_driver-0b75ba01aeee6012.so:_RNvMs4_NtCs9fJVnCDuQRQ_9rustc_hir11definitionsNtB5_11DefPathData12get_opt_name
librustc_driver-0b75ba01aeee6012.so:_RNvMs4_NtCs9fJVnCDuQRQ_9rustc_hir11definitionsNtB5_11DefPathData4name
librustc_driver-0b75ba01aeee6012.so:_RNvMs4_NtCs9fJVnCDuQRQ_9rustc_hir3hirNtB5_8InferArg5to_ty
librustc_driver-0b75ba01aeee6012.so:_RNvMs4_NtCs9xF1GXCZqXD_18rustc_mir_dataflow14value_analysisNtB5_3Map10make_place
librustc_driver-0b75ba01aeee6012.so:_RNvMs4_NtCs9xF1GXCZqXD_18rustc_mir_dataflow14value_analysisNtB5_3Map14tracked_places
librustc_driver-0b75ba01aeee6012.so:_RNvMs4_NtCs9xF1GXCZqXD_18rustc_mir_dataflow14value_analysisNtB5_3Map3new
librustc_driver-0b75ba01aeee6012.so:_RNvMs4_NtCs9xF1GXCZqXD_18rustc_mir_dataflow14value_analysisNtB5_3Map4find
librustc_driver-0b75ba01aeee6012.so:_RNvMs4_NtCs9xF1GXCZqXD_18rustc_mir_dataflow14value_analysisNtB5_3Map5apply
librustc_driver-0b75ba01aeee6012.so:_RNvMs4_NtCs9xF1GXCZqXD_18rustc_mir_dataflow14value_analysisNtB5_3Map8children
librustc_driver-0b75ba01aeee6012.so:_RNvMs4_NtCs9xF1GXCZqXD_18rustc_mir_dataflow5implsNtB5_21EverInitializedPlaces3new
librustc_driver-0b75ba01aeee6012.so:_RNvMs4_NtCsBLdkomj5WW_13rustc_session6configNtB5_10OutputType9extension
librustc_driver-0b75ba01aeee6012.so:_RNvMs4_NtCsBLdkomj5WW_13rustc_session7sessionNtB5_7Session10crt_static
librustc_driver-0b75ba01aeee6012.so:_RNvMs4_NtCsBLdkomj5WW_13rustc_session7sessionNtB5_7Session10has_errors
librustc_driver-0b75ba01aeee6012.so:_RNvMs4_NtCsBLdkomj5WW_13rustc_session7sessionNtB5_7Session11crate_types
librustc_driver-0b75ba01aeee6012.so:_RNvMs4_NtCsBLdkomj5WW_13rustc_session7sessionNtB5_7Session12find_by_name
librustc_driver-0b75ba01aeee6012.so:_RNvMs4_NtCsBLdkomj5WW_13rustc_session7sessionNtB5_7Session13contains_name
librustc_driver-0b75ba01aeee6012.so:_RNvMs4_NtCsBLdkomj5WW_13rustc_session7sessionNtB5_7Session13init_features
librustc_driver-0b75ba01aeee6012.so:_RNvMs4_NtCsBLdkomj5WW_13rustc_session7sessionNtB5_7Session14compile_status
librustc_driver-0b75ba01aeee6012.so:_RNvMs4_NtCsBLdkomj5WW_13rustc_session7sessionNtB5_7Session14filter_by_name
librustc_driver-0b75ba01aeee6012.so:_RNvMs4_NtCsBLdkomj5WW_13rustc_session7sessionNtB5_7Session15abort_if_errors
librustc_driver-0b75ba01aeee6012.so:_RNvMs4_NtCsBLdkomj5WW_13rustc_session7sessionNtB5_7Session15host_filesearch
librustc_driver-0b75ba01aeee6012.so:_RNvMs4_NtCsBLdkomj5WW_13rustc_session7sessionNtB5_7Session15is_wasi_reactor
librustc_driver-0b75ba01aeee6012.so:_RNvMs4_NtCsBLdkomj5WW_13rustc_session7sessionNtB5_7Session16diagnostic_width
librustc_driver-0b75ba01aeee6012.so:_RNvMs4_NtCsBLdkomj5WW_13rustc_session7sessionNtB5_7Session16init_crate_types
librustc_driver-0b75ba01aeee6012.so:_RNvMs4_NtCsBLdkomj5WW_13rustc_session7sessionNtB5_7Session16print_perf_stats
librustc_driver-0b75ba01aeee6012.so:_RNvMs4_NtCsBLdkomj5WW_13rustc_session7sessionNtB5_7Session17target_filesearch
librustc_driver-0b75ba01aeee6012.so:_RNvMs4_NtCsBLdkomj5WW_13rustc_session7sessionNtB5_7Session18finish_diagnostics
librustc_driver-0b75ba01aeee6012.so:_RNvMs4_NtCsBLdkomj5WW_13rustc_session7sessionNtB5_7Session18is_proc_macro_attr
librustc_driver-0b75ba01aeee6012.so:_RNvMs4_NtCsBLdkomj5WW_13rustc_session7sessionNtB5_7Session19instrument_coverage
librustc_driver-0b75ba01aeee6012.so:_RNvMs4_NtCsBLdkomj5WW_13rustc_session7sessionNtB5_7Session21emit_lifetime_markers
librustc_driver-0b75ba01aeee6012.so:_RNvMs4_NtCsBLdkomj5WW_13rustc_session7sessionNtB5_7Session21enable_internal_lints
librustc_driver-0b75ba01aeee6012.so:_RNvMs4_NtCsBLdkomj5WW_13rustc_session7sessionNtB5_7Session21incr_comp_session_dir
librustc_driver-0b75ba01aeee6012.so:_RNvMs4_NtCsBLdkomj5WW_13rustc_session7sessionNtB5_7Session21local_stable_crate_id
librustc_driver-0b75ba01aeee6012.so:_RNvMs4_NtCsBLdkomj5WW_13rustc_session7sessionNtB5_7Session22get_tools_search_paths
librustc_driver-0b75ba01aeee6012.so:_RNvMs4_NtCsBLdkomj5WW_13rustc_session7sessionNtB5_7Session22init_incr_comp_session
librustc_driver-0b75ba01aeee6012.so:_RNvMs4_NtCsBLdkomj5WW_13rustc_session7sessionNtB5_7Session22miri_unleashed_feature
librustc_driver-0b75ba01aeee6012.so:_RNvMs4_NtCsBLdkomj5WW_13rustc_session7sessionNtB5_7Session23local_crate_source_file
librustc_driver-0b75ba01aeee6012.so:_RNvMs4_NtCsBLdkomj5WW_13rustc_session7sessionNtB5_7Session24is_sanitizer_cfi_enabled
librustc_driver-0b75ba01aeee6012.so:_RNvMs4_NtCsBLdkomj5WW_13rustc_session7sessionNtB5_7Session25incr_comp_session_dir_opt
librustc_driver-0b75ba01aeee6012.so:_RNvMs4_NtCsBLdkomj5WW_13rustc_session7sessionNtB5_7Session25is_sanitizer_kcfi_enabled
librustc_driver-0b75ba01aeee6012.so:_RNvMs4_NtCsBLdkomj5WW_13rustc_session7sessionNtB5_7Session26finalize_incr_comp_session
librustc_driver-0b75ba01aeee6012.so:_RNvMs4_NtCsBLdkomj5WW_13rustc_session7sessionNtB5_7Session26target_can_use_split_dwarf
librustc_driver-0b75ba01aeee6012.so:_RNvMs4_NtCsBLdkomj5WW_13rustc_session7sessionNtB5_7Session28first_attr_value_str_by_name
librustc_driver-0b75ba01aeee6012.so:_RNvMs4_NtCsBLdkomj5WW_13rustc_session7sessionNtB5_7Session28is_compilation_going_to_fail
librustc_driver-0b75ba01aeee6012.so:_RNvMs4_NtCsBLdkomj5WW_13rustc_session7sessionNtB5_7Session31has_errors_or_delayed_span_bugs
librustc_driver-0b75ba01aeee6012.so:_RNvMs4_NtCsBLdkomj5WW_13rustc_session7sessionNtB5_7Session32generate_proc_macro_decls_symbol
librustc_driver-0b75ba01aeee6012.so:_RNvMs4_NtCsBLdkomj5WW_13rustc_session7sessionNtB5_7Session33mark_incr_comp_session_as_invalid
librustc_driver-0b75ba01aeee6012.so:_RNvMs4_NtCsBLdkomj5WW_13rustc_session7sessionNtB5_7Session42instrument_coverage_except_unused_generics
librustc_driver-0b75ba01aeee6012.so:_RNvMs4_NtCsBLdkomj5WW_13rustc_session7sessionNtB5_7Session43instrument_coverage_except_unused_functions
librustc_driver-0b75ba01aeee6012.so:_RNvMs4_NtCsBLdkomj5WW_13rustc_session7sessionNtB5_7Session9needs_plt
librustc_driver-0b75ba01aeee6012.so:_RNvMs4_NtCsBLdkomj5WW_13rustc_session7sessionNtB5_7Session9rust_2015
librustc_driver-0b75ba01aeee6012.so:_RNvMs4_NtCsBLdkomj5WW_13rustc_session7sessionNtB5_7Session9rust_2018
librustc_driver-0b75ba01aeee6012.so:_RNvMs4_NtCsBLdkomj5WW_13rustc_session7sessionNtB5_7Session9rust_2021
librustc_driver-0b75ba01aeee6012.so:_RNvMs4_NtCsBLdkomj5WW_13rustc_session7sessionNtB5_7Session9rust_2024
librustc_driver-0b75ba01aeee6012.so:_RNvMs4_NtCsczMUV2s8Ncb_12rustc_errors10diagnosticNtB5_10Diagnostic10clear_code
librustc_driver-0b75ba01aeee6012.so:_RNvMs4_NtCsczMUV2s8Ncb_12rustc_errors10diagnosticNtB5_10Diagnostic11set_is_lint
librustc_driver-0b75ba01aeee6012.so:_RNvMs4_NtCsczMUV2s8Ncb_12rustc_errors10diagnosticNtB5_10Diagnostic12replace_args
librustc_driver-0b75ba01aeee6012.so:_RNvMs4_NtCsczMUV2s8Ncb_12rustc_errors10diagnosticNtB5_10Diagnostic13is_force_warn
librustc_driver-0b75ba01aeee6012.so:_RNvMs4_NtCsczMUV2s8Ncb_12rustc_errors10diagnosticNtB5_10Diagnostic14styled_message
librustc_driver-0b75ba01aeee6012.so:_RNvMs4_NtCsczMUV2s8Ncb_12rustc_errors10diagnosticNtB5_10Diagnostic15push_suggestion
librustc_driver-0b75ba01aeee6012.so:_RNvMs4_NtCsczMUV2s8Ncb_12rustc_errors10diagnosticNtB5_10Diagnostic16highlighted_help
librustc_driver-0b75ba01aeee6012.so:_RNvMs4_NtCsczMUV2s8Ncb_12rustc_errors10diagnosticNtB5_10Diagnostic17clear_suggestions
librustc_driver-0b75ba01aeee6012.so:_RNvMs4_NtCsczMUV2s8Ncb_12rustc_errors10diagnosticNtB5_10Diagnostic17new_with_messages
librustc_driver-0b75ba01aeee6012.so:_RNvMs4_NtCsczMUV2s8Ncb_12rustc_errors10diagnosticNtB5_10Diagnostic17replace_span_with
librustc_driver-0b75ba01aeee6012.so:_RNvMs4_NtCsczMUV2s8Ncb_12rustc_errors10diagnosticNtB5_10Diagnostic19disable_suggestions
librustc_driver-0b75ba01aeee6012.so:_RNvMs4_NtCsczMUV2s8Ncb_12rustc_errors10diagnosticNtB5_10Diagnostic19has_future_breakage
librustc_driver-0b75ba01aeee6012.so:_RNvMs4_NtCsczMUV2s8Ncb_12rustc_errors10diagnosticNtB5_10Diagnostic19note_expected_found
librustc_driver-0b75ba01aeee6012.so:_RNvMs4_NtCsczMUV2s8Ncb_12rustc_errors10diagnosticNtB5_10Diagnostic20note_trait_signature
librustc_driver-0b75ba01aeee6012.so:_RNvMs4_NtCsczMUV2s8Ncb_12rustc_errors10diagnosticNtB5_10Diagnostic23help_use_latest_edition
librustc_driver-0b75ba01aeee6012.so:_RNvMs4_NtCsczMUV2s8Ncb_12rustc_errors10diagnosticNtB5_10Diagnostic24downgrade_to_delayed_bug
librustc_driver-0b75ba01aeee6012.so:_RNvMs4_NtCsczMUV2s8Ncb_12rustc_errors10diagnosticNtB5_10Diagnostic25note_expected_found_extra
librustc_driver-0b75ba01aeee6012.so:_RNvMs4_NtCsczMUV2s8Ncb_12rustc_errors10diagnosticNtB5_10Diagnostic26note_unsuccessful_coercion
librustc_driver-0b75ba01aeee6012.so:_RNvMs4_NtCsczMUV2s8Ncb_12rustc_errors10diagnosticNtB5_10Diagnostic30update_unstable_expectation_id
librustc_driver-0b75ba01aeee6012.so:_RNvMs4_NtCsczMUV2s8Ncb_12rustc_errors10diagnosticNtB5_10Diagnostic4args
librustc_driver-0b75ba01aeee6012.so:_RNvMs4_NtCsczMUV2s8Ncb_12rustc_errors10diagnosticNtB5_10Diagnostic4code
librustc_driver-0b75ba01aeee6012.so:_RNvMs4_NtCsczMUV2s8Ncb_12rustc_errors10diagnosticNtB5_10Diagnostic4keys
librustc_driver-0b75ba01aeee6012.so:_RNvMs4_NtCsczMUV2s8Ncb_12rustc_errors10diagnosticNtB5_10Diagnostic8get_code
librustc_driver-0b75ba01aeee6012.so:_RNvMs4_NtCsczMUV2s8Ncb_12rustc_errors10diagnosticNtB5_10Diagnostic8is_error
librustc_driver-0b75ba01aeee6012.so:_RNvMs4_NtCsdSVoBVyZlHf_9measureme13serializationNtB5_17SerializationSink10into_bytes
librustc_driver-0b75ba01aeee6012.so:_RNvMs4_NtCsdSVoBVyZlHf_9measureme13serializationNtB5_17SerializationSink12as_std_write
librustc_driver-0b75ba01aeee6012.so:_RNvMs4_NtCsdSVoBVyZlHf_9measureme13serializationNtB5_17SerializationSink18write_bytes_atomic
librustc_driver-0b75ba01aeee6012.so:_RNvMs4_NtCsdSVoBVyZlHf_9measureme13serializationNtB5_17SerializationSink5flush
librustc_driver-0b75ba01aeee6012.so:_RNvMs4_NtCsh1oXE7bm4Eb_10rustc_span6def_idNtB5_13StableCrateId3new
librustc_driver-0b75ba01aeee6012.so:_RNvMs4_NtCsh1oXE7bm4Eb_10rustc_span6def_idNtB5_13StableCrateId6to_u64
librustc_driver-0b75ba01aeee6012.so:_RNvMs4_NtCsh1oXE7bm4Eb_10rustc_span7hygieneNtB5_11HygieneData10outer_expn
librustc_driver-0b75ba01aeee6012.so:_RNvMs4_NtCsh1oXE7bm4Eb_10rustc_span7hygieneNtB5_11HygieneData10outer_mark
librustc_driver-0b75ba01aeee6012.so:_RNvMs4_NtCsh1oXE7bm4Eb_10rustc_span7hygieneNtB5_11HygieneData15local_expn_data
librustc_driver-0b75ba01aeee6012.so:_RNvMs4_NtCsh1oXE7bm4Eb_10rustc_span7hygieneNtB5_11HygieneData16is_descendant_of
librustc_driver-0b75ba01aeee6012.so:_RNvMs4_NtCsh1oXE7bm4Eb_10rustc_span7hygieneNtB5_11HygieneData23normalize_to_macros_2_0
librustc_driver-0b75ba01aeee6012.so:_RNvMs4_NtCsh1oXE7bm4Eb_10rustc_span7hygieneNtB5_11HygieneData24normalize_to_macro_rules
librustc_driver-0b75ba01aeee6012.so:_RNvMs4_NtCsh1oXE7bm4Eb_10rustc_span7hygieneNtB5_11HygieneData9expn_data
librustc_driver-0b75ba01aeee6012.so:_RNvMs4_NtCshn1YiuQfVU7_12rustc_target4specNtB5_10RelroLevel4desc
librustc_driver-0b75ba01aeee6012.so:_RNvMs4_NtCsiEeU9cRUvPU_12rustc_expand4baseNtB5_11DummyResult3any
librustc_driver-0b75ba01aeee6012.so:_RNvMs4_NtCsiEeU9cRUvPU_12rustc_expand4baseNtB5_11DummyResult6raw_ty
librustc_driver-0b75ba01aeee6012.so:_RNvMs4_NtCsiEeU9cRUvPU_12rustc_expand4baseNtB5_11DummyResult7raw_pat
librustc_driver-0b75ba01aeee6012.so:_RNvMs4_NtCsiEeU9cRUvPU_12rustc_expand4baseNtB5_11DummyResult8raw_expr
librustc_driver-0b75ba01aeee6012.so:_RNvMs4_NtCsiEeU9cRUvPU_12rustc_expand4baseNtB5_11DummyResult9any_valid
librustc_driver-0b75ba01aeee6012.so:_RNvMs4_NtCsjwWoBr4mZn4_5regex4progNtB5_9InstBytes7matches
librustc_driver-0b75ba01aeee6012.so:_RNvMs4_NtCsjwWoBr4mZn4_5regex8re_bytesNtB5_5Regex13captures_iter
librustc_driver-0b75ba01aeee6012.so:_RNvMs4_NtCsjwWoBr4mZn4_5regex8re_bytesNtB5_5Regex3new
librustc_driver-0b75ba01aeee6012.so:_RNvMs4_NtCsjwWoBr4mZn4_5regex8re_bytesNtB5_5Regex4find
librustc_driver-0b75ba01aeee6012.so:_RNvMs4_NtCsjwWoBr4mZn4_5regex8re_bytesNtB5_5Regex5split
librustc_driver-0b75ba01aeee6012.so:_RNvMs4_NtCsjwWoBr4mZn4_5regex8re_bytesNtB5_5Regex6splitn
librustc_driver-0b75ba01aeee6012.so:_RNvMs4_NtCsjwWoBr4mZn4_5regex8re_bytesNtB5_5Regex8captures
librustc_driver-0b75ba01aeee6012.so:_RNvMs4_NtCsjwWoBr4mZn4_5regex8re_bytesNtB5_5Regex8is_match
librustc_driver-0b75ba01aeee6012.so:_RNvMs4_NtCsjwWoBr4mZn4_5regex8re_bytesNtB5_5Regex9find_iter
librustc_driver-0b75ba01aeee6012.so:_RNvMs4_NtCsl3oRsZZKr3x_15rustc_interface7queriesNtB5_6Linker4link
librustc_driver-0b75ba01aeee6012.so:_RNvMs4_NtNtCs2ANZbKq4FAi_18tracing_subscriber6filter13layer_filtersNtB5_8FilterId11is_disabled
librustc_driver-0b75ba01aeee6012.so:_RNvMs4_NtNtCs2ANZbKq4FAi_18tracing_subscriber6filter13layer_filtersNtB5_8FilterId3and
librustc_driver-0b75ba01aeee6012.so:_RNvMs4_NtNtCs2ANZbKq4FAi_18tracing_subscriber6filter13layer_filtersNtB5_8FilterId4none
librustc_driver-0b75ba01aeee6012.so:_RNvMs4_NtNtCs2ANZbKq4FAi_18tracing_subscriber6filter13layer_filtersNtB5_8FilterId8disabled
librustc_driver-0b75ba01aeee6012.so:_RNvMs4_NtNtCs2ANZbKq4FAi_18tracing_subscriber6filter9directiveINtB5_12DirectiveSetNtB5_15StaticDirectiveE7enabled
librustc_driver-0b75ba01aeee6012.so:_RNvMs4_NtNtCs56hrLJnUVy1_13fluent_bundle5types6numberNtB5_12FluentNumber3new
librustc_driver-0b75ba01aeee6012.so:_RNvMs4_NtNtCs56hrLJnUVy1_13fluent_bundle5types6numberNtB5_12FluentNumber9as_string
librustc_driver-0b75ba01aeee6012.so:_RNvMs4_NtNtCs8lLsNL5HvpN_5gimli4read6abbrevNtB5_12Abbreviation3new
librustc_driver-0b75ba01aeee6012.so:_RNvMs4_NtNtCs93julGFyfmy_10serde_json5value2deNtB5_15SeqDeserializer3new
librustc_driver-0b75ba01aeee6012.so:_RNvMs4_NtNtCs9UaAlnGT11v_12rustc_middle2ty3styNtB5_17InlineConstSubsts13parent_substs
librustc_driver-0b75ba01aeee6012.so:_RNvMs4_NtNtCs9UaAlnGT11v_12rustc_middle2ty3styNtB5_17InlineConstSubsts2ty
librustc_driver-0b75ba01aeee6012.so:_RNvMs4_NtNtCs9UaAlnGT11v_12rustc_middle2ty3styNtB5_17InlineConstSubsts3new
librustc_driver-0b75ba01aeee6012.so:_RNvMs4_NtNtCs9UaAlnGT11v_12rustc_middle2ty5visitNtB5_25LateBoundRegionsCollector3new
librustc_driver-0b75ba01aeee6012.so:_RNvMs4_NtNtCs9UaAlnGT11v_12rustc_middle3mir10terminatorNtNtB7_6syntax14TerminatorKind20fmt_successor_labels
librustc_driver-0b75ba01aeee6012.so:_RNvMs4_NtNtCs9UaAlnGT11v_12rustc_middle3mir3tcxNtNtB7_6syntax10BorrowKind14to_mutbl_lossy
librustc_driver-0b75ba01aeee6012.so:_RNvMs4_NtNtCs9UaAlnGT11v_12rustc_middle3mir9interpretNtNtNtB9_2ty7context6TyCtxt15create_fn_alloc
librustc_driver-0b75ba01aeee6012.so:_RNvMs4_NtNtCs9UaAlnGT11v_12rustc_middle3mir9interpretNtNtNtB9_2ty7context6TyCtxt16reserve_alloc_id
librustc_driver-0b75ba01aeee6012.so:_RNvMs4_NtNtCs9UaAlnGT11v_12rustc_middle3mir9interpretNtNtNtB9_2ty7context6TyCtxt19create_memory_alloc
librustc_driver-0b75ba01aeee6012.so:_RNvMs4_NtNtCs9UaAlnGT11v_12rustc_middle3mir9interpretNtNtNtB9_2ty7context6TyCtxt19create_static_alloc
librustc_driver-0b75ba01aeee6012.so:_RNvMs4_NtNtCs9UaAlnGT11v_12rustc_middle3mir9interpretNtNtNtB9_2ty7context6TyCtxt19create_vtable_alloc
librustc_driver-0b75ba01aeee6012.so:_RNvMs4_NtNtCs9UaAlnGT11v_12rustc_middle3mir9interpretNtNtNtB9_2ty7context6TyCtxt19set_alloc_id_memory
librustc_driver-0b75ba01aeee6012.so:_RNvMs4_NtNtCs9UaAlnGT11v_12rustc_middle3mir9interpretNtNtNtB9_2ty7context6TyCtxt24set_alloc_id_same_memory
librustc_driver-0b75ba01aeee6012.so:_RNvMs4_NtNtCs9UaAlnGT11v_12rustc_middle5infer9canonicalNtB5_9Certainty9is_proven
librustc_driver-0b75ba01aeee6012.so:_RNvMs4_NtNtCsavxwT4AFUQ9_15crossbeam_utils4sync6parkerNtB5_8Unparker6unpark
librustc_driver-0b75ba01aeee6012.so:_RNvMs4_NtNtCsavxwT4AFUQ9_15crossbeam_utils4sync6parkerNtB5_8Unparker8from_raw
librustc_driver-0b75ba01aeee6012.so:_RNvMs4_NtNtCsavxwT4AFUQ9_15crossbeam_utils4sync6parkerNtB5_8Unparker8into_raw
librustc_driver-0b75ba01aeee6012.so:_RNvMs4_NtNtCsbQUXP7oyqOP_21rustc_trait_selection6traits15error_reportingNtB5_7ArgKind16from_expected_ty
librustc_driver-0b75ba01aeee6012.so:_RNvMs4_NtNtCsbzNEmrZraM0_18rustc_query_system9dep_graph5graphNtB5_15DepNodeColorMap3new
librustc_driver-0b75ba01aeee6012.so:_RNvMs4_NtNtCsbzNEmrZraM0_18rustc_query_system9dep_graph5graphNtB5_15DepNodeColorMap6insert
librustc_driver-0b75ba01aeee6012.so:_RNvMs4_NtNtCserdW9TeaKDe_11rustc_infer5infer13type_variableNtB5_19TypeVariableStorage3new
librustc_driver-0b75ba01aeee6012.so:_RNvMs4_NtNtNtCs1Br764BqhVG_6object4read2pe6importNtB5_27DelayLoadDescriptorIterator4next
librustc_driver-0b75ba01aeee6012.so:_RNvMs4_NtNtNtCs1Br764BqhVG_6object4read2pe7sectionNtNtNtB9_4coff7section12SectionTable16pe_file_range_at
librustc_driver-0b75ba01aeee6012.so:_RNvMs4_NtNtNtCs1Br764BqhVG_6object4read2pe7sectionNtNtNtB9_4coff7section12SectionTable18section_containing
librustc_driver-0b75ba01aeee6012.so:_RNvMs4_NtNtNtCs2ANZbKq4FAi_18tracing_subscriber3fmt6format6prettyNtB5_12PrettyFields3new
librustc_driver-0b75ba01aeee6012.so:_RNvMs4_NtNtNtCs2ANZbKq4FAi_18tracing_subscriber3fmt6format6prettyNtB5_12PrettyFields9with_ansi
librustc_driver-0b75ba01aeee6012.so:_RNvMs4_NtNtNtCs2BBApAlL7Qg_15rustc_mir_build4thir7pattern15deconstruct_patNtB5_11Constructor17is_covered_by_any
librustc_driver-0b75ba01aeee6012.so:_RNvMs4_NtNtNtCs2zXTrlMMQY6_6object4read2pe7sectionNtNtNtB9_4coff7section12SectionTable16pe_file_range_at
librustc_driver-0b75ba01aeee6012.so:_RNvMs4_NtNtNtCs2zXTrlMMQY6_6object4read2pe7sectionNtNtNtB9_4coff7section12SectionTable18section_containing
librustc_driver-0b75ba01aeee6012.so:_RNvMs4_NtNtNtCserdW9TeaKDe_11rustc_infer5infer15error_reporting14need_type_infoNtB7_11TypeErrCtxt26emit_inference_failure_err
librustc_driver-0b75ba01aeee6012.so:_RNvMs4_NtNtNtNtCs9UaAlnGT11v_12rustc_middle3mir9interpret10allocation9init_maskNtB5_8InitMask10apply_copy
librustc_driver-0b75ba01aeee6012.so:_RNvMs4_NtNtNtNtCs9UaAlnGT11v_12rustc_middle3mir9interpret10allocation9init_maskNtB5_8InitMask12prepare_copy
librustc_driver-0b75ba01aeee6012.so:_RNvMs4g_NtCs8lLsNL5HvpN_5gimli9constantsNtB6_5DwIdx13static_string
librustc_driver-0b75ba01aeee6012.so:_RNvMs4s_NtCs8lLsNL5HvpN_5gimli9constantsNtB6_11DwDefaulted13static_string
librustc_driver-0b75ba01aeee6012.so:_RNvMs52_NtCs8lLsNL5HvpN_5gimli9constantsNtB6_6DwLnct13static_string
librustc_driver-0b75ba01aeee6012.so:_RNvMs5C_NtCs8lLsNL5HvpN_5gimli9constantsNtB6_4DwOp13static_string
librustc_driver-0b75ba01aeee6012.so:_RNvMs5O_NtCs8lLsNL5HvpN_5gimli9constantsNtB6_6DwEhPe13static_string
librustc_driver-0b75ba01aeee6012.so:_RNvMs5_Cs7NPstCHd46s_7memmap2NtB5_7MmapMut11flush_async
librustc_driver-0b75ba01aeee6012.so:_RNvMs5_Cs7NPstCHd46s_7memmap2NtB5_7MmapMut11flush_range
librustc_driver-0b75ba01aeee6012.so:_RNvMs5_Cs7NPstCHd46s_7memmap2NtB5_7MmapMut14make_read_only
librustc_driver-0b75ba01aeee6012.so:_RNvMs5_Cs7NPstCHd46s_7memmap2NtB5_7MmapMut17flush_async_range
librustc_driver-0b75ba01aeee6012.so:_RNvMs5_Cs7NPstCHd46s_7memmap2NtB5_7MmapMut5flush
librustc_driver-0b75ba01aeee6012.so:_RNvMs5_Cs7NPstCHd46s_7memmap2NtB5_7MmapMut7map_mut
librustc_driver-0b75ba01aeee6012.so:_RNvMs5_Cs7NPstCHd46s_7memmap2NtB5_7MmapMut8map_anon
librustc_driver-0b75ba01aeee6012.so:_RNvMs5_Cs7NPstCHd46s_7memmap2NtB5_7MmapMut9make_exec
librustc_driver-0b75ba01aeee6012.so:_RNvMs5_CsgFkdJhQPPIX_13rustc_type_irNtB5_7FloatTy8name_str
librustc_driver-0b75ba01aeee6012.so:_RNvMs5_CsgFkdJhQPPIX_13rustc_type_irNtB5_7FloatTy9bit_width
librustc_driver-0b75ba01aeee6012.so:_RNvMs5_Csh1oXE7bm4Eb_10rustc_spanNtB5_8FileName12prefer_local
librustc_driver-0b75ba01aeee6012.so:_RNvMs5_Csh1oXE7bm4Eb_10rustc_spanNtB5_8FileName15prefer_remapped
librustc_driver-0b75ba01aeee6012.so:_RNvMs5_Csh1oXE7bm4Eb_10rustc_spanNtB5_8FileName16anon_source_code
librustc_driver-0b75ba01aeee6012.so:_RNvMs5_Csh1oXE7bm4Eb_10rustc_spanNtB5_8FileName20cfg_spec_source_code
librustc_driver-0b75ba01aeee6012.so:_RNvMs5_Csh1oXE7bm4Eb_10rustc_spanNtB5_8FileName20doc_test_source_code
librustc_driver-0b75ba01aeee6012.so:_RNvMs5_Csh1oXE7bm4Eb_10rustc_spanNtB5_8FileName22inline_asm_source_code
librustc_driver-0b75ba01aeee6012.so:_RNvMs5_Csh1oXE7bm4Eb_10rustc_spanNtB5_8FileName22proc_macro_source_code
librustc_driver-0b75ba01aeee6012.so:_RNvMs5_Csh1oXE7bm4Eb_10rustc_spanNtB5_8FileName26cli_crate_attr_source_code
librustc_driver-0b75ba01aeee6012.so:_RNvMs5_Csh1oXE7bm4Eb_10rustc_spanNtB5_8FileName27macro_expansion_source_code
librustc_driver-0b75ba01aeee6012.so:_RNvMs5_Csh1oXE7bm4Eb_10rustc_spanNtB5_8FileName7display
librustc_driver-0b75ba01aeee6012.so:_RNvMs5_Csh1oXE7bm4Eb_10rustc_spanNtB5_8FileName7is_real
librustc_driver-0b75ba01aeee6012.so:_RNvMs5_CsjRjSeHQZpui_16rustc_hir_prettyNtB5_5State10print_expr
librustc_driver-0b75ba01aeee6012.so:_RNvMs5_CsjRjSeHQZpui_16rustc_hir_prettyNtB5_5State10print_item
librustc_driver-0b75ba01aeee6012.so:_RNvMs5_CsjRjSeHQZpui_16rustc_hir_prettyNtB5_5State10print_name
librustc_driver-0b75ba01aeee6012.so:_RNvMs5_CsjRjSeHQZpui_16rustc_hir_prettyNtB5_5State10print_stmt
librustc_driver-0b75ba01aeee6012.so:_RNvMs5_CsjRjSeHQZpui_16rustc_hir_prettyNtB5_5State10print_type
librustc_driver-0b75ba01aeee6012.so:_RNvMs5_CsjRjSeHQZpui_16rustc_hir_prettyNtB5_5State11print_block
librustc_driver-0b75ba01aeee6012.so:_RNvMs5_CsjRjSeHQZpui_16rustc_hir_prettyNtB5_5State11print_param
librustc_driver-0b75ba01aeee6012.so:_RNvMs5_CsjRjSeHQZpui_16rustc_hir_prettyNtB5_5State11print_qpath
librustc_driver-0b75ba01aeee6012.so:_RNvMs5_CsjRjSeHQZpui_16rustc_hir_prettyNtB5_5State11print_ty_fn
librustc_driver-0b75ba01aeee6012.so:_RNvMs5_CsjRjSeHQZpui_16rustc_hir_prettyNtB5_5State12print_struct
librustc_driver-0b75ba01aeee6012.so:_RNvMs5_CsjRjSeHQZpui_16rustc_hir_prettyNtB5_5State13print_is_auto
librustc_driver-0b75ba01aeee6012.so:_RNvMs5_CsjRjSeHQZpui_16rustc_hir_prettyNtB5_5State13print_variant
librustc_driver-0b75ba01aeee6012.so:_RNvMs5_CsjRjSeHQZpui_16rustc_hir_prettyNtB5_5State14commasep_exprs
librustc_driver-0b75ba01aeee6012.so:_RNvMs5_CsjRjSeHQZpui_16rustc_hir_prettyNtB5_5State14print_enum_def
librustc_driver-0b75ba01aeee6012.so:_RNvMs5_CsjRjSeHQZpui_16rustc_hir_prettyNtB5_5State14print_lifetime
librustc_driver-0b75ba01aeee6012.so:_RNvMs5_CsjRjSeHQZpui_16rustc_hir_prettyNtB5_5State14print_patfield
librustc_driver-0b75ba01aeee6012.so:_RNvMs5_CsjRjSeHQZpui_16rustc_hir_prettyNtB5_5State14print_unsafety
librustc_driver-0b75ba01aeee6012.so:_RNvMs5_CsjRjSeHQZpui_16rustc_hir_prettyNtB5_5State14print_variants
librustc_driver-0b75ba01aeee6012.so:_RNvMs5_CsjRjSeHQZpui_16rustc_hir_prettyNtB5_5State15print_constness
librustc_driver-0b75ba01aeee6012.so:_RNvMs5_CsjRjSeHQZpui_16rustc_hir_prettyNtB5_5State15print_fn_output
librustc_driver-0b75ba01aeee6012.so:_RNvMs5_CsjRjSeHQZpui_16rustc_hir_prettyNtB5_5State15print_impl_item
librustc_driver-0b75ba01aeee6012.so:_RNvMs5_CsjRjSeHQZpui_16rustc_hir_prettyNtB5_5State15print_trait_ref
librustc_driver-0b75ba01aeee6012.so:_RNvMs5_CsjRjSeHQZpui_16rustc_hir_prettyNtB5_5State16print_anon_const
librustc_driver-0b75ba01aeee6012.so:_RNvMs5_CsjRjSeHQZpui_16rustc_hir_prettyNtB5_5State16print_local_decl
librustc_driver-0b75ba01aeee6012.so:_RNvMs5_CsjRjSeHQZpui_16rustc_hir_prettyNtB5_5State16print_method_sig
librustc_driver-0b75ba01aeee6012.so:_RNvMs5_CsjRjSeHQZpui_16rustc_hir_prettyNtB5_5State16print_mutability
librustc_driver-0b75ba01aeee6012.so:_RNvMs5_CsjRjSeHQZpui_16rustc_hir_prettyNtB5_5State16print_trait_item
librustc_driver-0b75ba01aeee6012.so:_RNvMs5_CsjRjSeHQZpui_16rustc_hir_prettyNtB5_5State17bclose_maybe_open
librustc_driver-0b75ba01aeee6012.so:_RNvMs5_CsjRjSeHQZpui_16rustc_hir_prettyNtB5_5State17print_defaultness
librustc_driver-0b75ba01aeee6012.so:_RNvMs5_CsjRjSeHQZpui_16rustc_hir_prettyNtB5_5State18print_array_length
librustc_driver-0b75ba01aeee6012.so:_RNvMs5_CsjRjSeHQZpui_16rustc_hir_prettyNtB5_5State18print_expr_as_cond
librustc_driver-0b75ba01aeee6012.so:_RNvMs5_CsjRjSeHQZpui_16rustc_hir_prettyNtB5_5State18print_foreign_item
librustc_driver-0b75ba01aeee6012.so:_RNvMs5_CsjRjSeHQZpui_16rustc_hir_prettyNtB5_5State18print_generic_args
librustc_driver-0b75ba01aeee6012.so:_RNvMs5_CsjRjSeHQZpui_16rustc_hir_prettyNtB5_5State18print_opt_lifetime
librustc_driver-0b75ba01aeee6012.so:_RNvMs5_CsjRjSeHQZpui_16rustc_hir_prettyNtB5_5State18print_path_segment
librustc_driver-0b75ba01aeee6012.so:_RNvMs5_CsjRjSeHQZpui_16rustc_hir_prettyNtB5_5State18print_type_binding
librustc_driver-0b75ba01aeee6012.so:_RNvMs5_CsjRjSeHQZpui_16rustc_hir_prettyNtB5_5State18print_where_clause
librustc_driver-0b75ba01aeee6012.so:_RNvMs5_CsjRjSeHQZpui_16rustc_hir_prettyNtB5_5State19print_generic_param
librustc_driver-0b75ba01aeee6012.so:_RNvMs5_CsjRjSeHQZpui_16rustc_hir_prettyNtB5_5State20print_block_unclosed
librustc_driver-0b75ba01aeee6012.so:_RNvMs5_CsjRjSeHQZpui_16rustc_hir_prettyNtB5_5State20print_capture_clause
librustc_driver-0b75ba01aeee6012.so:_RNvMs5_CsjRjSeHQZpui_16rustc_hir_prettyNtB5_5State20print_closure_binder
librustc_driver-0b75ba01aeee6012.so:_RNvMs5_CsjRjSeHQZpui_16rustc_hir_prettyNtB5_5State20print_fn_header_info
librustc_driver-0b75ba01aeee6012.so:_RNvMs5_CsjRjSeHQZpui_16rustc_hir_prettyNtB5_5State20print_generic_params
librustc_driver-0b75ba01aeee6012.so:_RNvMs5_CsjRjSeHQZpui_16rustc_hir_prettyNtB5_5State20print_poly_trait_ref
librustc_driver-0b75ba01aeee6012.so:_RNvMs5_CsjRjSeHQZpui_16rustc_hir_prettyNtB5_5State22print_block_with_attrs
librustc_driver-0b75ba01aeee6012.so:_RNvMs5_CsjRjSeHQZpui_16rustc_hir_prettyNtB5_5State26print_block_maybe_unclosed
librustc_driver-0b75ba01aeee6012.so:_RNvMs5_CsjRjSeHQZpui_16rustc_hir_prettyNtB5_5State6bclose
librustc_driver-0b75ba01aeee6012.so:_RNvMs5_CsjRjSeHQZpui_16rustc_hir_prettyNtB5_5State8print_fn
librustc_driver-0b75ba01aeee6012.so:_RNvMs5_CsjRjSeHQZpui_16rustc_hir_prettyNtB5_5State8print_if
librustc_driver-0b75ba01aeee6012.so:_RNvMs5_CsjRjSeHQZpui_16rustc_hir_prettyNtB5_5State8print_mt
librustc_driver-0b75ba01aeee6012.so:_RNvMs5_CsjRjSeHQZpui_16rustc_hir_prettyNtB5_5State9print_arm
librustc_driver-0b75ba01aeee6012.so:_RNvMs5_CsjRjSeHQZpui_16rustc_hir_prettyNtB5_5State9print_mod
librustc_driver-0b75ba01aeee6012.so:_RNvMs5_CsjRjSeHQZpui_16rustc_hir_prettyNtB5_5State9print_pat
librustc_driver-0b75ba01aeee6012.so:_RNvMs5_CskJTYWfBGr7m_8chalk_irNtB5_11UniverseMap23num_canonical_universes
librustc_driver-0b75ba01aeee6012.so:_RNvMs5_CskJTYWfBGr7m_8chalk_irNtB5_11UniverseMap3new
librustc_driver-0b75ba01aeee6012.so:_RNvMs5_NtCs1Br764BqhVG_6object5writeNtB5_8Mangling13global_prefix
librustc_driver-0b75ba01aeee6012.so:_RNvMs5_NtCs1Br764BqhVG_6object5writeNtB5_8Mangling7default
librustc_driver-0b75ba01aeee6012.so:_RNvMs5_NtCs5ESSSXQhO3H_12regex_syntax5errorNtB5_5Spans3add
librustc_driver-0b75ba01aeee6012.so:_RNvMs5_NtCs5ESSSXQhO3H_12regex_syntax5errorNtB5_5Spans6notate
librustc_driver-0b75ba01aeee6012.so:_RNvMs5_NtCs7PFPqSK8ZRQ_12chalk_engine5stackNtB5_10StackIndex13iterate_range
librustc_driver-0b75ba01aeee6012.so:_RNvMs5_NtCs8AvggvKXVYZ_6memchr6memmemNtB5_8Searcher10into_owned
librustc_driver-0b75ba01aeee6012.so:_RNvMs5_NtCs8AvggvKXVYZ_6memchr6memmemNtB5_8Searcher15prefilter_state
librustc_driver-0b75ba01aeee6012.so:_RNvMs5_NtCs8AvggvKXVYZ_6memchr6memmemNtB5_8Searcher3new
librustc_driver-0b75ba01aeee6012.so:_RNvMs5_NtCs8AvggvKXVYZ_6memchr6memmemNtB5_8Searcher6as_ref
librustc_driver-0b75ba01aeee6012.so:_RNvMs5_NtCs8AvggvKXVYZ_6memchr6memmemNtB5_8Searcher6needle
librustc_driver-0b75ba01aeee6012.so:_RNvMs5_NtCs8lLsNL5HvpN_5gimli6commonNtB5_9SectionId4name
librustc_driver-0b75ba01aeee6012.so:_RNvMs5_NtCs8lLsNL5HvpN_5gimli6commonNtB5_9SectionId8dwo_name
librustc_driver-0b75ba01aeee6012.so:_RNvMs5_NtCs9IVbjQok2gJ_12icu_provider11hello_worldNtB5_19HelloWorldFormatter16format_to_string
librustc_driver-0b75ba01aeee6012.so:_RNvMs5_NtCs9IVbjQok2gJ_12icu_provider11hello_worldNtB5_19HelloWorldFormatter6format
librustc_driver-0b75ba01aeee6012.so:_RNvMs5_NtCs9KpYfezRtzb_9rustc_ast3astNtB5_11GenericArgs18is_angle_bracketed
librustc_driver-0b75ba01aeee6012.so:_RNvMs5_NtCs9KpYfezRtzb_9rustc_ast3astNtB5_11GenericArgs4span
librustc_driver-0b75ba01aeee6012.so:_RNvMs5_NtCs9fJVnCDuQRQ_9rustc_hir3defNtB5_8CtorKind8from_ast
librustc_driver-0b75ba01aeee6012.so:_RNvMs5_NtCs9fJVnCDuQRQ_9rustc_hir3hirNtB5_10GenericArg12is_synthetic
librustc_driver-0b75ba01aeee6012.so:_RNvMs5_NtCs9fJVnCDuQRQ_9rustc_hir3hirNtB5_10GenericArg14is_ty_or_const
librustc_driver-0b75ba01aeee6012.so:_RNvMs5_NtCs9fJVnCDuQRQ_9rustc_hir3hirNtB5_10GenericArg4span
librustc_driver-0b75ba01aeee6012.so:_RNvMs5_NtCs9fJVnCDuQRQ_9rustc_hir3hirNtB5_10GenericArg5descr
librustc_driver-0b75ba01aeee6012.so:_RNvMs5_NtCs9fJVnCDuQRQ_9rustc_hir3hirNtB5_10GenericArg6hir_id
librustc_driver-0b75ba01aeee6012.so:_RNvMs5_NtCs9fJVnCDuQRQ_9rustc_hir3hirNtB5_10GenericArg6to_ord
librustc_driver-0b75ba01aeee6012.so:_RNvMs5_NtCs9fJVnCDuQRQ_9rustc_hir6hir_idNtB5_5HirId5index
librustc_driver-0b75ba01aeee6012.so:_RNvMs5_NtCsBLdkomj5WW_13rustc_session7optionsNtB5_15UnstableOptions5build
librustc_driver-0b75ba01aeee6012.so:_RNvMs5_NtCsBLdkomj5WW_13rustc_session7sessionNtB5_7Session10code_model
librustc_driver-0b75ba01aeee6012.so:_RNvMs5_NtCsBLdkomj5WW_13rustc_session7sessionNtB5_7Session11fewer_names
librustc_driver-0b75ba01aeee6012.so:_RNvMs5_NtCsBLdkomj5WW_13rustc_session7sessionNtB5_7Session13codegen_units
librustc_driver-0b75ba01aeee6012.so:_RNvMs5_NtCsBLdkomj5WW_13rustc_session7sessionNtB5_7Session13mir_opt_level
librustc_driver-0b75ba01aeee6012.so:_RNvMs5_NtCsBLdkomj5WW_13rustc_session7sessionNtB5_7Session14link_dead_code
librustc_driver-0b75ba01aeee6012.so:_RNvMs5_NtCsBLdkomj5WW_13rustc_session7sessionNtB5_7Session14panic_strategy
librustc_driver-0b75ba01aeee6012.so:_RNvMs5_NtCsBLdkomj5WW_13rustc_session7sessionNtB5_7Session14verify_llvm_ir
librustc_driver-0b75ba01aeee6012.so:_RNvMs5_NtCsBLdkomj5WW_13rustc_session7sessionNtB5_7Session15overflow_checks
librustc_driver-0b75ba01aeee6012.so:_RNvMs5_NtCsBLdkomj5WW_13rustc_session7sessionNtB5_7Session15split_debuginfo
librustc_driver-0b75ba01aeee6012.so:_RNvMs5_NtCsBLdkomj5WW_13rustc_session7sessionNtB5_7Session15stack_protector
librustc_driver-0b75ba01aeee6012.so:_RNvMs5_NtCsBLdkomj5WW_13rustc_session7sessionNtB5_7Session16is_nightly_build
librustc_driver-0b75ba01aeee6012.so:_RNvMs5_NtCsBLdkomj5WW_13rustc_session7sessionNtB5_7Session16relocation_model
librustc_driver-0b75ba01aeee6012.so:_RNvMs5_NtCsBLdkomj5WW_13rustc_session7sessionNtB5_7Session16unstable_options
librustc_driver-0b75ba01aeee6012.so:_RNvMs5_NtCsBLdkomj5WW_13rustc_session7sessionNtB5_7Session18binary_dep_depinfo
librustc_driver-0b75ba01aeee6012.so:_RNvMs5_NtCsBLdkomj5WW_13rustc_session7sessionNtB5_7Session23must_emit_unwind_tables
librustc_driver-0b75ba01aeee6012.so:_RNvMs5_NtCsBLdkomj5WW_13rustc_session7sessionNtB5_7Session3lto
librustc_driver-0b75ba01aeee6012.so:_RNvMs5_NtCsBLdkomj5WW_13rustc_session7sessionNtB5_7Session5teach
librustc_driver-0b75ba01aeee6012.so:_RNvMs5_NtCsBLdkomj5WW_13rustc_session7sessionNtB5_7Session7edition
librustc_driver-0b75ba01aeee6012.so:_RNvMs5_NtCsBLdkomj5WW_13rustc_session7sessionNtB5_7Session7threads
librustc_driver-0b75ba01aeee6012.so:_RNvMs5_NtCsBLdkomj5WW_13rustc_session7sessionNtB5_7Session7verbose
librustc_driver-0b75ba01aeee6012.so:_RNvMs5_NtCsBLdkomj5WW_13rustc_session7sessionNtB5_7Session9tls_model
librustc_driver-0b75ba01aeee6012.so:_RNvMs5_NtCsczMUV2s8Ncb_12rustc_errors18diagnostic_builderINtB5_17DiagnosticBuilderNtB5_3BugE18new_diagnostic_bug
librustc_driver-0b75ba01aeee6012.so:_RNvMs5_NtCsczMUV2s8Ncb_12rustc_errors7emitterNtB5_13EmitterWriter10ui_testing
librustc_driver-0b75ba01aeee6012.so:_RNvMs5_NtCsczMUV2s8Ncb_12rustc_errors7emitterNtB5_13EmitterWriter3new
librustc_driver-0b75ba01aeee6012.so:_RNvMs5_NtCsczMUV2s8Ncb_12rustc_errors7emitterNtB5_13EmitterWriter6stderr
librustc_driver-0b75ba01aeee6012.so:_RNvMs5_NtCserdW9TeaKDe_11rustc_infer5inferINtB5_7InferOkuE16into_obligations
librustc_driver-0b75ba01aeee6012.so:_RNvMs5_NtCsh1oXE7bm4Eb_10rustc_span6symbolNtB5_25MacroRulesNormalizedIdent3new
librustc_driver-0b75ba01aeee6012.so:_RNvMs5_NtCsh1oXE7bm4Eb_10rustc_span7hygieneNtB5_13SyntaxContext10apply_mark
librustc_driver-0b75ba01aeee6012.so:_RNvMs5_NtCsh1oXE7bm4Eb_10rustc_span7hygieneNtB5_13SyntaxContext11glob_adjust
librustc_driver-0b75ba01aeee6012.so:_RNvMs5_NtCsh1oXE7bm4Eb_10rustc_span7hygieneNtB5_13SyntaxContext11hygienic_eq
librustc_driver-0b75ba01aeee6012.so:_RNvMs5_NtCsh1oXE7bm4Eb_10rustc_span7hygieneNtB5_13SyntaxContext11remove_mark
librustc_driver-0b75ba01aeee6012.so:_RNvMs5_NtCsh1oXE7bm4Eb_10rustc_span7hygieneNtB5_13SyntaxContext17dollar_crate_name
librustc_driver-0b75ba01aeee6012.so:_RNvMs5_NtCsh1oXE7bm4Eb_10rustc_span7hygieneNtB5_13SyntaxContext19reverse_glob_adjust
librustc_driver-0b75ba01aeee6012.so:_RNvMs5_NtCsh1oXE7bm4Eb_10rustc_span7hygieneNtB5_13SyntaxContext34normalize_to_macros_2_0_and_adjust
librustc_driver-0b75ba01aeee6012.so:_RNvMs5_NtCsh1oXE7bm4Eb_10rustc_span7hygieneNtB5_13SyntaxContext5marks
librustc_driver-0b75ba01aeee6012.so:_RNvMs5_NtCsh1oXE7bm4Eb_10rustc_span7hygieneNtB5_13SyntaxContext6adjust
librustc_driver-0b75ba01aeee6012.so:_RNvMs5_NtCsh1oXE7bm4Eb_10rustc_span7hygieneNtB5_13SyntaxContext7edition
librustc_driver-0b75ba01aeee6012.so:_RNvMs5_NtCshn1YiuQfVU7_12rustc_target3asmNtB5_19InlineAsmClobberAbi14clobbered_regs
librustc_driver-0b75ba01aeee6012.so:_RNvMs5_NtCshn1YiuQfVU7_12rustc_target3asmNtB5_19InlineAsmClobberAbi5parse
librustc_driver-0b75ba01aeee6012.so:_RNvMs5_NtCsiyJNtbvviN4_15rustc_lint_defs7builtinNtB5_16UnusedDocComment9get_lints
librustc_driver-0b75ba01aeee6012.so:_RNvMs5_NtCsjwWoBr4mZn4_5regex10re_unicodeNtB5_5Regex13captures_iter
librustc_driver-0b75ba01aeee6012.so:_RNvMs5_NtCsjwWoBr4mZn4_5regex10re_unicodeNtB5_5Regex3new
librustc_driver-0b75ba01aeee6012.so:_RNvMs5_NtCsjwWoBr4mZn4_5regex10re_unicodeNtB5_5Regex4find
librustc_driver-0b75ba01aeee6012.so:_RNvMs5_NtCsjwWoBr4mZn4_5regex10re_unicodeNtB5_5Regex5split
librustc_driver-0b75ba01aeee6012.so:_RNvMs5_NtCsjwWoBr4mZn4_5regex10re_unicodeNtB5_5Regex6splitn
librustc_driver-0b75ba01aeee6012.so:_RNvMs5_NtCsjwWoBr4mZn4_5regex10re_unicodeNtB5_5Regex8captures
librustc_driver-0b75ba01aeee6012.so:_RNvMs5_NtCsjwWoBr4mZn4_5regex10re_unicodeNtB5_5Regex8is_match
librustc_driver-0b75ba01aeee6012.so:_RNvMs5_NtCsjwWoBr4mZn4_5regex10re_unicodeNtB5_5Regex9find_iter
librustc_driver-0b75ba01aeee6012.so:_RNvMs5_NtCsjwWoBr4mZn4_5regex3dfaNtB5_11Transitions14next_unchecked
librustc_driver-0b75ba01aeee6012.so:_RNvMs5_NtCsjwWoBr4mZn4_5regex8re_bytesNtB5_5Regex11is_match_at
librustc_driver-0b75ba01aeee6012.so:_RNvMs5_NtCsjwWoBr4mZn4_5regex8re_bytesNtB5_5Regex13captures_read
librustc_driver-0b75ba01aeee6012.so:_RNvMs5_NtCsjwWoBr4mZn4_5regex8re_bytesNtB5_5Regex14shortest_match
librustc_driver-0b75ba01aeee6012.so:_RNvMs5_NtCsjwWoBr4mZn4_5regex8re_bytesNtB5_5Regex16captures_read_at
librustc_driver-0b75ba01aeee6012.so:_RNvMs5_NtCsjwWoBr4mZn4_5regex8re_bytesNtB5_5Regex16read_captures_at
librustc_driver-0b75ba01aeee6012.so:_RNvMs5_NtCsjwWoBr4mZn4_5regex8re_bytesNtB5_5Regex17shortest_match_at
librustc_driver-0b75ba01aeee6012.so:_RNvMs5_NtCsjwWoBr4mZn4_5regex8re_bytesNtB5_5Regex7find_at
librustc_driver-0b75ba01aeee6012.so:_RNvMs5_NtNtCs2ANZbKq4FAi_18tracing_subscriber6filter9directiveNtB5_15StaticDirective3new
librustc_driver-0b75ba01aeee6012.so:_RNvMs5_NtNtCs2iGwUc7EAmY_17rustc_codegen_ssa4back5writeNtB5_17SharedEmitterMain5check
librustc_driver-0b75ba01aeee6012.so:_RNvMs5_NtNtCs6Xk4iZgn9ee_11miniz_oxide7deflate4coreNtB5_13CallbackOxide17new_callback_func
librustc_driver-0b75ba01aeee6012.so:_RNvMs5_NtNtCs8lLsNL5HvpN_5gimli4read6abbrevNtB5_10Attributes3new
librustc_driver-0b75ba01aeee6012.so:_RNvMs5_NtNtCs8lLsNL5HvpN_5gimli4read6abbrevNtB5_10Attributes4push
librustc_driver-0b75ba01aeee6012.so:_RNvMs5_NtNtCs8lLsNL5HvpN_5gimli5write4unitNtB5_11EntryOffset4none
librustc_driver-0b75ba01aeee6012.so:_RNvMs5_NtNtCs9UaAlnGT11v_12rustc_middle2ty3styNtB5_20ExistentialPredicate10stable_cmp
librustc_driver-0b75ba01aeee6012.so:_RNvMs5_NtNtCs9UaAlnGT11v_12rustc_middle2ty4utilNtB7_2Ty15numeric_max_val
librustc_driver-0b75ba01aeee6012.so:_RNvMs5_NtNtCs9UaAlnGT11v_12rustc_middle2ty4utilNtB7_2Ty15numeric_min_val
librustc_driver-0b75ba01aeee6012.so:_RNvMs5_NtNtCs9UaAlnGT11v_12rustc_middle2ty4utilNtB7_2Ty22is_copy_modulo_regions
librustc_driver-0b75ba01aeee6012.so:_RNvMs5_NtNtCs9UaAlnGT11v_12rustc_middle2ty4utilNtB7_2Ty8is_sized
librustc_driver-0b75ba01aeee6012.so:_RNvMs5_NtNtCs9UaAlnGT11v_12rustc_middle2ty4utilNtB7_2Ty8is_unpin
librustc_driver-0b75ba01aeee6012.so:_RNvMs5_NtNtCs9UaAlnGT11v_12rustc_middle2ty4utilNtB7_2Ty9is_freeze
librustc_driver-0b75ba01aeee6012.so:_RNvMs5_NtNtCs9UaAlnGT11v_12rustc_middle2ty4utilNtB7_2Ty9peel_refs
librustc_driver-0b75ba01aeee6012.so:_RNvMs5_NtNtCs9UaAlnGT11v_12rustc_middle3mir3tcxNtNtB7_6syntax5BinOp12to_hir_binop
librustc_driver-0b75ba01aeee6012.so:_RNvMs5_NtNtCs9UaAlnGT11v_12rustc_middle3mir8coverageNtB5_2Op11is_subtract
librustc_driver-0b75ba01aeee6012.so:_RNvMs5_NtNtCs9UaAlnGT11v_12rustc_middle3mir8coverageNtB5_2Op6is_add
librustc_driver-0b75ba01aeee6012.so:_RNvMs5_NtNtCs9xF1GXCZqXD_18rustc_mir_dataflow9framework8graphvizNtB5_10Background4attr
librustc_driver-0b75ba01aeee6012.so:_RNvMs5_NtNtCsb8kExLKizBh_7zerovec11flexzerovec3vecNtB5_11FlexZeroVec10into_owned
librustc_driver-0b75ba01aeee6012.so:_RNvMs5_NtNtCsb8kExLKizBh_7zerovec11flexzerovec3vecNtB5_11FlexZeroVec16parse_byte_slice
librustc_driver-0b75ba01aeee6012.so:_RNvMs5_NtNtCsb8kExLKizBh_7zerovec11flexzerovec3vecNtB5_11FlexZeroVec5clear
librustc_driver-0b75ba01aeee6012.so:_RNvMs5_NtNtCsb8kExLKizBh_7zerovec11flexzerovec3vecNtB5_11FlexZeroVec6to_mut
librustc_driver-0b75ba01aeee6012.so:_RNvMs5_NtNtCserdW9TeaKDe_11rustc_infer5infer13type_variableNtB5_17TypeVariableTable10var_origin
librustc_driver-0b75ba01aeee6012.so:_RNvMs5_NtNtCserdW9TeaKDe_11rustc_infer5infer13type_variableNtB5_17TypeVariableTable11instantiate
librustc_driver-0b75ba01aeee6012.so:_RNvMs5_NtNtCserdW9TeaKDe_11rustc_infer5infer13type_variableNtB5_17TypeVariableTable11sub_unified
librustc_driver-0b75ba01aeee6012.so:_RNvMs5_NtNtCserdW9TeaKDe_11rustc_infer5infer13type_variableNtB5_17TypeVariableTable12sub_root_var
librustc_driver-0b75ba01aeee6012.so:_RNvMs5_NtNtCserdW9TeaKDe_11rustc_infer5infer13type_variableNtB5_17TypeVariableTable18unsolved_variables
librustc_driver-0b75ba01aeee6012.so:_RNvMs5_NtNtCserdW9TeaKDe_11rustc_infer5infer13type_variableNtB5_17TypeVariableTable19replace_if_possible
librustc_driver-0b75ba01aeee6012.so:_RNvMs5_NtNtCserdW9TeaKDe_11rustc_infer5infer13type_variableNtB5_17TypeVariableTable19vars_since_snapshot
librustc_driver-0b75ba01aeee6012.so:_RNvMs5_NtNtCserdW9TeaKDe_11rustc_infer5infer13type_variableNtB5_17TypeVariableTable3sub
librustc_driver-0b75ba01aeee6012.so:_RNvMs5_NtNtCserdW9TeaKDe_11rustc_infer5infer13type_variableNtB5_17TypeVariableTable5probe
librustc_driver-0b75ba01aeee6012.so:_RNvMs5_NtNtCserdW9TeaKDe_11rustc_infer5infer13type_variableNtB5_17TypeVariableTable6equate
librustc_driver-0b75ba01aeee6012.so:_RNvMs5_NtNtCserdW9TeaKDe_11rustc_infer5infer13type_variableNtB5_17TypeVariableTable7new_var
librustc_driver-0b75ba01aeee6012.so:_RNvMs5_NtNtCserdW9TeaKDe_11rustc_infer5infer13type_variableNtB5_17TypeVariableTable8num_vars
librustc_driver-0b75ba01aeee6012.so:_RNvMs5_NtNtCserdW9TeaKDe_11rustc_infer5infer13type_variableNtB5_17TypeVariableTable8root_var
librustc_driver-0b75ba01aeee6012.so:_RNvMs5_NtNtCshn1YiuQfVU7_12rustc_target3abi4callNtB5_10CastTarget4pair
librustc_driver-0b75ba01aeee6012.so:_RNvMs5_NtNtNtCs1Br764BqhVG_6object4read2pe7sectionNtNtBb_2pe18ImageSectionHeader12contains_rva
librustc_driver-0b75ba01aeee6012.so:_RNvMs5_NtNtNtCs1Br764BqhVG_6object4read2pe7sectionNtNtBb_2pe18ImageSectionHeader13pe_file_range
librustc_driver-0b75ba01aeee6012.so:_RNvMs5_NtNtNtCs1Br764BqhVG_6object4read2pe7sectionNtNtBb_2pe18ImageSectionHeader16pe_address_range
librustc_driver-0b75ba01aeee6012.so:_RNvMs5_NtNtNtCs1Br764BqhVG_6object4read2pe7sectionNtNtBb_2pe18ImageSectionHeader16pe_file_range_at
librustc_driver-0b75ba01aeee6012.so:_RNvMs5_NtNtNtCs2zXTrlMMQY6_6object4read2pe7sectionNtNtBb_2pe18ImageSectionHeader12contains_rva
librustc_driver-0b75ba01aeee6012.so:_RNvMs5_NtNtNtCs2zXTrlMMQY6_6object4read2pe7sectionNtNtBb_2pe18ImageSectionHeader13pe_file_range
librustc_driver-0b75ba01aeee6012.so:_RNvMs5_NtNtNtCs2zXTrlMMQY6_6object4read2pe7sectionNtNtBb_2pe18ImageSectionHeader16pe_address_range
librustc_driver-0b75ba01aeee6012.so:_RNvMs5_NtNtNtCs2zXTrlMMQY6_6object4read2pe7sectionNtNtBb_2pe18ImageSectionHeader16pe_file_range_at
librustc_driver-0b75ba01aeee6012.so:_RNvMs5_NtNtNtCserdW9TeaKDe_11rustc_infer5infer15error_reporting14need_type_infoNtB9_9InferCtxt31need_type_info_err_in_generator
librustc_driver-0b75ba01aeee6012.so:_RNvMs5_NtNtNtCserdW9TeaKDe_11rustc_infer5infer9canonical13canonicalizerNtB5_13Canonicalizer32universe_canonicalized_variables
librustc_driver-0b75ba01aeee6012.so:_RNvMs5e_NtCs8lLsNL5HvpN_5gimli9constantsNtB6_7DwMacro13static_string
librustc_driver-0b75ba01aeee6012.so:_RNvMs5q_NtCs8lLsNL5HvpN_5gimli9constantsNtB6_5DwRle13static_string
librustc_driver-0b75ba01aeee6012.so:_RNvMs6_Cs8O1H9KPT4QD_3logNtB5_5Level10from_usize
librustc_driver-0b75ba01aeee6012.so:_RNvMs6_Cs8O1H9KPT4QD_3logNtB5_5Level6as_str
librustc_driver-0b75ba01aeee6012.so:_RNvMs6_Cs9JyJiVVtyKM_13rustc_resolveNtB5_10ModuleData6def_id
librustc_driver-0b75ba01aeee6012.so:_RNvMs6_CsakaMy1pI56V_2ccNtB5_4Tool10cflags_env
librustc_driver-0b75ba01aeee6012.so:_RNvMs6_CsakaMy1pI56V_2ccNtB5_4Tool10to_command
librustc_driver-0b75ba01aeee6012.so:_RNvMs6_CsakaMy1pI56V_2ccNtB5_4Tool11is_like_gnu
librustc_driver-0b75ba01aeee6012.so:_RNvMs6_CsakaMy1pI56V_2ccNtB5_4Tool12is_like_msvc
librustc_driver-0b75ba01aeee6012.so:_RNvMs6_CsakaMy1pI56V_2ccNtB5_4Tool13is_like_clang
librustc_driver-0b75ba01aeee6012.so:_RNvMs6_CsakaMy1pI56V_2ccNtB5_4Tool3env
librustc_driver-0b75ba01aeee6012.so:_RNvMs6_CsakaMy1pI56V_2ccNtB5_4Tool4args
librustc_driver-0b75ba01aeee6012.so:_RNvMs6_CsakaMy1pI56V_2ccNtB5_4Tool4path
librustc_driver-0b75ba01aeee6012.so:_RNvMs6_CsakaMy1pI56V_2ccNtB5_4Tool6cc_env
librustc_driver-0b75ba01aeee6012.so:_RNvMs6_CsczMUV2s8Ncb_12rustc_errorsNtB5_5Level15is_failure_note
librustc_driver-0b75ba01aeee6012.so:_RNvMs6_CsczMUV2s8Ncb_12rustc_errorsNtB5_5Level18get_expectation_id
librustc_driver-0b75ba01aeee6012.so:_RNvMs6_CsczMUV2s8Ncb_12rustc_errorsNtB5_5Level6to_str
librustc_driver-0b75ba01aeee6012.so:_RNvMs6_CsfgDlnlwzToT_9termcolorNtB5_22BufferedStandardStream6stderr
librustc_driver-0b75ba01aeee6012.so:_RNvMs6_CsfgDlnlwzToT_9termcolorNtB5_22BufferedStandardStream6stdout
librustc_driver-0b75ba01aeee6012.so:_RNvMs6_NtCs1Br764BqhVG_6object4readNtB5_13SymbolMapName3new
librustc_driver-0b75ba01aeee6012.so:_RNvMs6_NtCs2zXTrlMMQY6_6object4readNtB5_13SymbolMapName3new
librustc_driver-0b75ba01aeee6012.so:_RNvMs6_NtCs3Tcv2dxS6si_6flate23memNtB5_13CompressError7message
librustc_driver-0b75ba01aeee6012.so:_RNvMs6_NtCs44BqnPnixRB_6thorin7packageNtB5_18DwarfPackageObject19append_to_debug_loc
librustc_driver-0b75ba01aeee6012.so:_RNvMs6_NtCs44BqnPnixRB_6thorin7packageNtB5_18DwarfPackageObject20append_to_debug_info
librustc_driver-0b75ba01aeee6012.so:_RNvMs6_NtCs44BqnPnixRB_6thorin7packageNtB5_18DwarfPackageObject20append_to_debug_line
librustc_driver-0b75ba01aeee6012.so:_RNvMs6_NtCs44BqnPnixRB_6thorin7packageNtB5_18DwarfPackageObject21append_to_debug_macro
librustc_driver-0b75ba01aeee6012.so:_RNvMs6_NtCs44BqnPnixRB_6thorin7packageNtB5_18DwarfPackageObject21append_to_debug_types
librustc_driver-0b75ba01aeee6012.so:_RNvMs6_NtCs44BqnPnixRB_6thorin7packageNtB5_18DwarfPackageObject22append_to_debug_abbrev
librustc_driver-0b75ba01aeee6012.so:_RNvMs6_NtCs44BqnPnixRB_6thorin7packageNtB5_18DwarfPackageObject23append_to_debug_macinfo
librustc_driver-0b75ba01aeee6012.so:_RNvMs6_NtCs44BqnPnixRB_6thorin7packageNtB5_18DwarfPackageObject24append_to_debug_loclists
librustc_driver-0b75ba01aeee6012.so:_RNvMs6_NtCs44BqnPnixRB_6thorin7packageNtB5_18DwarfPackageObject24append_to_debug_rnglists
librustc_driver-0b75ba01aeee6012.so:_RNvMs6_NtCs44BqnPnixRB_6thorin7packageNtB5_18DwarfPackageObject27append_to_debug_str_offsets
librustc_driver-0b75ba01aeee6012.so:_RNvMs6_NtCs5ESSSXQhO3H_12regex_syntax3hirNtB5_7Literal10is_unicode
librustc_driver-0b75ba01aeee6012.so:_RNvMs6_NtCs93julGFyfmy_10serde_json4readNtB5_7StrRead3new
librustc_driver-0b75ba01aeee6012.so:_RNvMs6_NtCs9IVbjQok2gJ_12icu_provider3keyNtB5_15DataKeyMetadata13const_default
librustc_driver-0b75ba01aeee6012.so:_RNvMs6_NtCs9IVbjQok2gJ_12icu_provider3keyNtB5_15DataKeyMetadata18construct_internal
librustc_driver-0b75ba01aeee6012.so:_RNvMs6_NtCs9IVbjQok2gJ_12icu_provider7requestNtB5_10DataLocale10strict_cmp
librustc_driver-0b75ba01aeee6012.so:_RNvMs6_NtCs9KpYfezRtzb_9rustc_ast11tokenstreamNtB5_15AttrTokenStream14to_tokenstream
librustc_driver-0b75ba01aeee6012.so:_RNvMs6_NtCs9KpYfezRtzb_9rustc_ast11tokenstreamNtB5_15AttrTokenStream3new
librustc_driver-0b75ba01aeee6012.so:_RNvMs6_NtCs9KpYfezRtzb_9rustc_ast3astNtB5_10GenericArg4span
librustc_driver-0b75ba01aeee6012.so:_RNvMs6_NtCs9KpYfezRtzb_9rustc_ast4attrNtNtB7_3ast12MetaItemKind9value_str
librustc_driver-0b75ba01aeee6012.so:_RNvMs6_NtCs9KpYfezRtzb_9rustc_ast5tokenNtB5_11Nonterminal4span
librustc_driver-0b75ba01aeee6012.so:_RNvMs6_NtCs9UaAlnGT11v_12rustc_middle2tyINtB5_10VisibilityNtNtCsh1oXE7bm4Eb_10rustc_span6def_id5DefIdE12expect_local
librustc_driver-0b75ba01aeee6012.so:_RNvMs6_NtCs9UaAlnGT11v_12rustc_middle2tyINtB5_10VisibilityNtNtCsh1oXE7bm4Eb_10rustc_span6def_id5DefIdE18is_visible_locally
librustc_driver-0b75ba01aeee6012.so:_RNvMs6_NtCs9UaAlnGT11v_12rustc_middle6traitsNtB5_21ObjectSafetyViolation5spans
librustc_driver-0b75ba01aeee6012.so:_RNvMs6_NtCs9UaAlnGT11v_12rustc_middle6traitsNtB5_21ObjectSafetyViolation8solution
librustc_driver-0b75ba01aeee6012.so:_RNvMs6_NtCs9UaAlnGT11v_12rustc_middle6traitsNtB5_21ObjectSafetyViolation9error_msg
librustc_driver-0b75ba01aeee6012.so:_RNvMs6_NtCs9Yk5q5as75h_10rustc_lint6levelsINtB5_17LintLevelsBuilderNtB5_7TopDownE3pop
librustc_driver-0b75ba01aeee6012.so:_RNvMs6_NtCs9Yk5q5as75h_10rustc_lint6levelsINtB5_17LintLevelsBuilderNtB5_7TopDownE4push
librustc_driver-0b75ba01aeee6012.so:_RNvMs6_NtCs9fJVnCDuQRQ_9rustc_hir3defNtB5_16NonMacroAttrKind5descr
librustc_driver-0b75ba01aeee6012.so:_RNvMs6_NtCs9fJVnCDuQRQ_9rustc_hir3defNtB5_16NonMacroAttrKind7article
librustc_driver-0b75ba01aeee6012.so:_RNvMs6_NtCs9fJVnCDuQRQ_9rustc_hir3defNtB5_16NonMacroAttrKind7is_used
librustc_driver-0b75ba01aeee6012.so:_RNvMs6_NtCs9fJVnCDuQRQ_9rustc_hir3hirNtB5_11GenericArgs4none
librustc_driver-0b75ba01aeee6012.so:_RNvMs6_NtCs9fJVnCDuQRQ_9rustc_hir3hirNtB5_11GenericArgs4span
librustc_driver-0b75ba01aeee6012.so:_RNvMs6_NtCs9fJVnCDuQRQ_9rustc_hir3hirNtB5_11GenericArgs6inputs
librustc_driver-0b75ba01aeee6012.so:_RNvMs6_NtCs9fJVnCDuQRQ_9rustc_hir3hirNtB5_11GenericArgs7has_err
librustc_driver-0b75ba01aeee6012.so:_RNvMs6_NtCs9fJVnCDuQRQ_9rustc_hir3hirNtB5_11GenericArgs8is_empty
librustc_driver-0b75ba01aeee6012.so:_RNvMs6_NtCs9fJVnCDuQRQ_9rustc_hir3hirNtB5_11GenericArgs8span_ext
librustc_driver-0b75ba01aeee6012.so:_RNvMs6_NtCs9xF1GXCZqXD_18rustc_mir_dataflow9frameworkNtB5_6Effect8at_index
librustc_driver-0b75ba01aeee6012.so:_RNvMs6_NtCsBLdkomj5WW_13rustc_session6configNtB5_11OutputTypes11should_link
librustc_driver-0b75ba01aeee6012.so:_RNvMs6_NtCsBLdkomj5WW_13rustc_session6configNtB5_11OutputTypes12contains_key
librustc_driver-0b75ba01aeee6012.so:_RNvMs6_NtCsBLdkomj5WW_13rustc_session6configNtB5_11OutputTypes14should_codegen
librustc_driver-0b75ba01aeee6012.so:_RNvMs6_NtCsBLdkomj5WW_13rustc_session6configNtB5_11OutputTypes3get
librustc_driver-0b75ba01aeee6012.so:_RNvMs6_NtCsBLdkomj5WW_13rustc_session6configNtB5_11OutputTypes3len
librustc_driver-0b75ba01aeee6012.so:_RNvMs6_NtCsBLdkomj5WW_13rustc_session6configNtB5_11OutputTypes3new
librustc_driver-0b75ba01aeee6012.so:_RNvMs6_NtCsBLdkomj5WW_13rustc_session6configNtB5_11OutputTypes4keys
librustc_driver-0b75ba01aeee6012.so:_RNvMs6_NtCsBLdkomj5WW_13rustc_session6configNtB5_11OutputTypes6values
librustc_driver-0b75ba01aeee6012.so:_RNvMs6_NtCsczMUV2s8Ncb_12rustc_errors7emitterNtB5_22FileWithAnnotatedLines19collect_annotations
librustc_driver-0b75ba01aeee6012.so:_RNvMs6_NtCserdW9TeaKDe_11rustc_infer5inferNtB5_9InferCtxt11commit_from
librustc_driver-0b75ba01aeee6012.so:_RNvMs6_NtCserdW9TeaKDe_11rustc_infer5inferNtB5_9InferCtxt11next_ty_var
librustc_driver-0b75ba01aeee6012.so:_RNvMs6_NtCserdW9TeaKDe_11rustc_infer5inferNtB5_9InferCtxt11num_ty_vars
librustc_driver-0b75ba01aeee6012.so:_RNvMs6_NtCserdW9TeaKDe_11rustc_infer5inferNtB5_9InferCtxt11rollback_to
librustc_driver-0b75ba01aeee6012.so:_RNvMs6_NtCserdW9TeaKDe_11rustc_infer5inferNtB5_9InferCtxt11sub_regions
librustc_driver-0b75ba01aeee6012.so:_RNvMs6_NtCserdW9TeaKDe_11rustc_infer5inferNtB5_9InferCtxt11var_for_def
librustc_driver-0b75ba01aeee6012.so:_RNvMs6_NtCserdW9TeaKDe_11rustc_infer5inferNtB5_9InferCtxt12clear_caches
librustc_driver-0b75ba01aeee6012.so:_RNvMs6_NtCserdW9TeaKDe_11rustc_infer5inferNtB5_9InferCtxt12closure_kind
librustc_driver-0b75ba01aeee6012.so:_RNvMs6_NtCserdW9TeaKDe_11rustc_infer5inferNtB5_9InferCtxt12next_int_var
librustc_driver-0b75ba01aeee6012.so:_RNvMs6_NtCserdW9TeaKDe_11rustc_infer5inferNtB5_9InferCtxt12probe_ty_var
librustc_driver-0b75ba01aeee6012.so:_RNvMs6_NtCserdW9TeaKDe_11rustc_infer5inferNtB5_9InferCtxt12ty_to_string
librustc_driver-0b75ba01aeee6012.so:_RNvMs6_NtCserdW9TeaKDe_11rustc_infer5inferNtB5_9InferCtxt14combine_fields
librustc_driver-0b75ba01aeee6012.so:_RNvMs6_NtCserdW9TeaKDe_11rustc_infer5inferNtB5_9InferCtxt14is_in_snapshot
librustc_driver-0b75ba01aeee6012.so:_RNvMs6_NtCserdW9TeaKDe_11rustc_infer5inferNtB5_9InferCtxt14next_const_var
librustc_driver-0b75ba01aeee6012.so:_RNvMs6_NtCserdW9TeaKDe_11rustc_infer5inferNtB5_9InferCtxt14next_float_var
librustc_driver-0b75ba01aeee6012.so:_RNvMs6_NtCserdW9TeaKDe_11rustc_infer5inferNtB5_9InferCtxt14next_ty_var_id
librustc_driver-0b75ba01aeee6012.so:_RNvMs6_NtCserdW9TeaKDe_11rustc_infer5inferNtB5_9InferCtxt14start_snapshot
librustc_driver-0b75ba01aeee6012.so:_RNvMs6_NtCserdW9TeaKDe_11rustc_infer5inferNtB5_9InferCtxt15next_region_var
librustc_driver-0b75ba01aeee6012.so:_RNvMs6_NtCserdW9TeaKDe_11rustc_infer5inferNtB5_9InferCtxt15num_region_vars
librustc_driver-0b75ba01aeee6012.so:_RNvMs6_NtCserdW9TeaKDe_11rustc_infer5inferNtB5_9InferCtxt15probe_const_var
librustc_driver-0b75ba01aeee6012.so:_RNvMs6_NtCserdW9TeaKDe_11rustc_infer5inferNtB5_9InferCtxt15resolve_regions
librustc_driver-0b75ba01aeee6012.so:_RNvMs6_NtCserdW9TeaKDe_11rustc_infer5inferNtB5_9InferCtxt15type_var_origin
librustc_driver-0b75ba01aeee6012.so:_RNvMs6_NtCserdW9TeaKDe_11rustc_infer5inferNtB5_9InferCtxt16coerce_predicate
librustc_driver-0b75ba01aeee6012.so:_RNvMs6_NtCserdW9TeaKDe_11rustc_infer5inferNtB5_9InferCtxt17member_constraint
librustc_driver-0b75ba01aeee6012.so:_RNvMs6_NtCserdW9TeaKDe_11rustc_infer5inferNtB5_9InferCtxt17next_const_var_id
librustc_driver-0b75ba01aeee6012.so:_RNvMs6_NtCserdW9TeaKDe_11rustc_infer5inferNtB5_9InferCtxt17region_var_origin
librustc_driver-0b75ba01aeee6012.so:_RNvMs6_NtCserdW9TeaKDe_11rustc_infer5inferNtB5_9InferCtxt17subtype_predicate
librustc_driver-0b75ba01aeee6012.so:_RNvMs6_NtCserdW9TeaKDe_11rustc_infer5inferNtB5_9InferCtxt17tainted_by_errors
librustc_driver-0b75ba01aeee6012.so:_RNvMs6_NtCserdW9TeaKDe_11rustc_infer5inferNtB5_9InferCtxt17take_opaque_types
librustc_driver-0b75ba01aeee6012.so:_RNvMs6_NtCserdW9TeaKDe_11rustc_infer5inferNtB5_9InferCtxt18const_eval_resolve
librustc_driver-0b75ba01aeee6012.so:_RNvMs6_NtCserdW9TeaKDe_11rustc_infer5inferNtB5_9InferCtxt18universe_of_region
librustc_driver-0b75ba01aeee6012.so:_RNvMs6_NtCserdW9TeaKDe_11rustc_infer5inferNtB5_9InferCtxt18unsolved_variables
librustc_driver-0b75ba01aeee6012.so:_RNvMs6_NtCserdW9TeaKDe_11rustc_infer5inferNtB5_9InferCtxt19next_nll_region_var
librustc_driver-0b75ba01aeee6012.so:_RNvMs6_NtCserdW9TeaKDe_11rustc_infer5inferNtB5_9InferCtxt20create_next_universe
librustc_driver-0b75ba01aeee6012.so:_RNvMs6_NtCserdW9TeaKDe_11rustc_infer5inferNtB5_9InferCtxt20verify_generic_bound
librustc_driver-0b75ba01aeee6012.so:_RNvMs6_NtCserdW9TeaKDe_11rustc_infer5inferNtB5_9InferCtxt21fresh_substs_for_item
librustc_driver-0b75ba01aeee6012.so:_RNvMs6_NtCserdW9TeaKDe_11rustc_infer5inferNtB5_9InferCtxt21freshener_keep_static
librustc_driver-0b75ba01aeee6012.so:_RNvMs6_NtCserdW9TeaKDe_11rustc_infer5inferNtB5_9InferCtxt21set_tainted_by_errors
librustc_driver-0b75ba01aeee6012.so:_RNvMs6_NtCserdW9TeaKDe_11rustc_infer5inferNtB5_9InferCtxt22skip_region_resolution
librustc_driver-0b75ba01aeee6012.so:_RNvMs6_NtCserdW9TeaKDe_11rustc_infer5inferNtB5_9InferCtxt22try_const_eval_resolve
librustc_driver-0b75ba01aeee6012.so:_RNvMs6_NtCserdW9TeaKDe_11rustc_infer5inferNtB5_9InferCtxt23next_ty_var_in_universe
librustc_driver-0b75ba01aeee6012.so:_RNvMs6_NtCserdW9TeaKDe_11rustc_infer5inferNtB5_9InferCtxt23take_region_var_origins
librustc_driver-0b75ba01aeee6012.so:_RNvMs6_NtCserdW9TeaKDe_11rustc_infer5inferNtB5_9InferCtxt25region_outlives_predicate
librustc_driver-0b75ba01aeee6012.so:_RNvMs6_NtCserdW9TeaKDe_11rustc_infer5inferNtB5_9InferCtxt26next_const_var_in_universe
librustc_driver-0b75ba01aeee6012.so:_RNvMs6_NtCserdW9TeaKDe_11rustc_infer5inferNtB5_9InferCtxt26next_ty_var_id_in_universe
librustc_driver-0b75ba01aeee6012.so:_RNvMs6_NtCserdW9TeaKDe_11rustc_infer5inferNtB5_9InferCtxt27next_region_var_in_universe
librustc_driver-0b75ba01aeee6012.so:_RNvMs6_NtCserdW9TeaKDe_11rustc_infer5inferNtB5_9InferCtxt30opaque_types_added_in_snapshot
librustc_driver-0b75ba01aeee6012.so:_RNvMs6_NtCserdW9TeaKDe_11rustc_infer5inferNtB5_9InferCtxt31next_nll_region_var_in_universe
librustc_driver-0b75ba01aeee6012.so:_RNvMs6_NtCserdW9TeaKDe_11rustc_infer5inferNtB5_9InferCtxt33take_and_reset_region_constraints
librustc_driver-0b75ba01aeee6012.so:_RNvMs6_NtCserdW9TeaKDe_11rustc_infer5inferNtB5_9InferCtxt36region_constraints_added_in_snapshot
librustc_driver-0b75ba01aeee6012.so:_RNvMs6_NtCserdW9TeaKDe_11rustc_infer5inferNtB5_9InferCtxt8err_ctxt
librustc_driver-0b75ba01aeee6012.so:_RNvMs6_NtCserdW9TeaKDe_11rustc_infer5inferNtB5_9InferCtxt8root_var
librustc_driver-0b75ba01aeee6012.so:_RNvMs6_NtCserdW9TeaKDe_11rustc_infer5inferNtB5_9InferCtxt8universe
librustc_driver-0b75ba01aeee6012.so:_RNvMs6_NtCserdW9TeaKDe_11rustc_infer5inferNtB5_9InferCtxt9add_given
librustc_driver-0b75ba01aeee6012.so:_RNvMs6_NtCserdW9TeaKDe_11rustc_infer5inferNtB5_9InferCtxt9freshener
librustc_driver-0b75ba01aeee6012.so:_RNvMs6_NtCshOzH7n6sxfs_12sharded_slab3tidNtB5_12Registration3new
librustc_driver-0b75ba01aeee6012.so:_RNvMs6_NtCsiEeU9cRUvPU_12rustc_expand4baseNtB5_15SyntaxExtension10dummy_bang
librustc_driver-0b75ba01aeee6012.so:_RNvMs6_NtCsiEeU9cRUvPU_12rustc_expand4baseNtB5_15SyntaxExtension10macro_kind
librustc_driver-0b75ba01aeee6012.so:_RNvMs6_NtCsiEeU9cRUvPU_12rustc_expand4baseNtB5_15SyntaxExtension12dummy_derive
librustc_driver-0b75ba01aeee6012.so:_RNvMs6_NtCsiEeU9cRUvPU_12rustc_expand4baseNtB5_15SyntaxExtension14non_macro_attr
librustc_driver-0b75ba01aeee6012.so:_RNvMs6_NtCsiEeU9cRUvPU_12rustc_expand4baseNtB5_15SyntaxExtension3new
librustc_driver-0b75ba01aeee6012.so:_RNvMs6_NtCsiEeU9cRUvPU_12rustc_expand4baseNtB5_15SyntaxExtension7default
librustc_driver-0b75ba01aeee6012.so:_RNvMs6_NtCsiEeU9cRUvPU_12rustc_expand4baseNtB5_15SyntaxExtension9expn_data
librustc_driver-0b75ba01aeee6012.so:_RNvMs6_NtCsjwWoBr4mZn4_5regex10re_unicodeNtB5_5Regex11is_match_at
librustc_driver-0b75ba01aeee6012.so:_RNvMs6_NtCsjwWoBr4mZn4_5regex10re_unicodeNtB5_5Regex13captures_read
librustc_driver-0b75ba01aeee6012.so:_RNvMs6_NtCsjwWoBr4mZn4_5regex10re_unicodeNtB5_5Regex14shortest_match
librustc_driver-0b75ba01aeee6012.so:_RNvMs6_NtCsjwWoBr4mZn4_5regex10re_unicodeNtB5_5Regex16captures_read_at
librustc_driver-0b75ba01aeee6012.so:_RNvMs6_NtCsjwWoBr4mZn4_5regex10re_unicodeNtB5_5Regex16read_captures_at
librustc_driver-0b75ba01aeee6012.so:_RNvMs6_NtCsjwWoBr4mZn4_5regex10re_unicodeNtB5_5Regex17shortest_match_at
librustc_driver-0b75ba01aeee6012.so:_RNvMs6_NtCsjwWoBr4mZn4_5regex10re_unicodeNtB5_5Regex7find_at
librustc_driver-0b75ba01aeee6012.so:_RNvMs6_NtCsjwWoBr4mZn4_5regex3dfaNtB5_10StateFlags7is_word
librustc_driver-0b75ba01aeee6012.so:_RNvMs6_NtCsjwWoBr4mZn4_5regex8re_bytesNtB5_5Regex12captures_len
librustc_driver-0b75ba01aeee6012.so:_RNvMs6_NtCsjwWoBr4mZn4_5regex8re_bytesNtB5_5Regex13capture_names
librustc_driver-0b75ba01aeee6012.so:_RNvMs6_NtCsjwWoBr4mZn4_5regex8re_bytesNtB5_5Regex17capture_locations
librustc_driver-0b75ba01aeee6012.so:_RNvMs6_NtCsjwWoBr4mZn4_5regex8re_bytesNtB5_5Regex6as_str
librustc_driver-0b75ba01aeee6012.so:_RNvMs6_NtCsjwWoBr4mZn4_5regex8re_bytesNtB5_5Regex9locations
librustc_driver-0b75ba01aeee6012.so:_RNvMs6_NtNtCs2iGwUc7EAmY_17rustc_codegen_ssa4back6linkerNtB5_8L4Bender3new
librustc_driver-0b75ba01aeee6012.so:_RNvMs6_NtNtCs8plho0yHpPq_14regex_automata4util8alphabetNtB5_7ByteSet8contains
librustc_driver-0b75ba01aeee6012.so:_RNvMs6_NtNtCs93julGFyfmy_10serde_json5value2deNtB5_15MapDeserializer3new
librustc_driver-0b75ba01aeee6012.so:_RNvMs6_NtNtCs9UaAlnGT11v_12rustc_middle2ty3styINtB5_6BinderNtB5_20ExistentialPredicateE12with_self_ty
librustc_driver-0b75ba01aeee6012.so:_RNvMs6_NtNtCs9UaAlnGT11v_12rustc_middle2ty5visitNtB5_11MaxUniverse12max_universe
librustc_driver-0b75ba01aeee6012.so:_RNvMs6_NtNtCs9UaAlnGT11v_12rustc_middle2ty5visitNtB5_11MaxUniverse3new
librustc_driver-0b75ba01aeee6012.so:_RNvMs6_NtNtCserdW9TeaKDe_11rustc_infer5infer15error_reportingNtB5_10TyCategory7from_ty
librustc_driver-0b75ba01aeee6012.so:_RNvMs6_NtNtCserdW9TeaKDe_11rustc_infer5infer18region_constraintsNtB5_11GenericKind5to_ty
librustc_driver-0b75ba01aeee6012.so:_RNvMs6_NtNtCshn1YiuQfVU7_12rustc_target3abi4callNtB5_20HomogeneousAggregate4unit
librustc_driver-0b75ba01aeee6012.so:_RNvMs6_NtNtCshn1YiuQfVU7_12rustc_target3abi4callNtB5_20HomogeneousAggregate5merge
librustc_driver-0b75ba01aeee6012.so:_RNvMs6_NtNtNtCs2ANZbKq4FAi_18tracing_subscriber3fmt6format6prettyNtB5_13PrettyVisitor10with_style
librustc_driver-0b75ba01aeee6012.so:_RNvMs6_NtNtNtCs2ANZbKq4FAi_18tracing_subscriber3fmt6format6prettyNtB5_13PrettyVisitor3new
librustc_driver-0b75ba01aeee6012.so:_RNvMs6_NtNtNtCs9UaAlnGT11v_12rustc_middle2ty5print6prettyNtB5_10FmtPrinter19pretty_print_region
librustc_driver-0b75ba01aeee6012.so:_RNvMs7_CsczMUV2s8Ncb_12rustc_errorsNtB5_15ErrorGuaranteed33unchecked_claim_error_was_emitted
librustc_driver-0b75ba01aeee6012.so:_RNvMs7_CsipHzpiWsw7P_20rustc_error_messagesNtB5_9MultiSpan10from_spans
librustc_driver-0b75ba01aeee6012.so:_RNvMs7_CsipHzpiWsw7P_20rustc_error_messagesNtB5_9MultiSpan11span_labels
librustc_driver-0b75ba01aeee6012.so:_RNvMs7_CsipHzpiWsw7P_20rustc_error_messagesNtB5_9MultiSpan12primary_span
librustc_driver-0b75ba01aeee6012.so:_RNvMs7_CsipHzpiWsw7P_20rustc_error_messagesNtB5_9MultiSpan13primary_spans
librustc_driver-0b75ba01aeee6012.so:_RNvMs7_CsipHzpiWsw7P_20rustc_error_messagesNtB5_9MultiSpan15has_span_labels
librustc_driver-0b75ba01aeee6012.so:_RNvMs7_CsipHzpiWsw7P_20rustc_error_messagesNtB5_9MultiSpan17has_primary_spans
librustc_driver-0b75ba01aeee6012.so:_RNvMs7_CsipHzpiWsw7P_20rustc_error_messagesNtB5_9MultiSpan7replace
librustc_driver-0b75ba01aeee6012.so:_RNvMs7_CsipHzpiWsw7P_20rustc_error_messagesNtB5_9MultiSpan8is_dummy
librustc_driver-0b75ba01aeee6012.so:_RNvMs7_CsipHzpiWsw7P_20rustc_error_messagesNtB5_9MultiSpan9from_span
librustc_driver-0b75ba01aeee6012.so:_RNvMs7_NtCs44BqnPnixRB_6thorin7packageNtB5_22InProgressDwarfPackage15contained_units
librustc_driver-0b75ba01aeee6012.so:_RNvMs7_NtCs44BqnPnixRB_6thorin7packageNtB5_22InProgressDwarfPackage3new
librustc_driver-0b75ba01aeee6012.so:_RNvMs7_NtCs44BqnPnixRB_6thorin7packageNtB5_22InProgressDwarfPackage6finish
librustc_driver-0b75ba01aeee6012.so:_RNvMs7_NtCs5ESSSXQhO3H_12regex_syntax3hirNtB5_5Class14is_always_utf8
librustc_driver-0b75ba01aeee6012.so:_RNvMs7_NtCs5ESSSXQhO3H_12regex_syntax3hirNtB5_5Class16case_fold_simple
librustc_driver-0b75ba01aeee6012.so:_RNvMs7_NtCs5ESSSXQhO3H_12regex_syntax3hirNtB5_5Class6negate
librustc_driver-0b75ba01aeee6012.so:_RNvMs7_NtCs8AvggvKXVYZ_6memchr6memmemNtB5_11SearcherRev10into_owned
librustc_driver-0b75ba01aeee6012.so:_RNvMs7_NtCs8AvggvKXVYZ_6memchr6memmemNtB5_11SearcherRev3new
librustc_driver-0b75ba01aeee6012.so:_RNvMs7_NtCs8AvggvKXVYZ_6memchr6memmemNtB5_11SearcherRev6as_ref
librustc_driver-0b75ba01aeee6012.so:_RNvMs7_NtCs8AvggvKXVYZ_6memchr6memmemNtB5_11SearcherRev6needle
librustc_driver-0b75ba01aeee6012.so:_RNvMs7_NtCs8lLsNL5HvpN_5gimli4archNtB5_7AArch6413register_name
librustc_driver-0b75ba01aeee6012.so:_RNvMs7_NtCs8lLsNL5HvpN_5gimli4archNtB5_7AArch6416name_to_register
librustc_driver-0b75ba01aeee6012.so:_RNvMs7_NtCs9IVbjQok2gJ_12icu_provider7requestNtB5_10DataLocale10get_langid
librustc_driver-0b75ba01aeee6012.so:_RNvMs7_NtCs9IVbjQok2gJ_12icu_provider7requestNtB5_10DataLocale11into_locale
librustc_driver-0b75ba01aeee6012.so:_RNvMs7_NtCs9IVbjQok2gJ_12icu_provider7requestNtB5_10DataLocale13is_langid_und
librustc_driver-0b75ba01aeee6012.so:_RNvMs7_NtCs9IVbjQok2gJ_12icu_provider7requestNtB5_10DataLocale8is_empty
librustc_driver-0b75ba01aeee6012.so:_RNvMs7_NtCs9IVbjQok2gJ_12icu_provider8responseINtB5_11DataPayloadNtNtB7_3buf12BufferMarkerE17from_owned_buffer
librustc_driver-0b75ba01aeee6012.so:_RNvMs7_NtCs9IVbjQok2gJ_12icu_provider8responseINtB5_11DataPayloadNtNtB7_3buf12BufferMarkerE17from_yoked_buffer
librustc_driver-0b75ba01aeee6012.so:_RNvMs7_NtCs9IVbjQok2gJ_12icu_provider8responseINtB5_11DataPayloadNtNtB7_3buf12BufferMarkerE18from_static_buffer
librustc_driver-0b75ba01aeee6012.so:_RNvMs7_NtCs9KpYfezRtzb_9rustc_ast11tokenstreamNtB5_11TokenStream9add_comma
librustc_driver-0b75ba01aeee6012.so:_RNvMs7_NtCs9KpYfezRtzb_9rustc_ast3astNtB5_17AngleBracketedArg4span
librustc_driver-0b75ba01aeee6012.so:_RNvMs7_NtCs9KpYfezRtzb_9rustc_ast4attrNtNtB7_3ast14NestedMetaItem4span
librustc_driver-0b75ba01aeee6012.so:_RNvMs7_NtCs9fJVnCDuQRQ_9rustc_hir3hirNtB5_12GenericBound4span
librustc_driver-0b75ba01aeee6012.so:_RNvMs7_NtCs9fJVnCDuQRQ_9rustc_hir3hirNtB5_12GenericBound9trait_ref
librustc_driver-0b75ba01aeee6012.so:_RNvMs7_NtCs9xF1GXCZqXD_18rustc_mir_dataflow9frameworkNtB5_11EffectIndex21next_in_forward_order
librustc_driver-0b75ba01aeee6012.so:_RNvMs7_NtCs9xF1GXCZqXD_18rustc_mir_dataflow9frameworkNtB5_11EffectIndex22next_in_backward_order
librustc_driver-0b75ba01aeee6012.so:_RNvMs7_NtCs9xF1GXCZqXD_18rustc_mir_dataflow9frameworkNtB5_11EffectIndex25precedes_in_forward_order
librustc_driver-0b75ba01aeee6012.so:_RNvMs7_NtCs9xF1GXCZqXD_18rustc_mir_dataflow9frameworkNtB5_11EffectIndex26precedes_in_backward_order
librustc_driver-0b75ba01aeee6012.so:_RNvMs7_NtCsBLdkomj5WW_13rustc_session6configNtB5_7Externs3get
librustc_driver-0b75ba01aeee6012.so:_RNvMs7_NtCsBLdkomj5WW_13rustc_session6configNtB5_7Externs3len
librustc_driver-0b75ba01aeee6012.so:_RNvMs7_NtCsBLdkomj5WW_13rustc_session6configNtB5_7Externs3new
librustc_driver-0b75ba01aeee6012.so:_RNvMs7_NtCsBLdkomj5WW_13rustc_session6configNtB5_7Externs4iter
librustc_driver-0b75ba01aeee6012.so:_RNvMs7_NtCsczMUV2s8Ncb_12rustc_errors18diagnostic_builderINtB5_17DiagnosticBuilderzE20new_diagnostic_fatal
librustc_driver-0b75ba01aeee6012.so:_RNvMs7_NtCserdW9TeaKDe_11rustc_infer5inferNtNtB5_15error_reporting11TypeErrCtxt23report_mismatched_types
librustc_driver-0b75ba01aeee6012.so:_RNvMs7_NtCserdW9TeaKDe_11rustc_infer5inferNtNtB5_15error_reporting11TypeErrCtxt24report_mismatched_consts
librustc_driver-0b75ba01aeee6012.so:_RNvMs7_NtCserdW9TeaKDe_11rustc_infer5inferNtNtB5_15error_reporting11TypeErrCtxt33resolve_regions_and_report_errors
librustc_driver-0b75ba01aeee6012.so:_RNvMs7_NtCserdW9TeaKDe_11rustc_infer5inferNtNtB5_15error_reporting11TypeErrCtxt42check_region_obligations_and_report_errors
librustc_driver-0b75ba01aeee6012.so:_RNvMs7_NtCsh1oXE7bm4Eb_10rustc_span7hygieneNtNtB7_13span_encoding4Span15fresh_expansion
librustc_driver-0b75ba01aeee6012.so:_RNvMs7_NtCshn1YiuQfVU7_12rustc_target4specNtB5_14MergeFunctions4desc
librustc_driver-0b75ba01aeee6012.so:_RNvMs7_NtCsiEeU9cRUvPU_12rustc_expand4baseNtB5_10ModuleData13with_dir_path
librustc_driver-0b75ba01aeee6012.so:_RNvMs7_NtCsjwWoBr4mZn4_5regex10re_unicodeNtB5_5Regex12captures_len
librustc_driver-0b75ba01aeee6012.so:_RNvMs7_NtCsjwWoBr4mZn4_5regex10re_unicodeNtB5_5Regex13capture_names
librustc_driver-0b75ba01aeee6012.so:_RNvMs7_NtCsjwWoBr4mZn4_5regex10re_unicodeNtB5_5Regex17capture_locations
librustc_driver-0b75ba01aeee6012.so:_RNvMs7_NtCsjwWoBr4mZn4_5regex10re_unicodeNtB5_5Regex6as_str
librustc_driver-0b75ba01aeee6012.so:_RNvMs7_NtCsjwWoBr4mZn4_5regex10re_unicodeNtB5_5Regex9locations
librustc_driver-0b75ba01aeee6012.so:_RNvMs7_NtCsjwWoBr4mZn4_5regex3dfaNtB5_4Byte3eof
librustc_driver-0b75ba01aeee6012.so:_RNvMs7_NtCsjwWoBr4mZn4_5regex3dfaNtB5_4Byte4byte
librustc_driver-0b75ba01aeee6012.so:_RNvMs7_NtCsjwWoBr4mZn4_5regex5inputNtB5_4Char12is_word_byte
librustc_driver-0b75ba01aeee6012.so:_RNvMs7_NtCsjwWoBr4mZn4_5regex5inputNtB5_4Char12is_word_char
librustc_driver-0b75ba01aeee6012.so:_RNvMs7_NtNtCs2ANZbKq4FAi_18tracing_subscriber3fmt6formatNtB5_13DefaultFields3new
librustc_driver-0b75ba01aeee6012.so:_RNvMs7_NtNtCs2ANZbKq4FAi_18tracing_subscriber6filter13layer_filtersNtB5_9FilterMap3set
librustc_driver-0b75ba01aeee6012.so:_RNvMs7_NtNtCs7nHlYWzWSzq_11rustc_parse6parser11diagnosticsNtB7_6Parser14is_diff_marker
librustc_driver-0b75ba01aeee6012.so:_RNvMs7_NtNtCs7nHlYWzWSzq_11rustc_parse6parser11diagnosticsNtB7_6Parser15unclosed_delims
librustc_driver-0b75ba01aeee6012.so:_RNvMs7_NtNtCs7nHlYWzWSzq_11rustc_parse6parser11diagnosticsNtB7_6Parser17recover_const_arg
librustc_driver-0b75ba01aeee6012.so:_RNvMs7_NtNtCs7nHlYWzWSzq_11rustc_parse6parser11diagnosticsNtB7_6Parser19recover_diff_marker
librustc_driver-0b75ba01aeee6012.so:_RNvMs7_NtNtCs7nHlYWzWSzq_11rustc_parse6parser11diagnosticsNtB7_6Parser28dummy_const_arg_needs_braces
librustc_driver-0b75ba01aeee6012.so:_RNvMs7_NtNtCs7nHlYWzWSzq_11rustc_parse6parser11diagnosticsNtB7_6Parser28maybe_suggest_struct_literal
librustc_driver-0b75ba01aeee6012.so:_RNvMs7_NtNtCs7nHlYWzWSzq_11rustc_parse6parser11diagnosticsNtB7_6Parser30create_snapshot_for_diagnostic
librustc_driver-0b75ba01aeee6012.so:_RNvMs7_NtNtCs7nHlYWzWSzq_11rustc_parse6parser11diagnosticsNtB7_6Parser30maybe_annotate_with_ascription
librustc_driver-0b75ba01aeee6012.so:_RNvMs7_NtNtCs7nHlYWzWSzq_11rustc_parse6parser11diagnosticsNtB7_6Parser31recover_const_param_declaration
librustc_driver-0b75ba01aeee6012.so:_RNvMs7_NtNtCs7nHlYWzWSzq_11rustc_parse6parser11diagnosticsNtB7_6Parser33maybe_consume_incorrect_semicolon
librustc_driver-0b75ba01aeee6012.so:_RNvMs7_NtNtCs7nHlYWzWSzq_11rustc_parse6parser11diagnosticsNtB7_6Parser35handle_ambiguous_unbraced_const_arg
librustc_driver-0b75ba01aeee6012.so:_RNvMs7_NtNtCs7nHlYWzWSzq_11rustc_parse6parser11diagnosticsNtB7_6Parser37handle_unambiguous_unbraced_const_arg
librustc_driver-0b75ba01aeee6012.so:_RNvMs7_NtNtCs8lLsNL5HvpN_5gimli5write3strNtB5_11StringTable3get
librustc_driver-0b75ba01aeee6012.so:_RNvMs7_NtNtCs9UaAlnGT11v_12rustc_middle2ty3adtNtB5_6AdtDef10destructor
librustc_driver-0b75ba01aeee6012.so:_RNvMs7_NtNtCs9UaAlnGT11v_12rustc_middle2ty3adtNtB5_6AdtDef14is_payloadfree
librustc_driver-0b75ba01aeee6012.so:_RNvMs7_NtNtCs9UaAlnGT11v_12rustc_middle2ty3adtNtB5_6AdtDef14variant_of_res
librustc_driver-0b75ba01aeee6012.so:_RNvMs7_NtNtCs9UaAlnGT11v_12rustc_middle2ty3adtNtB5_6AdtDef15variant_with_id
librustc_driver-0b75ba01aeee6012.so:_RNvMs7_NtNtCs9UaAlnGT11v_12rustc_middle2ty3adtNtB5_6AdtDef16non_enum_variant
librustc_driver-0b75ba01aeee6012.so:_RNvMs7_NtNtCs9UaAlnGT11v_12rustc_middle2ty3adtNtB5_6AdtDef16sized_constraint
librustc_driver-0b75ba01aeee6012.so:_RNvMs7_NtNtCs9UaAlnGT11v_12rustc_middle2ty3adtNtB5_6AdtDef18has_non_const_dtor
librustc_driver-0b75ba01aeee6012.so:_RNvMs7_NtNtCs9UaAlnGT11v_12rustc_middle2ty3adtNtB5_6AdtDef20variant_with_ctor_id
librustc_driver-0b75ba01aeee6012.so:_RNvMs7_NtNtCs9UaAlnGT11v_12rustc_middle2ty3adtNtB5_6AdtDef21variant_index_with_id
librustc_driver-0b75ba01aeee6012.so:_RNvMs7_NtNtCs9UaAlnGT11v_12rustc_middle2ty3adtNtB5_6AdtDef26variant_index_with_ctor_id
librustc_driver-0b75ba01aeee6012.so:_RNvMs7_NtNtCs9UaAlnGT11v_12rustc_middle2ty3adtNtB5_6AdtDef28discriminant_def_for_variant
librustc_driver-0b75ba01aeee6012.so:_RNvMs7_NtNtCs9UaAlnGT11v_12rustc_middle2ty3adtNtB5_6AdtDef5descr
librustc_driver-0b75ba01aeee6012.so:_RNvMs7_NtNtCs9UaAlnGT11v_12rustc_middle2ty3adtNtB5_6AdtDef8has_dtor
librustc_driver-0b75ba01aeee6012.so:_RNvMs7_NtNtCs9UaAlnGT11v_12rustc_middle2ty3styINtNtB7_4list4ListINtB5_6BinderNtB5_20ExistentialPredicateEE16principal_def_id
librustc_driver-0b75ba01aeee6012.so:_RNvMs7_NtNtCs9UaAlnGT11v_12rustc_middle2ty3styINtNtB7_4list4ListINtB5_6BinderNtB5_20ExistentialPredicateEE9principal
librustc_driver-0b75ba01aeee6012.so:_RNvMs7_NtNtCs9UaAlnGT11v_12rustc_middle2ty4foldNtB5_7Shifter3new
librustc_driver-0b75ba01aeee6012.so:_RNvMs7_NtNtCs9UaAlnGT11v_12rustc_middle2ty7contextNtB5_6TyCtxt10lang_items
librustc_driver-0b75ba01aeee6012.so:_RNvMs7_NtNtCs9UaAlnGT11v_12rustc_middle2ty7contextNtB5_6TyCtxt11const_error
librustc_driver-0b75ba01aeee6012.so:_RNvMs7_NtNtCs9UaAlnGT11v_12rustc_middle2ty7contextNtB5_6TyCtxt13alloc_adt_def
librustc_driver-0b75ba01aeee6012.so:_RNvMs7_NtNtCs9UaAlnGT11v_12rustc_middle2ty7contextNtB5_6TyCtxt14allocate_bytes
librustc_driver-0b75ba01aeee6012.so:_RNvMs7_NtNtCs9UaAlnGT11v_12rustc_middle2ty7contextNtB5_6TyCtxt15alloc_steal_mir
librustc_driver-0b75ba01aeee6012.so:_RNvMs7_NtNtCs9UaAlnGT11v_12rustc_middle2ty7contextNtB5_6TyCtxt16alloc_steal_thir
librustc_driver-0b75ba01aeee6012.so:_RNvMs7_NtNtCs9UaAlnGT11v_12rustc_middle2ty7contextNtB5_6TyCtxt18body_codegen_attrs
librustc_driver-0b75ba01aeee6012.so:_RNvMs7_NtNtCs9UaAlnGT11v_12rustc_middle2ty7contextNtB5_6TyCtxt18create_global_ctxt
librustc_driver-0b75ba01aeee6012.so:_RNvMs7_NtNtCs9UaAlnGT11v_12rustc_middle2ty7contextNtB5_6TyCtxt18def_path_debug_str
librustc_driver-0b75ba01aeee6012.so:_RNvMs7_NtNtCs9UaAlnGT11v_12rustc_middle2ty7contextNtB5_6TyCtxt18generator_is_async
librustc_driver-0b75ba01aeee6012.so:_RNvMs7_NtNtCs9UaAlnGT11v_12rustc_middle2ty7contextNtB5_6TyCtxt18is_diagnostic_item
librustc_driver-0b75ba01aeee6012.so:_RNvMs7_NtNtCs9UaAlnGT11v_12rustc_middle2ty7contextNtB5_6TyCtxt19get_diagnostic_item
librustc_driver-0b75ba01aeee6012.so:_RNvMs7_NtNtCs9UaAlnGT11v_12rustc_middle2ty7contextNtB5_6TyCtxt19get_diagnostic_name
librustc_driver-0b75ba01aeee6012.so:_RNvMs7_NtNtCs9UaAlnGT11v_12rustc_middle2ty7contextNtB5_6TyCtxt20alloc_steal_promoted
librustc_driver-0b75ba01aeee6012.so:_RNvMs7_NtNtCs9UaAlnGT11v_12rustc_middle2ty7contextNtB5_6TyCtxt20typeck_opt_const_arg
librustc_driver-0b75ba01aeee6012.so:_RNvMs7_NtNtCs9UaAlnGT11v_12rustc_middle2ty7contextNtB5_6TyCtxt23def_path_hash_to_def_id
librustc_driver-0b75ba01aeee6012.so:_RNvMs7_NtNtCs9UaAlnGT11v_12rustc_middle2ty7contextNtB5_6TyCtxt24ty_error_with_guaranteed
librustc_driver-0b75ba01aeee6012.so:_RNvMs7_NtNtCs9UaAlnGT11v_12rustc_middle2ty7contextNtB5_6TyCtxt25layout_scalar_valid_range
librustc_driver-0b75ba01aeee6012.so:_RNvMs7_NtNtCs9UaAlnGT11v_12rustc_middle2ty7contextNtB5_6TyCtxt26mir_borrowck_opt_const_arg
librustc_driver-0b75ba01aeee6012.so:_RNvMs7_NtNtCs9UaAlnGT11v_12rustc_middle2ty7contextNtB5_6TyCtxt27const_error_with_guaranteed
librustc_driver-0b75ba01aeee6012.so:_RNvMs7_NtNtCs9UaAlnGT11v_12rustc_middle2ty7contextNtB5_6TyCtxt7def_key
librustc_driver-0b75ba01aeee6012.so:_RNvMs7_NtNtCs9UaAlnGT11v_12rustc_middle2ty7contextNtB5_6TyCtxt8def_path
librustc_driver-0b75ba01aeee6012.so:_RNvMs7_NtNtCs9UaAlnGT11v_12rustc_middle2ty7contextNtB5_6TyCtxt8features
librustc_driver-0b75ba01aeee6012.so:_RNvMs7_NtNtCs9UaAlnGT11v_12rustc_middle2ty7contextNtB5_6TyCtxt8ty_error
librustc_driver-0b75ba01aeee6012.so:_RNvMs7_NtNtCs9UaAlnGT11v_12rustc_middle2ty7contextNtB5_6TyCtxt9stability
librustc_driver-0b75ba01aeee6012.so:_RNvMs7_NtNtCserdW9TeaKDe_11rustc_infer5infer15error_reportingNtB7_9InferCtxt15find_block_span
librustc_driver-0b75ba01aeee6012.so:_RNvMs7_NtNtCserdW9TeaKDe_11rustc_infer5infer15error_reportingNtB7_9InferCtxt27find_block_span_from_hir_id
librustc_driver-0b75ba01aeee6012.so:_RNvMs7_NtNtCserdW9TeaKDe_11rustc_infer5infer18region_constraintsNtB5_11VerifyBound11cannot_hold
librustc_driver-0b75ba01aeee6012.so:_RNvMs7_NtNtCserdW9TeaKDe_11rustc_infer5infer18region_constraintsNtB5_11VerifyBound2or
librustc_driver-0b75ba01aeee6012.so:_RNvMs7_NtNtCserdW9TeaKDe_11rustc_infer5infer18region_constraintsNtB5_11VerifyBound9must_hold
librustc_driver-0b75ba01aeee6012.so:_RNvMs7_NtNtNtCs1Br764BqhVG_6object4read4coff7sectionNtNtBb_2pe18ImageSectionHeader4kind
librustc_driver-0b75ba01aeee6012.so:_RNvMs7_NtNtNtCs2ANZbKq4FAi_18tracing_subscriber6filter3env9directiveINtNtB9_9directive12DirectiveSetNtB5_9DirectiveE17has_value_filters
librustc_driver-0b75ba01aeee6012.so:_RNvMs7_NtNtNtCs2ANZbKq4FAi_18tracing_subscriber6filter3env9directiveINtNtB9_9directive12DirectiveSetNtB5_9DirectiveE7matcher
librustc_driver-0b75ba01aeee6012.so:_RNvMs7_NtNtNtCs2zXTrlMMQY6_6object4read4coff7sectionNtNtBb_2pe18ImageSectionHeader4kind
librustc_driver-0b75ba01aeee6012.so:_RNvMs8_Csh1oXE7bm4Eb_10rustc_spanNtB5_8SpanData8contains
librustc_driver-0b75ba01aeee6012.so:_RNvMs8_CsiyJNtbvviN4_15rustc_lint_defsNtB5_6LintId13lint_name_raw
librustc_driver-0b75ba01aeee6012.so:_RNvMs8_CsiyJNtbvviN4_15rustc_lint_defsNtB5_6LintId2of
librustc_driver-0b75ba01aeee6012.so:_RNvMs8_CsiyJNtbvviN4_15rustc_lint_defsNtB5_6LintId9to_string
librustc_driver-0b75ba01aeee6012.so:_RNvMs8_NtCs1Br764BqhVG_6object4readNtB5_9ObjectMap3get
librustc_driver-0b75ba01aeee6012.so:_RNvMs8_NtCs2qkp8pQJBHP_17crossbeam_channel6selectNtB5_17SelectedOperation5index
librustc_driver-0b75ba01aeee6012.so:_RNvMs8_NtCs2zXTrlMMQY6_6object4readNtB5_9ObjectMap3get
librustc_driver-0b75ba01aeee6012.so:_RNvMs8_NtCs5ESSSXQhO3H_12regex_syntax3astNtB5_4Span10with_start
librustc_driver-0b75ba01aeee6012.so:_RNvMs8_NtCs5ESSSXQhO3H_12regex_syntax3astNtB5_4Span11is_one_line
librustc_driver-0b75ba01aeee6012.so:_RNvMs8_NtCs5ESSSXQhO3H_12regex_syntax3astNtB5_4Span3new
librustc_driver-0b75ba01aeee6012.so:_RNvMs8_NtCs5ESSSXQhO3H_12regex_syntax3astNtB5_4Span5splat
librustc_driver-0b75ba01aeee6012.so:_RNvMs8_NtCs5ESSSXQhO3H_12regex_syntax3astNtB5_4Span8is_empty
librustc_driver-0b75ba01aeee6012.so:_RNvMs8_NtCs5ESSSXQhO3H_12regex_syntax3astNtB5_4Span8with_end
librustc_driver-0b75ba01aeee6012.so:_RNvMs8_NtCs5ESSSXQhO3H_12regex_syntax3hirNtB5_12ClassUnicode10difference
librustc_driver-0b75ba01aeee6012.so:_RNvMs8_NtCs5ESSSXQhO3H_12regex_syntax3hirNtB5_12ClassUnicode12is_all_ascii
librustc_driver-0b75ba01aeee6012.so:_RNvMs8_NtCs5ESSSXQhO3H_12regex_syntax3hirNtB5_12ClassUnicode16case_fold_simple
librustc_driver-0b75ba01aeee6012.so:_RNvMs8_NtCs5ESSSXQhO3H_12regex_syntax3hirNtB5_12ClassUnicode20symmetric_difference
librustc_driver-0b75ba01aeee6012.so:_RNvMs8_NtCs5ESSSXQhO3H_12regex_syntax3hirNtB5_12ClassUnicode20try_case_fold_simple
librustc_driver-0b75ba01aeee6012.so:_RNvMs8_NtCs5ESSSXQhO3H_12regex_syntax3hirNtB5_12ClassUnicode4iter
librustc_driver-0b75ba01aeee6012.so:_RNvMs8_NtCs5ESSSXQhO3H_12regex_syntax3hirNtB5_12ClassUnicode4push
librustc_driver-0b75ba01aeee6012.so:_RNvMs8_NtCs5ESSSXQhO3H_12regex_syntax3hirNtB5_12ClassUnicode5empty
librustc_driver-0b75ba01aeee6012.so:_RNvMs8_NtCs5ESSSXQhO3H_12regex_syntax3hirNtB5_12ClassUnicode5union
librustc_driver-0b75ba01aeee6012.so:_RNvMs8_NtCs5ESSSXQhO3H_12regex_syntax3hirNtB5_12ClassUnicode6negate
librustc_driver-0b75ba01aeee6012.so:_RNvMs8_NtCs5ESSSXQhO3H_12regex_syntax3hirNtB5_12ClassUnicode6ranges
librustc_driver-0b75ba01aeee6012.so:_RNvMs8_NtCs5ESSSXQhO3H_12regex_syntax3hirNtB5_12ClassUnicode9intersect
librustc_driver-0b75ba01aeee6012.so:_RNvMs8_NtCs9UaAlnGT11v_12rustc_middle2tyNtNtB5_3sty16EarlyBoundRegion8has_name
librustc_driver-0b75ba01aeee6012.so:_RNvMs8_NtCs9fJVnCDuQRQ_9rustc_hir3hirNtB5_12GenericParam13is_impl_trait
librustc_driver-0b75ba01aeee6012.so:_RNvMs8_NtCs9fJVnCDuQRQ_9rustc_hir3hirNtB5_12GenericParam18is_elided_lifetime
librustc_driver-0b75ba01aeee6012.so:_RNvMs8_NtCs9tFFgSukqZV_10ppv_lite866x86_64NtB5_14vec256_storage6new128
librustc_driver-0b75ba01aeee6012.so:_RNvMs8_NtCs9tFFgSukqZV_10ppv_lite866x86_64NtB5_14vec256_storage8split128
librustc_driver-0b75ba01aeee6012.so:_RNvMs8_NtCsBLdkomj5WW_13rustc_session6configNtB5_11ExternEntry5files
librustc_driver-0b75ba01aeee6012.so:_RNvMs8_NtCserdW9TeaKDe_11rustc_infer5inferNtB5_17TyOrConstInferVar22maybe_from_generic_arg
librustc_driver-0b75ba01aeee6012.so:_RNvMs8_NtCsfTtTHHdmSly_7tracing4spanNtB5_5Inner12follows_from
librustc_driver-0b75ba01aeee6012.so:_RNvMs8_NtCsh1oXE7bm4Eb_10rustc_span6symbolNtB5_6Symbol15to_ident_string
librustc_driver-0b75ba01aeee6012.so:_RNvMs8_NtCsh1oXE7bm4Eb_10rustc_span6symbolNtB5_6Symbol16new_from_decoded
librustc_driver-0b75ba01aeee6012.so:_RNvMs8_NtCsh1oXE7bm4Eb_10rustc_span6symbolNtB5_6Symbol3new
librustc_driver-0b75ba01aeee6012.so:_RNvMs8_NtCsh1oXE7bm4Eb_10rustc_span6symbolNtB5_6Symbol6as_str
librustc_driver-0b75ba01aeee6012.so:_RNvMs8_NtCsh1oXE7bm4Eb_10rustc_span6symbolNtB5_6Symbol6as_u32
librustc_driver-0b75ba01aeee6012.so:_RNvMs8_NtCsh1oXE7bm4Eb_10rustc_span6symbolNtB5_6Symbol6intern
librustc_driver-0b75ba01aeee6012.so:_RNvMs8_NtCsh1oXE7bm4Eb_10rustc_span6symbolNtB5_6Symbol8is_empty
librustc_driver-0b75ba01aeee6012.so:_RNvMs8_NtCsiEeU9cRUvPU_12rustc_expand4baseNtB5_7ExtCtxt10parse_sess
librustc_driver-0b75ba01aeee6012.so:_RNvMs8_NtCsiEeU9cRUvPU_12rustc_expand4baseNtB5_7ExtCtxt10source_map
librustc_driver-0b75ba01aeee6012.so:_RNvMs8_NtCsiEeU9cRUvPU_12rustc_expand4baseNtB5_7ExtCtxt12trace_macros
librustc_driver-0b75ba01aeee6012.so:_RNvMs8_NtCsiEeU9cRUvPU_12rustc_expand4baseNtB5_7ExtCtxt13def_site_path
librustc_driver-0b75ba01aeee6012.so:_RNvMs8_NtCsiEeU9cRUvPU_12rustc_expand4baseNtB5_7ExtCtxt15expansion_cause
librustc_driver-0b75ba01aeee6012.so:_RNvMs8_NtCsiEeU9cRUvPU_12rustc_expand4baseNtB5_7ExtCtxt16set_trace_macros
librustc_driver-0b75ba01aeee6012.so:_RNvMs8_NtCsiEeU9cRUvPU_12rustc_expand4baseNtB5_7ExtCtxt17trace_macros_diag
librustc_driver-0b75ba01aeee6012.so:_RNvMs8_NtCsiEeU9cRUvPU_12rustc_expand4baseNtB5_7ExtCtxt18monotonic_expander
librustc_driver-0b75ba01aeee6012.so:_RNvMs8_NtCsiEeU9cRUvPU_12rustc_expand4baseNtB5_7ExtCtxt18with_def_site_ctxt
librustc_driver-0b75ba01aeee6012.so:_RNvMs8_NtCsiEeU9cRUvPU_12rustc_expand4baseNtB5_7ExtCtxt19check_unused_macros
librustc_driver-0b75ba01aeee6012.so:_RNvMs8_NtCsiEeU9cRUvPU_12rustc_expand4baseNtB5_7ExtCtxt19new_parser_from_tts
librustc_driver-0b75ba01aeee6012.so:_RNvMs8_NtCsiEeU9cRUvPU_12rustc_expand4baseNtB5_7ExtCtxt19with_call_site_ctxt
librustc_driver-0b75ba01aeee6012.so:_RNvMs8_NtCsiEeU9cRUvPU_12rustc_expand4baseNtB5_7ExtCtxt20with_mixed_site_ctxt
librustc_driver-0b75ba01aeee6012.so:_RNvMs8_NtCsiEeU9cRUvPU_12rustc_expand4baseNtB5_7ExtCtxt3bug
librustc_driver-0b75ba01aeee6012.so:_RNvMs8_NtCsiEeU9cRUvPU_12rustc_expand4baseNtB5_7ExtCtxt3new
librustc_driver-0b75ba01aeee6012.so:_RNvMs8_NtCsiEeU9cRUvPU_12rustc_expand4baseNtB5_7ExtCtxt8expander
librustc_driver-0b75ba01aeee6012.so:_RNvMs8_NtCsiEeU9cRUvPU_12rustc_expand4baseNtB5_7ExtCtxt8std_path
librustc_driver-0b75ba01aeee6012.so:_RNvMs8_NtCsiEeU9cRUvPU_12rustc_expand4baseNtB5_7ExtCtxt9call_site
librustc_driver-0b75ba01aeee6012.so:_RNvMs8_NtCslkzSeYO0sIQ_11parking_lot10raw_rwlockNtB5_9RawRwLock12upgrade_slow
librustc_driver-0b75ba01aeee6012.so:_RNvMs8_NtCslkzSeYO0sIQ_11parking_lot10raw_rwlockNtB5_9RawRwLock14downgrade_slow
librustc_driver-0b75ba01aeee6012.so:_RNvMs8_NtCslkzSeYO0sIQ_11parking_lot10raw_rwlockNtB5_9RawRwLock16bump_shared_slow
librustc_driver-0b75ba01aeee6012.so:_RNvMs8_NtCslkzSeYO0sIQ_11parking_lot10raw_rwlockNtB5_9RawRwLock16lock_shared_slow
librustc_driver-0b75ba01aeee6012.so:_RNvMs8_NtCslkzSeYO0sIQ_11parking_lot10raw_rwlockNtB5_9RawRwLock16try_upgrade_slow
librustc_driver-0b75ba01aeee6012.so:_RNvMs8_NtCslkzSeYO0sIQ_11parking_lot10raw_rwlockNtB5_9RawRwLock18unlock_shared_slow
librustc_driver-0b75ba01aeee6012.so:_RNvMs8_NtCslkzSeYO0sIQ_11parking_lot10raw_rwlockNtB5_9RawRwLock19bump_exclusive_slow
librustc_driver-0b75ba01aeee6012.so:_RNvMs8_NtCslkzSeYO0sIQ_11parking_lot10raw_rwlockNtB5_9RawRwLock19lock_exclusive_slow
librustc_driver-0b75ba01aeee6012.so:_RNvMs8_NtCslkzSeYO0sIQ_11parking_lot10raw_rwlockNtB5_9RawRwLock20bump_upgradable_slow
librustc_driver-0b75ba01aeee6012.so:_RNvMs8_NtCslkzSeYO0sIQ_11parking_lot10raw_rwlockNtB5_9RawRwLock20lock_upgradable_slow
librustc_driver-0b75ba01aeee6012.so:_RNvMs8_NtCslkzSeYO0sIQ_11parking_lot10raw_rwlockNtB5_9RawRwLock20try_lock_shared_slow
librustc_driver-0b75ba01aeee6012.so:_RNvMs8_NtCslkzSeYO0sIQ_11parking_lot10raw_rwlockNtB5_9RawRwLock21unlock_exclusive_slow
librustc_driver-0b75ba01aeee6012.so:_RNvMs8_NtCslkzSeYO0sIQ_11parking_lot10raw_rwlockNtB5_9RawRwLock22unlock_upgradable_slow
librustc_driver-0b75ba01aeee6012.so:_RNvMs8_NtCslkzSeYO0sIQ_11parking_lot10raw_rwlockNtB5_9RawRwLock24try_lock_upgradable_slow
librustc_driver-0b75ba01aeee6012.so:_RNvMs8_NtCslkzSeYO0sIQ_11parking_lot10raw_rwlockNtB5_9RawRwLock28downgrade_to_upgradable_slow
librustc_driver-0b75ba01aeee6012.so:_RNvMs8_NtNtCs9UaAlnGT11v_12rustc_middle2ty3styNtB5_8TraitRef11from_method
librustc_driver-0b75ba01aeee6012.so:_RNvMs8_NtNtCs9UaAlnGT11v_12rustc_middle2ty3styNtB5_8TraitRef12with_self_ty
librustc_driver-0b75ba01aeee6012.so:_RNvMs8_NtNtCs9UaAlnGT11v_12rustc_middle2ty3styNtB5_8TraitRef8identity
librustc_driver-0b75ba01aeee6012.so:_RNvMs8_NtNtCs9UaAlnGT11v_12rustc_middle2ty5substNtB5_10GenericArg12expect_const
librustc_driver-0b75ba01aeee6012.so:_RNvMs8_NtNtCs9UaAlnGT11v_12rustc_middle2ty5substNtB5_10GenericArg13expect_region
librustc_driver-0b75ba01aeee6012.so:_RNvMs8_NtNtCs9UaAlnGT11v_12rustc_middle2ty5substNtB5_10GenericArg19is_non_region_infer
librustc_driver-0b75ba01aeee6012.so:_RNvMs8_NtNtCs9UaAlnGT11v_12rustc_middle2ty5substNtB5_10GenericArg9expect_ty
librustc_driver-0b75ba01aeee6012.so:_RNvMs8_NtNtCs9UaAlnGT11v_12rustc_middle2ty7contextNtNtB7_5query8TyCtxtAt10create_def
librustc_driver-0b75ba01aeee6012.so:_RNvMs8_NtNtCserdW9TeaKDe_11rustc_infer5infer18region_constraintsNtB5_20RegionConstraintData8is_empty
librustc_driver-0b75ba01aeee6012.so:_RNvMs8_NtNtCslNSrLHyiy2w_19rustc_mir_transform8coverage5graphNtB5_22BasicCoverageBlockData11set_counter
librustc_driver-0b75ba01aeee6012.so:_RNvMs8_NtNtCslNSrLHyiy2w_19rustc_mir_transform8coverage5graphNtB5_22BasicCoverageBlockData21set_edge_counter_from
librustc_driver-0b75ba01aeee6012.so:_RNvMs8_NtNtCslNSrLHyiy2w_19rustc_mir_transform8coverage5graphNtB5_22BasicCoverageBlockData2id
librustc_driver-0b75ba01aeee6012.so:_RNvMs8_NtNtCslNSrLHyiy2w_19rustc_mir_transform8coverage5graphNtB5_22BasicCoverageBlockData4from
librustc_driver-0b75ba01aeee6012.so:_RNvMs8_NtNtNtCs1Br764BqhVG_6object4read4coff7sectionNtNtBb_2pe18ImageSectionHeader11name_offset
librustc_driver-0b75ba01aeee6012.so:_RNvMs8_NtNtNtCs1Br764BqhVG_6object4read4coff7sectionNtNtBb_2pe18ImageSectionHeader14coff_alignment
librustc_driver-0b75ba01aeee6012.so:_RNvMs8_NtNtNtCs1Br764BqhVG_6object4read4coff7sectionNtNtBb_2pe18ImageSectionHeader15coff_file_range
librustc_driver-0b75ba01aeee6012.so:_RNvMs8_NtNtNtCs1Br764BqhVG_6object4read4coff7sectionNtNtBb_2pe18ImageSectionHeader8raw_name
librustc_driver-0b75ba01aeee6012.so:_RNvMs8_NtNtNtCs2ANZbKq4FAi_18tracing_subscriber6filter3env9directiveINtB5_8MatchSetNtNtB7_5field13CallsiteMatchE13to_span_match
librustc_driver-0b75ba01aeee6012.so:_RNvMs8_NtNtNtCs2zXTrlMMQY6_6object4read4coff7sectionNtNtBb_2pe18ImageSectionHeader11name_offset
librustc_driver-0b75ba01aeee6012.so:_RNvMs8_NtNtNtCs2zXTrlMMQY6_6object4read4coff7sectionNtNtBb_2pe18ImageSectionHeader14coff_alignment
librustc_driver-0b75ba01aeee6012.so:_RNvMs8_NtNtNtCs2zXTrlMMQY6_6object4read4coff7sectionNtNtBb_2pe18ImageSectionHeader15coff_file_range
librustc_driver-0b75ba01aeee6012.so:_RNvMs8_NtNtNtCs2zXTrlMMQY6_6object4read4coff7sectionNtNtBb_2pe18ImageSectionHeader8raw_name
librustc_driver-0b75ba01aeee6012.so:_RNvMs9_CskJTYWfBGr7m_8chalk_irNtB5_8BoundVar10shifted_in
librustc_driver-0b75ba01aeee6012.so:_RNvMs9_CskJTYWfBGr7m_8chalk_irNtB5_8BoundVar11shifted_out
librustc_driver-0b75ba01aeee6012.so:_RNvMs9_CskJTYWfBGr7m_8chalk_irNtB5_8BoundVar12bound_within
librustc_driver-0b75ba01aeee6012.so:_RNvMs9_CskJTYWfBGr7m_8chalk_irNtB5_8BoundVar14shifted_out_to
librustc_driver-0b75ba01aeee6012.so:_RNvMs9_CskJTYWfBGr7m_8chalk_irNtB5_8BoundVar15shifted_in_from
librustc_driver-0b75ba01aeee6012.so:_RNvMs9_CskJTYWfBGr7m_8chalk_irNtB5_8BoundVar17index_if_bound_at
librustc_driver-0b75ba01aeee6012.so:_RNvMs9_CskJTYWfBGr7m_8chalk_irNtB5_8BoundVar18index_if_innermost
librustc_driver-0b75ba01aeee6012.so:_RNvMs9_CskJTYWfBGr7m_8chalk_irNtB5_8BoundVar3new
librustc_driver-0b75ba01aeee6012.so:_RNvMs9_NtCs5ESSSXQhO3H_12regex_syntax3astNtB5_8Position3new
librustc_driver-0b75ba01aeee6012.so:_RNvMs9_NtCs9UaAlnGT11v_12rustc_middle2tyNtB5_9Predicate13flip_polarity
librustc_driver-0b75ba01aeee6012.so:_RNvMs9_NtCs9UaAlnGT11v_12rustc_middle2tyNtB5_9Predicate13without_const
librustc_driver-0b75ba01aeee6012.so:_RNvMs9_NtCs9UaAlnGT11v_12rustc_middle2tyNtB5_9Predicate14is_coinductive
librustc_driver-0b75ba01aeee6012.so:_RNvMs9_NtCs9Yk5q5as75h_10rustc_lint7builtinNtB5_14DeprecatedAttr3new
librustc_driver-0b75ba01aeee6012.so:_RNvMs9_NtCs9fJVnCDuQRQ_9rustc_hir3hirNtB5_8Generics16bounds_for_param
librustc_driver-0b75ba01aeee6012.so:_RNvMs9_NtCs9fJVnCDuQRQ_9rustc_hir3hirNtB5_8Generics18outlives_for_param
librustc_driver-0b75ba01aeee6012.so:_RNvMs9_NtCs9fJVnCDuQRQ_9rustc_hir3hirNtB5_8Generics22span_for_bound_removal
librustc_driver-0b75ba01aeee6012.so:_RNvMs9_NtCs9fJVnCDuQRQ_9rustc_hir3hirNtB5_8Generics25span_for_param_suggestion
librustc_driver-0b75ba01aeee6012.so:_RNvMs9_NtCs9fJVnCDuQRQ_9rustc_hir3hirNtB5_8Generics26span_for_predicate_removal
librustc_driver-0b75ba01aeee6012.so:_RNvMs9_NtCs9fJVnCDuQRQ_9rustc_hir3hirNtB5_8Generics27add_where_or_trailing_comma
librustc_driver-0b75ba01aeee6012.so:_RNvMs9_NtCs9fJVnCDuQRQ_9rustc_hir3hirNtB5_8Generics27bounds_span_for_suggestions
librustc_driver-0b75ba01aeee6012.so:_RNvMs9_NtCs9fJVnCDuQRQ_9rustc_hir3hirNtB5_8Generics28span_for_lifetime_suggestion
librustc_driver-0b75ba01aeee6012.so:_RNvMs9_NtCs9fJVnCDuQRQ_9rustc_hir3hirNtB5_8Generics34tail_span_for_predicate_suggestion
librustc_driver-0b75ba01aeee6012.so:_RNvMs9_NtCs9fJVnCDuQRQ_9rustc_hir3hirNtB5_8Generics5empty
librustc_driver-0b75ba01aeee6012.so:_RNvMs9_NtCs9fJVnCDuQRQ_9rustc_hir3hirNtB5_8Generics5spans
librustc_driver-0b75ba01aeee6012.so:_RNvMs9_NtCs9fJVnCDuQRQ_9rustc_hir3hirNtB5_8Generics9get_named
librustc_driver-0b75ba01aeee6012.so:_RNvMs9_NtCs9xF1GXCZqXD_18rustc_mir_dataflow10move_pathsNtB5_4Init4span
librustc_driver-0b75ba01aeee6012.so:_RNvMs9_NtCsBLdkomj5WW_13rustc_session6configNtB5_5Input11source_name
librustc_driver-0b75ba01aeee6012.so:_RNvMs9_NtCsBLdkomj5WW_13rustc_session6configNtB5_5Input8filestem
librustc_driver-0b75ba01aeee6012.so:_RNvMs9_NtCsBLdkomj5WW_13rustc_session6configNtB5_5Input8opt_path
librustc_driver-0b75ba01aeee6012.so:_RNvMs9_NtCsNX45m2jpYM_12aho_corasick11ahocorasickNtB5_18AhoCorasickBuilder10match_kind
librustc_driver-0b75ba01aeee6012.so:_RNvMs9_NtCsNX45m2jpYM_12aho_corasick11ahocorasickNtB5_18AhoCorasickBuilder11dense_depth
librustc_driver-0b75ba01aeee6012.so:_RNvMs9_NtCsNX45m2jpYM_12aho_corasick11ahocorasickNtB5_18AhoCorasickBuilder11premultiply
librustc_driver-0b75ba01aeee6012.so:_RNvMs9_NtCsNX45m2jpYM_12aho_corasick11ahocorasickNtB5_18AhoCorasickBuilder12byte_classes
librustc_driver-0b75ba01aeee6012.so:_RNvMs9_NtCsNX45m2jpYM_12aho_corasick11ahocorasickNtB5_18AhoCorasickBuilder22ascii_case_insensitive
librustc_driver-0b75ba01aeee6012.so:_RNvMs9_NtCsNX45m2jpYM_12aho_corasick11ahocorasickNtB5_18AhoCorasickBuilder3dfa
librustc_driver-0b75ba01aeee6012.so:_RNvMs9_NtCsNX45m2jpYM_12aho_corasick11ahocorasickNtB5_18AhoCorasickBuilder3new
librustc_driver-0b75ba01aeee6012.so:_RNvMs9_NtCsNX45m2jpYM_12aho_corasick11ahocorasickNtB5_18AhoCorasickBuilder8anchored
librustc_driver-0b75ba01aeee6012.so:_RNvMs9_NtCsNX45m2jpYM_12aho_corasick11ahocorasickNtB5_18AhoCorasickBuilder9prefilter
librustc_driver-0b75ba01aeee6012.so:_RNvMs9_NtCsNupuouLmW5_13rustc_apfloat4ieeeNtB5_4Loss18through_truncation
librustc_driver-0b75ba01aeee6012.so:_RNvMs9_NtCsNupuouLmW5_13rustc_apfloat4ieeeNtB5_4Loss7combine
librustc_driver-0b75ba01aeee6012.so:_RNvMs9_NtCsdz0gZA37yZr_11chalk_solve7rust_irNtB5_8Polarity11is_positive
librustc_driver-0b75ba01aeee6012.so:_RNvMs9_NtCsf8791Mi6qoe_12tracing_core8metadataNtB5_11LevelFilter10from_level
librustc_driver-0b75ba01aeee6012.so:_RNvMs9_NtCsf8791Mi6qoe_12tracing_core8metadataNtB5_11LevelFilter10into_level
librustc_driver-0b75ba01aeee6012.so:_RNvMs9_NtNtCs9UaAlnGT11v_12rustc_middle2ty3styINtB5_6BinderNtB5_8TraitRefE6def_id
librustc_driver-0b75ba01aeee6012.so:_RNvMs9_NtNtCs9UaAlnGT11v_12rustc_middle2ty3styINtB5_6BinderNtB5_8TraitRefE7self_ty
librustc_driver-0b75ba01aeee6012.so:_RNvMs9_NtNtCs9UaAlnGT11v_12rustc_middle2ty7contextNtB5_6TyCtxt10all_traits
librustc_driver-0b75ba01aeee6012.so:_RNvMs9_NtNtCs9UaAlnGT11v_12rustc_middle2ty7contextNtB5_6TyCtxt14def_path_table
librustc_driver-0b75ba01aeee6012.so:_RNvMs9_NtNtCs9UaAlnGT11v_12rustc_middle2ty7contextNtB5_6TyCtxt15move_size_limit
librustc_driver-0b75ba01aeee6012.so:_RNvMs9_NtNtCs9UaAlnGT11v_12rustc_middle2ty7contextNtB5_6TyCtxt15recursion_limit
librustc_driver-0b75ba01aeee6012.so:_RNvMs9_NtNtCs9UaAlnGT11v_12rustc_middle2ty7contextNtB5_6TyCtxt16const_eval_limit
librustc_driver-0b75ba01aeee6012.so:_RNvMs9_NtNtCs9UaAlnGT11v_12rustc_middle2ty7contextNtB5_6TyCtxt16cstore_untracked
librustc_driver-0b75ba01aeee6012.so:_RNvMs9_NtNtCs9UaAlnGT11v_12rustc_middle2ty7contextNtB5_6TyCtxt17iter_local_def_id
librustc_driver-0b75ba01aeee6012.so:_RNvMs9_NtNtCs9UaAlnGT11v_12rustc_middle2ty7contextNtB5_6TyCtxt17type_length_limit
librustc_driver-0b75ba01aeee6012.so:_RNvMs9_NtNtCs9UaAlnGT11v_12rustc_middle2ty7contextNtB5_6TyCtxt18caller_location_ty
librustc_driver-0b75ba01aeee6012.so:_RNvMs9_NtNtCs9UaAlnGT11v_12rustc_middle2ty7contextNtB5_6TyCtxt18is_suitable_region
librustc_driver-0b75ba01aeee6012.so:_RNvMs9_NtNtCs9UaAlnGT11v_12rustc_middle2ty7contextNtB5_6TyCtxt22return_type_impl_trait
librustc_driver-0b75ba01aeee6012.so:_RNvMs9_NtNtCs9UaAlnGT11v_12rustc_middle2ty7contextNtB5_6TyCtxt23article_and_description
librustc_driver-0b75ba01aeee6012.so:_RNvMs9_NtNtCs9UaAlnGT11v_12rustc_middle2ty7contextNtB5_6TyCtxt28has_strict_asm_symbol_naming
librustc_driver-0b75ba01aeee6012.so:_RNvMs9_NtNtCs9UaAlnGT11v_12rustc_middle2ty7contextNtB5_6TyCtxt28is_bound_region_in_impl_item
librustc_driver-0b75ba01aeee6012.so:_RNvMs9_NtNtCs9UaAlnGT11v_12rustc_middle2ty7contextNtB5_6TyCtxt28serialize_query_result_cache
librustc_driver-0b75ba01aeee6012.so:_RNvMs9_NtNtCs9UaAlnGT11v_12rustc_middle2ty7contextNtB5_6TyCtxt30def_path_hash_to_def_index_map
librustc_driver-0b75ba01aeee6012.so:_RNvMs9_NtNtCs9UaAlnGT11v_12rustc_middle2ty7contextNtB5_6TyCtxt30return_type_impl_or_dyn_traits
librustc_driver-0b75ba01aeee6012.so:_RNvMs9_NtNtCs9UaAlnGT11v_12rustc_middle5infer9canonicalNtB5_18CanonicalVarValues13make_identity
librustc_driver-0b75ba01aeee6012.so:_RNvMs9_NtNtCs9UaAlnGT11v_12rustc_middle5infer9canonicalNtB5_18CanonicalVarValues5dummy
librustc_driver-0b75ba01aeee6012.so:_RNvMs9_NtNtCshn1YiuQfVU7_12rustc_target3asm4wasmNtB5_16WasmInlineAsmReg4name
librustc_driver-0b75ba01aeee6012.so:_RNvMs9_NtNtCshn1YiuQfVU7_12rustc_target3asm4wasmNtB5_16WasmInlineAsmReg5parse
librustc_driver-0b75ba01aeee6012.so:_RNvMs9_NtNtCshn1YiuQfVU7_12rustc_target3asm4wasmNtB5_16WasmInlineAsmReg8validate
librustc_driver-0b75ba01aeee6012.so:_RNvMs9_NtNtCshn1YiuQfVU7_12rustc_target3asm4wasmNtB5_16WasmInlineAsmReg9reg_class
librustc_driver-0b75ba01aeee6012.so:_RNvMs9_NtNtCshn1YiuQfVU7_12rustc_target3asm5nvptxNtB5_17NvptxInlineAsmReg4name
librustc_driver-0b75ba01aeee6012.so:_RNvMs9_NtNtCshn1YiuQfVU7_12rustc_target3asm5nvptxNtB5_17NvptxInlineAsmReg5parse
librustc_driver-0b75ba01aeee6012.so:_RNvMs9_NtNtCshn1YiuQfVU7_12rustc_target3asm5nvptxNtB5_17NvptxInlineAsmReg8validate
librustc_driver-0b75ba01aeee6012.so:_RNvMs9_NtNtCshn1YiuQfVU7_12rustc_target3asm5nvptxNtB5_17NvptxInlineAsmReg9reg_class
librustc_driver-0b75ba01aeee6012.so:_RNvMs9_NtNtCshn1YiuQfVU7_12rustc_target3asm5spirvNtB5_17SpirVInlineAsmReg4name
librustc_driver-0b75ba01aeee6012.so:_RNvMs9_NtNtCshn1YiuQfVU7_12rustc_target3asm5spirvNtB5_17SpirVInlineAsmReg5parse
librustc_driver-0b75ba01aeee6012.so:_RNvMs9_NtNtCshn1YiuQfVU7_12rustc_target3asm5spirvNtB5_17SpirVInlineAsmReg8validate
librustc_driver-0b75ba01aeee6012.so:_RNvMs9_NtNtCshn1YiuQfVU7_12rustc_target3asm5spirvNtB5_17SpirVInlineAsmReg9reg_class
librustc_driver-0b75ba01aeee6012.so:_RNvMs9_NtNtNtCs2ANZbKq4FAi_18tracing_subscriber6filter3env9directiveINtB5_8MatchSetNtNtB7_5field9SpanMatchE13record_update
librustc_driver-0b75ba01aeee6012.so:_RNvMs9_NtNtNtCs2ANZbKq4FAi_18tracing_subscriber6filter3env9directiveINtB5_8MatchSetNtNtB7_5field9SpanMatchE5level
librustc_driver-0b75ba01aeee6012.so:_RNvMs9_NtNtNtCsfoFF2VvnVQT_14rustc_metadata5rmeta7decoder11cstore_implNtNtBb_7creader6CStore14ctor_untracked
librustc_driver-0b75ba01aeee6012.so:_RNvMs9_NtNtNtCsfoFF2VvnVQT_14rustc_metadata5rmeta7decoder11cstore_implNtNtBb_7creader6CStore16crates_untracked
librustc_driver-0b75ba01aeee6012.so:_RNvMs9_NtNtNtCsfoFF2VvnVQT_14rustc_metadata5rmeta7decoder11cstore_implNtNtBb_7creader6CStore18get_span_untracked
librustc_driver-0b75ba01aeee6012.so:_RNvMs9_NtNtNtCsfoFF2VvnVQT_14rustc_metadata5rmeta7decoder11cstore_implNtNtBb_7creader6CStore20item_attrs_untracked
librustc_driver-0b75ba01aeee6012.so:_RNvMs9_NtNtNtCsfoFF2VvnVQT_14rustc_metadata5rmeta7decoder11cstore_implNtNtBb_7creader6CStore20load_macro_untracked
librustc_driver-0b75ba01aeee6012.so:_RNvMs9_NtNtNtCsfoFF2VvnVQT_14rustc_metadata5rmeta7decoder11cstore_implNtNtBb_7creader6CStore20visibility_untracked
librustc_driver-0b75ba01aeee6012.so:_RNvMs9_NtNtNtCsfoFF2VvnVQT_14rustc_metadata5rmeta7decoder11cstore_implNtNtBb_7creader6CStore21num_def_ids_untracked
librustc_driver-0b75ba01aeee6012.so:_RNvMs9_NtNtNtCsfoFF2VvnVQT_14rustc_metadata5rmeta7decoder11cstore_implNtNtBb_7creader6CStore22crate_source_untracked
librustc_driver-0b75ba01aeee6012.so:_RNvMs9_NtNtNtCsfoFF2VvnVQT_14rustc_metadata5rmeta7decoder11cstore_implNtNtBb_7creader6CStore25module_children_untracked
librustc_driver-0b75ba01aeee6012.so:_RNvMs9_NtNtNtCsfoFF2VvnVQT_14rustc_metadata5rmeta7decoder11cstore_implNtNtBb_7creader6CStore26module_expansion_untracked
librustc_driver-0b75ba01aeee6012.so:_RNvMs9_NtNtNtCsfoFF2VvnVQT_14rustc_metadata5rmeta7decoder11cstore_implNtNtBb_7creader6CStore27item_generics_num_lifetimes
librustc_driver-0b75ba01aeee6012.so:_RNvMs9_NtNtNtCsfoFF2VvnVQT_14rustc_metadata5rmeta7decoder11cstore_implNtNtBb_7creader6CStore28may_have_doc_links_untracked
librustc_driver-0b75ba01aeee6012.so:_RNvMs9_NtNtNtCsfoFF2VvnVQT_14rustc_metadata5rmeta7decoder11cstore_implNtNtBb_7creader6CStore28struct_field_names_untracked
librustc_driver-0b75ba01aeee6012.so:_RNvMs9_NtNtNtCsfoFF2VvnVQT_14rustc_metadata5rmeta7decoder11cstore_implNtNtBb_7creader6CStore30trait_impls_in_crate_untracked
librustc_driver-0b75ba01aeee6012.so:_RNvMs9_NtNtNtCsfoFF2VvnVQT_14rustc_metadata5rmeta7decoder11cstore_implNtNtBb_7creader6CStore31fn_has_self_parameter_untracked
librustc_driver-0b75ba01aeee6012.so:_RNvMs9_NtNtNtCsfoFF2VvnVQT_14rustc_metadata5rmeta7decoder11cstore_implNtNtBb_7creader6CStore33associated_item_def_ids_untracked
librustc_driver-0b75ba01aeee6012.so:_RNvMs9_NtNtNtCsfoFF2VvnVQT_14rustc_metadata5rmeta7decoder11cstore_implNtNtBb_7creader6CStore33inherent_impls_in_crate_untracked
librustc_driver-0b75ba01aeee6012.so:_RNvMs9_NtNtNtCsfoFF2VvnVQT_14rustc_metadata5rmeta7decoder11cstore_implNtNtBb_7creader6CStore35incoherent_impls_in_crate_untracked
librustc_driver-0b75ba01aeee6012.so:_RNvMs9_NtNtNtCsfoFF2VvnVQT_14rustc_metadata5rmeta7decoder11cstore_implNtNtBb_7creader6CStore35struct_field_visibilities_untracked
librustc_driver-0b75ba01aeee6012.so:_RNvMs9_NtNtNtCsfoFF2VvnVQT_14rustc_metadata5rmeta7decoder11cstore_implNtNtBb_7creader6CStore36get_proc_macro_quoted_span_untracked
librustc_driver-0b75ba01aeee6012.so:_RNvMs9_NtNtNtCsfoFF2VvnVQT_14rustc_metadata5rmeta7decoder11cstore_implNtNtBb_7creader6CStore8def_kind
librustc_driver-0b75ba01aeee6012.so:_RNvMsA_NtCs8lLsNL5HvpN_5gimli9constantsNtB5_5DwCfa13static_string
librustc_driver-0b75ba01aeee6012.so:_RNvMsA_NtCs9KpYfezRtzb_9rustc_ast3astNtB5_6UintTy4name
librustc_driver-0b75ba01aeee6012.so:_RNvMsA_NtCs9KpYfezRtzb_9rustc_ast3astNtB5_6UintTy8name_str
librustc_driver-0b75ba01aeee6012.so:_RNvMsA_NtCs9UaAlnGT11v_12rustc_middle2tyNtB5_9Predicate20to_opt_type_outlives
librustc_driver-0b75ba01aeee6012.so:_RNvMsA_NtCs9UaAlnGT11v_12rustc_middle2tyNtB5_9Predicate22to_opt_poly_trait_pred
librustc_driver-0b75ba01aeee6012.so:_RNvMsA_NtCs9UaAlnGT11v_12rustc_middle2tyNtB5_9Predicate27to_opt_poly_projection_pred
librustc_driver-0b75ba01aeee6012.so:_RNvMsA_NtCs9UaAlnGT11v_12rustc_middle3mirNtB5_12ConstantKind10from_const
librustc_driver-0b75ba01aeee6012.so:_RNvMsA_NtCs9UaAlnGT11v_12rustc_middle3mirNtB5_12ConstantKind10from_usize
librustc_driver-0b75ba01aeee6012.so:_RNvMsA_NtCs9UaAlnGT11v_12rustc_middle3mirNtB5_12ConstantKind15from_anon_const
librustc_driver-0b75ba01aeee6012.so:_RNvMsA_NtCs9UaAlnGT11v_12rustc_middle3mirNtB5_12ConstantKind17from_inline_const
librustc_driver-0b75ba01aeee6012.so:_RNvMsA_NtCs9UaAlnGT11v_12rustc_middle3mirNtB5_12ConstantKind9from_bits
librustc_driver-0b75ba01aeee6012.so:_RNvMsA_NtCs9fJVnCDuQRQ_9rustc_hir3hirNtB5_4Expr10precedence
librustc_driver-0b75ba01aeee6012.so:_RNvMsA_NtCs9fJVnCDuQRQ_9rustc_hir3hirNtB5_4Expr11peel_blocks
librustc_driver-0b75ba01aeee6012.so:_RNvMsA_NtCs9fJVnCDuQRQ_9rustc_hir3hirNtB5_4Expr12method_ident
librustc_driver-0b75ba01aeee6012.so:_RNvMsA_NtCs9fJVnCDuQRQ_9rustc_hir3hirNtB5_4Expr12peel_borrows
librustc_driver-0b75ba01aeee6012.so:_RNvMsA_NtCs9fJVnCDuQRQ_9rustc_hir3hirNtB5_4Expr15peel_drop_temps
librustc_driver-0b75ba01aeee6012.so:_RNvMsA_NtCs9fJVnCDuQRQ_9rustc_hir3hirNtB5_4Expr21can_have_side_effects
librustc_driver-0b75ba01aeee6012.so:_RNvMsA_NtCs9fJVnCDuQRQ_9rustc_hir3hirNtB5_4Expr23is_syntactic_place_expr
librustc_driver-0b75ba01aeee6012.so:_RNvMsA_NtCs9fJVnCDuQRQ_9rustc_hir3hirNtB5_4Expr24is_approximately_pattern
librustc_driver-0b75ba01aeee6012.so:_RNvMsA_NtCsf8791Mi6qoe_12tracing_core5fieldNtB5_5Field4name
librustc_driver-0b75ba01aeee6012.so:_RNvMsB_NtCs9UaAlnGT11v_12rustc_middle2tyNtB5_22InstantiatedPredicates4iter
librustc_driver-0b75ba01aeee6012.so:_RNvMsB_NtCs9UaAlnGT11v_12rustc_middle2tyNtB5_22InstantiatedPredicates5empty
librustc_driver-0b75ba01aeee6012.so:_RNvMsB_NtCs9UaAlnGT11v_12rustc_middle2tyNtB5_22InstantiatedPredicates8is_empty
librustc_driver-0b75ba01aeee6012.so:_RNvMsB_NtCs9fJVnCDuQRQ_9rustc_hir3hirNtB5_5QPath10qself_span
librustc_driver-0b75ba01aeee6012.so:_RNvMsB_NtCs9fJVnCDuQRQ_9rustc_hir3hirNtB5_5QPath17last_segment_span
librustc_driver-0b75ba01aeee6012.so:_RNvMsB_NtCs9fJVnCDuQRQ_9rustc_hir3hirNtB5_5QPath4span
librustc_driver-0b75ba01aeee6012.so:_RNvMsB_NtNtNtCshJrk7kqXY5v_5serde9___private2de7contentNtB5_27InternallyTaggedUnitVisitor3new
librustc_driver-0b75ba01aeee6012.so:_RNvMsC_NtCshn1YiuQfVU7_12rustc_target4specNtB5_14TargetWarnings16warning_messages
librustc_driver-0b75ba01aeee6012.so:_RNvMsC_NtCshn1YiuQfVU7_12rustc_target4specNtB5_14TargetWarnings5empty
librustc_driver-0b75ba01aeee6012.so:_RNvMsD_NtCs9UaAlnGT11v_12rustc_middle3mirNtB5_19UserTypeProjections11projections
librustc_driver-0b75ba01aeee6012.so:_RNvMsD_NtCs9UaAlnGT11v_12rustc_middle3mirNtB5_19UserTypeProjections15push_projection
librustc_driver-0b75ba01aeee6012.so:_RNvMsD_NtCs9UaAlnGT11v_12rustc_middle3mirNtB5_19UserTypeProjections21projections_and_spans
librustc_driver-0b75ba01aeee6012.so:_RNvMsD_NtCs9UaAlnGT11v_12rustc_middle3mirNtB5_19UserTypeProjections4leaf
librustc_driver-0b75ba01aeee6012.so:_RNvMsD_NtCs9UaAlnGT11v_12rustc_middle3mirNtB5_19UserTypeProjections4none
librustc_driver-0b75ba01aeee6012.so:_RNvMsD_NtCs9UaAlnGT11v_12rustc_middle3mirNtB5_19UserTypeProjections5deref
librustc_driver-0b75ba01aeee6012.so:_RNvMsD_NtCs9UaAlnGT11v_12rustc_middle3mirNtB5_19UserTypeProjections5index
librustc_driver-0b75ba01aeee6012.so:_RNvMsD_NtCs9UaAlnGT11v_12rustc_middle3mirNtB5_19UserTypeProjections7variant
librustc_driver-0b75ba01aeee6012.so:_RNvMsD_NtCs9UaAlnGT11v_12rustc_middle3mirNtB5_19UserTypeProjections8is_empty
librustc_driver-0b75ba01aeee6012.so:_RNvMsD_NtCs9UaAlnGT11v_12rustc_middle3mirNtB5_19UserTypeProjections8subslice
librustc_driver-0b75ba01aeee6012.so:_RNvMsD_NtCs9fJVnCDuQRQ_9rustc_hir3hirNtB5_10LoopSource4name
librustc_driver-0b75ba01aeee6012.so:_RNvMsD_NtCshn1YiuQfVU7_12rustc_target4specNtB5_6Target17parse_data_layout
librustc_driver-0b75ba01aeee6012.so:_RNvMsD_NtNtNtCshJrk7kqXY5v_5serde9___private2de7contentNtB5_19UntaggedUnitVisitor3new
librustc_driver-0b75ba01aeee6012.so:_RNvMsE_NtCs9KpYfezRtzb_9rustc_ast3astNtB5_2Ty9peel_refs
librustc_driver-0b75ba01aeee6012.so:_RNvMsE_NtCs9UaAlnGT11v_12rustc_middle2tyNtB5_16OpaqueHiddenType15report_mismatch
librustc_driver-0b75ba01aeee6012.so:_RNvMsE_NtCs9UaAlnGT11v_12rustc_middle2tyNtB5_16OpaqueHiddenType42remap_generic_params_to_declaration_params
librustc_driver-0b75ba01aeee6012.so:_RNvMsF_NtCs9KpYfezRtzb_9rustc_ast3astNtB5_6TyKind14is_simple_path
librustc_driver-0b75ba01aeee6012.so:_RNvMsF_NtCs9KpYfezRtzb_9rustc_ast3astNtB5_6TyKind16is_implicit_self
librustc_driver-0b75ba01aeee6012.so:_RNvMsF_NtCs9KpYfezRtzb_9rustc_ast3astNtB5_6TyKind7is_unit
librustc_driver-0b75ba01aeee6012.so:_RNvMsF_NtCs9fJVnCDuQRQ_9rustc_hir3hirNtB5_11YieldSource8is_await
librustc_driver-0b75ba01aeee6012.so:_RNvMsG_NtCs9UaAlnGT11v_12rustc_middle2tyINtB5_17WithOptConstParamNtNtCsh1oXE7bm4Eb_10rustc_span6def_id10LocalDefIdE18def_id_for_type_of
librustc_driver-0b75ba01aeee6012.so:_RNvMsG_NtCs9UaAlnGT11v_12rustc_middle2tyINtB5_17WithOptConstParamNtNtCsh1oXE7bm4Eb_10rustc_span6def_id10LocalDefIdE9to_global
librustc_driver-0b75ba01aeee6012.so:_RNvMsH_NtCs9KpYfezRtzb_9rustc_ast3astNtB5_22InlineAsmTemplatePiece9to_string
librustc_driver-0b75ba01aeee6012.so:_RNvMsH_NtCs9UaAlnGT11v_12rustc_middle2tyINtB5_17WithOptConstParamNtNtCsh1oXE7bm4Eb_10rustc_span6def_id5DefIdE12as_const_arg
librustc_driver-0b75ba01aeee6012.so:_RNvMsH_NtCs9UaAlnGT11v_12rustc_middle2tyINtB5_17WithOptConstParamNtNtCsh1oXE7bm4Eb_10rustc_span6def_id5DefIdE18def_id_for_type_of
librustc_driver-0b75ba01aeee6012.so:_RNvMsH_NtCs9UaAlnGT11v_12rustc_middle2tyINtB5_17WithOptConstParamNtNtCsh1oXE7bm4Eb_10rustc_span6def_id5DefIdE8as_local
librustc_driver-0b75ba01aeee6012.so:_RNvMsH_NtCs9UaAlnGT11v_12rustc_middle2tyINtB5_17WithOptConstParamNtNtCsh1oXE7bm4Eb_10rustc_span6def_id5DefIdE8is_local
librustc_driver-0b75ba01aeee6012.so:_RNvMsH_NtCsf8791Mi6qoe_12tracing_core5fieldNtB5_8FieldSet3new
librustc_driver-0b75ba01aeee6012.so:_RNvMsH_NtCsf8791Mi6qoe_12tracing_core5fieldNtB5_8FieldSet4iter
librustc_driver-0b75ba01aeee6012.so:_RNvMsH_NtCsf8791Mi6qoe_12tracing_core5fieldNtB5_8FieldSet8callsite
librustc_driver-0b75ba01aeee6012.so:_RNvMsH_NtCsf8791Mi6qoe_12tracing_core5fieldNtB5_8FieldSet8contains
librustc_driver-0b75ba01aeee6012.so:_RNvMsI_NtCs9KpYfezRtzb_9rustc_ast3astNtB5_5Param7is_self
librustc_driver-0b75ba01aeee6012.so:_RNvMsI_NtCs9KpYfezRtzb_9rustc_ast3astNtB5_5Param7to_self
librustc_driver-0b75ba01aeee6012.so:_RNvMsI_NtCs9KpYfezRtzb_9rustc_ast3astNtB5_5Param9from_self
librustc_driver-0b75ba01aeee6012.so:_RNvMsI_NtCs9Yk5q5as75h_10rustc_lint7builtinNtB5_9WhileTrue9get_lints
librustc_driver-0b75ba01aeee6012.so:_RNvMsJ_NtCs9KpYfezRtzb_9rustc_ast3astNtB5_6FnDecl10c_variadic
librustc_driver-0b75ba01aeee6012.so:_RNvMsJ_NtCs9KpYfezRtzb_9rustc_ast3astNtB5_6FnDecl8has_self
librustc_driver-0b75ba01aeee6012.so:_RNvMsJ_NtCs9fJVnCDuQRQ_9rustc_hir3hirNtB5_9TraitItem13trait_item_id
librustc_driver-0b75ba01aeee6012.so:_RNvMsJ_NtCshn1YiuQfVU7_12rustc_target4specNtB5_6Target10adjust_abi
librustc_driver-0b75ba01aeee6012.so:_RNvMsJ_NtCshn1YiuQfVU7_12rustc_target4specNtB5_6Target14expect_builtin
librustc_driver-0b75ba01aeee6012.so:_RNvMsJ_NtCshn1YiuQfVU7_12rustc_target4specNtB5_6Target16is_abi_supported
librustc_driver-0b75ba01aeee6012.so:_RNvMsJ_NtCshn1YiuQfVU7_12rustc_target4specNtB5_6Target16max_atomic_width
librustc_driver-0b75ba01aeee6012.so:_RNvMsJ_NtCshn1YiuQfVU7_12rustc_target4specNtB5_6Target16min_atomic_width
librustc_driver-0b75ba01aeee6012.so:_RNvMsJ_NtCshn1YiuQfVU7_12rustc_target4specNtB5_6Target6search
librustc_driver-0b75ba01aeee6012.so:_RNvMsJ_NtCshn1YiuQfVU7_12rustc_target4specNtB5_6Target9from_json
librustc_driver-0b75ba01aeee6012.so:_RNvMsK_NtCs9KpYfezRtzb_9rustc_ast3astNtB5_5Async13opt_return_id
librustc_driver-0b75ba01aeee6012.so:_RNvMsK_NtCs9KpYfezRtzb_9rustc_ast3astNtB5_5Async8is_async
librustc_driver-0b75ba01aeee6012.so:_RNvMsL_NtCs9fJVnCDuQRQ_9rustc_hir3hirNtB5_8ImplItem12impl_item_id
librustc_driver-0b75ba01aeee6012.so:_RNvMsM_NtCs8lLsNL5HvpN_5gimli9constantsNtB5_10DwChildren13static_string
librustc_driver-0b75ba01aeee6012.so:_RNvMsM_NtCs9KpYfezRtzb_9rustc_ast3astNtB5_7FnRetTy4span
librustc_driver-0b75ba01aeee6012.so:_RNvMsM_NtCs9UaAlnGT11v_12rustc_middle3mirNtB5_8Location17is_predecessor_of
librustc_driver-0b75ba01aeee6012.so:_RNvMsM_NtCs9UaAlnGT11v_12rustc_middle3mirNtB5_8Location22successor_within_block
librustc_driver-0b75ba01aeee6012.so:_RNvMsM_NtCs9UaAlnGT11v_12rustc_middle3mirNtB5_8Location9dominates
librustc_driver-0b75ba01aeee6012.so:_RNvMsM_NtCs9Yk5q5as75h_10rustc_lint7builtinNtB5_11BoxPointers9get_lints
librustc_driver-0b75ba01aeee6012.so:_RNvMsM_NtCsf8791Mi6qoe_12tracing_core5fieldNtB5_8ValueSet3len
librustc_driver-0b75ba01aeee6012.so:_RNvMsM_NtCsf8791Mi6qoe_12tracing_core5fieldNtB5_8ValueSet6record
librustc_driver-0b75ba01aeee6012.so:_RNvMsM_NtCsf8791Mi6qoe_12tracing_core5fieldNtB5_8ValueSet8is_empty
librustc_driver-0b75ba01aeee6012.so:_RNvMsN_NtCs9KpYfezRtzb_9rustc_ast3astNtB5_7UseTree5ident
librustc_driver-0b75ba01aeee6012.so:_RNvMsN_NtCs9UaAlnGT11v_12rustc_middle2tyNtB5_8ParamEnv16with_user_facing
librustc_driver-0b75ba01aeee6012.so:_RNvMsN_NtCs9UaAlnGT11v_12rustc_middle2tyNtB5_8ParamEnv26with_reveal_all_normalized
librustc_driver-0b75ba01aeee6012.so:_RNvMsN_NtNtCs9UaAlnGT11v_12rustc_middle2ty7contextNtB5_6TyCtxt9mk_region
librustc_driver-0b75ba01aeee6012.so:_RNvMsO_NtCs9fJVnCDuQRQ_9rustc_hir3hirNtB5_11TypeBinding2ty
librustc_driver-0b75ba01aeee6012.so:_RNvMsO_NtCs9fJVnCDuQRQ_9rustc_hir3hirNtB5_11TypeBinding9opt_const
librustc_driver-0b75ba01aeee6012.so:_RNvMsP_NtCs9fJVnCDuQRQ_9rustc_hir3hirNtB5_2Ty16as_generic_param
librustc_driver-0b75ba01aeee6012.so:_RNvMsP_NtCs9fJVnCDuQRQ_9rustc_hir3hirNtB5_2Ty17find_self_aliases
librustc_driver-0b75ba01aeee6012.so:_RNvMsP_NtCs9fJVnCDuQRQ_9rustc_hir3hirNtB5_2Ty9peel_refs
librustc_driver-0b75ba01aeee6012.so:_RNvMsP_NtCshn1YiuQfVU7_12rustc_target4specNtB5_12TargetTriple11from_triple
librustc_driver-0b75ba01aeee6012.so:_RNvMsP_NtCshn1YiuQfVU7_12rustc_target4specNtB5_12TargetTriple12debug_triple
librustc_driver-0b75ba01aeee6012.so:_RNvMsP_NtCshn1YiuQfVU7_12rustc_target4specNtB5_12TargetTriple6triple
librustc_driver-0b75ba01aeee6012.so:_RNvMsP_NtCshn1YiuQfVU7_12rustc_target4specNtB5_12TargetTriple9from_path
librustc_driver-0b75ba01aeee6012.so:_RNvMsQ_NtCs9KpYfezRtzb_9rustc_ast3astNtB5_12PolyTraitRef3new
librustc_driver-0b75ba01aeee6012.so:_RNvMsQ_NtCs9UaAlnGT11v_12rustc_middle2tyNtB5_10VariantDef3new
librustc_driver-0b75ba01aeee6012.so:_RNvMsQ_NtCs9UaAlnGT11v_12rustc_middle2tyNtB5_10VariantDef5ident
librustc_driver-0b75ba01aeee6012.so:_RNvMsQ_NtCs9Yk5q5as75h_10rustc_lint7builtinNtB5_25NonShorthandFieldPatterns9get_lints
librustc_driver-0b75ba01aeee6012.so:_RNvMsQ_NtCs9fJVnCDuQRQ_9rustc_hir3hirNtB5_6PrimTy4name
librustc_driver-0b75ba01aeee6012.so:_RNvMsQ_NtCs9fJVnCDuQRQ_9rustc_hir3hirNtB5_6PrimTy8name_str
librustc_driver-0b75ba01aeee6012.so:_RNvMsQ_NtCs9fJVnCDuQRQ_9rustc_hir3hirNtB5_6PrimTy9from_name
librustc_driver-0b75ba01aeee6012.so:_RNvMsR_NtCs9KpYfezRtzb_9rustc_ast3astNtB5_14VisibilityKind6is_pub
librustc_driver-0b75ba01aeee6012.so:_RNvMsR_NtCs9fJVnCDuQRQ_9rustc_hir3hirNtB5_16InlineAsmOperand10is_clobber
librustc_driver-0b75ba01aeee6012.so:_RNvMsR_NtCs9fJVnCDuQRQ_9rustc_hir3hirNtB5_16InlineAsmOperand3reg
librustc_driver-0b75ba01aeee6012.so:_RNvMsR_NtNtNtNtCsTiKbmg5v3u_4libc4unix10linux_like5linux3gnuNtNtNtB5_3b646x86_649siginfo_t6si_pid
librustc_driver-0b75ba01aeee6012.so:_RNvMsR_NtNtNtNtCsTiKbmg5v3u_4libc4unix10linux_like5linux3gnuNtNtNtB5_3b646x86_649siginfo_t6si_uid
librustc_driver-0b75ba01aeee6012.so:_RNvMsR_NtNtNtNtCsTiKbmg5v3u_4libc4unix10linux_like5linux3gnuNtNtNtB5_3b646x86_649siginfo_t8si_stime
librustc_driver-0b75ba01aeee6012.so:_RNvMsR_NtNtNtNtCsTiKbmg5v3u_4libc4unix10linux_like5linux3gnuNtNtNtB5_3b646x86_649siginfo_t8si_utime
librustc_driver-0b75ba01aeee6012.so:_RNvMsR_NtNtNtNtCsTiKbmg5v3u_4libc4unix10linux_like5linux3gnuNtNtNtB5_3b646x86_649siginfo_t9si_status
librustc_driver-0b75ba01aeee6012.so:_RNvMsS_NtCs9KpYfezRtzb_9rustc_ast3astNtB5_11VariantData12ctor_node_id
librustc_driver-0b75ba01aeee6012.so:_RNvMsS_NtCs9KpYfezRtzb_9rustc_ast3astNtB5_11VariantData6fields
librustc_driver-0b75ba01aeee6012.so:_RNvMsS_NtCs9fJVnCDuQRQ_9rustc_hir3hirNtB5_16ImplicitSelfKind17has_implicit_self
librustc_driver-0b75ba01aeee6012.so:_RNvMsS_NtNtCs9UaAlnGT11v_12rustc_middle2ty7contextNtB5_6TyCtxt17mk_const_internal
librustc_driver-0b75ba01aeee6012.so:_RNvMsT_NtCs9KpYfezRtzb_9rustc_ast3astNtB5_4Item20span_with_attributes
librustc_driver-0b75ba01aeee6012.so:_RNvMsT_NtCs9fJVnCDuQRQ_9rustc_hir3hirNtB5_7IsAsync8is_async
librustc_driver-0b75ba01aeee6012.so:_RNvMsU_NtCs9KpYfezRtzb_9rustc_ast3astNtB5_6Extern8from_abi
librustc_driver-0b75ba01aeee6012.so:_RNvMsU_NtCs9Yk5q5as75h_10rustc_lint7builtinNtB5_10UnsafeCode9get_lints
librustc_driver-0b75ba01aeee6012.so:_RNvMsU_NtCs9fJVnCDuQRQ_9rustc_hir3hirNtB5_11Defaultness10is_default
librustc_driver-0b75ba01aeee6012.so:_RNvMsU_NtCs9fJVnCDuQRQ_9rustc_hir3hirNtB5_11Defaultness8is_final
librustc_driver-0b75ba01aeee6012.so:_RNvMsU_NtCs9fJVnCDuQRQ_9rustc_hir3hirNtB5_11Defaultness9has_value
librustc_driver-0b75ba01aeee6012.so:_RNvMsV_NtCs9KpYfezRtzb_9rustc_ast3astNtB5_8FnHeader14has_qualifiers
librustc_driver-0b75ba01aeee6012.so:_RNvMsW_NtCs9Yk5q5as75h_10rustc_lint7builtinNtB5_10MissingDoc9get_lints
librustc_driver-0b75ba01aeee6012.so:_RNvMsW_NtCs9fJVnCDuQRQ_9rustc_hir3hirNtB5_8TraitRef12trait_def_id
librustc_driver-0b75ba01aeee6012.so:_RNvMsX_NtCs9KpYfezRtzb_9rustc_ast3astNtB5_8ItemKind5descr
librustc_driver-0b75ba01aeee6012.so:_RNvMsX_NtCs9KpYfezRtzb_9rustc_ast3astNtB5_8ItemKind7article
librustc_driver-0b75ba01aeee6012.so:_RNvMsX_NtCs9KpYfezRtzb_9rustc_ast3astNtB5_8ItemKind8generics
librustc_driver-0b75ba01aeee6012.so:_RNvMsX_NtCs9UaAlnGT11v_12rustc_middle2tyNtB5_8FieldDef2ty
librustc_driver-0b75ba01aeee6012.so:_RNvMsX_NtCs9UaAlnGT11v_12rustc_middle2tyNtB5_8FieldDef5ident
librustc_driver-0b75ba01aeee6012.so:_RNvMsX_NtCs9fJVnCDuQRQ_9rustc_hir3hirNtB5_8FieldDef13is_positional
librustc_driver-0b75ba01aeee6012.so:_RNvMsX_NtNtCs9UaAlnGT11v_12rustc_middle2ty7contextNtB5_6TyCtxt18intern_const_alloc
librustc_driver-0b75ba01aeee6012.so:_RNvMsY_NtCs8lLsNL5HvpN_5gimli9constantsNtB5_5DwTag13static_string
librustc_driver-0b75ba01aeee6012.so:_RNvMsY_NtCs9KpYfezRtzb_9rustc_ast3astNtB5_13AssocItemKind11defaultness
librustc_driver-0b75ba01aeee6012.so:_RNvMsY_NtCs9UaAlnGT11v_12rustc_middle2tyNtNtB5_7context6TyCtxt11hygienic_eq
librustc_driver-0b75ba01aeee6012.so:_RNvMsY_NtCs9UaAlnGT11v_12rustc_middle2tyNtNtB5_7context6TyCtxt11typeck_body
librustc_driver-0b75ba01aeee6012.so:_RNvMsY_NtCs9UaAlnGT11v_12rustc_middle2tyNtNtB5_7context6TyCtxt12adjust_ident
librustc_driver-0b75ba01aeee6012.so:_RNvMsY_NtCs9UaAlnGT11v_12rustc_middle2tyNtNtB5_7context6TyCtxt12instance_mir
librustc_driver-0b75ba01aeee6012.so:_RNvMsY_NtCs9UaAlnGT11v_12rustc_middle2tyNtNtB5_7context6TyCtxt12span_of_impl
librustc_driver-0b75ba01aeee6012.so:_RNvMsY_NtCs9UaAlnGT11v_12rustc_middle2tyNtNtB5_7context6TyCtxt13opt_item_name
librustc_driver-0b75ba01aeee6012.so:_RNvMsY_NtCs9UaAlnGT11v_12rustc_middle2tyNtNtB5_7context6TyCtxt13trait_is_auto
librustc_driver-0b75ba01aeee6012.so:_RNvMsY_NtCs9UaAlnGT11v_12rustc_middle2tyNtNtB5_7context6TyCtxt13trait_of_item
librustc_driver-0b75ba01aeee6012.so:_RNvMsY_NtCs9UaAlnGT11v_12rustc_middle2tyNtNtB5_7context6TyCtxt14impl_of_method
librustc_driver-0b75ba01aeee6012.so:_RNvMsY_NtCs9UaAlnGT11v_12rustc_middle2tyNtNtB5_7context6TyCtxt14is_object_safe
librustc_driver-0b75ba01aeee6012.so:_RNvMsY_NtCs9UaAlnGT11v_12rustc_middle2tyNtNtB5_7context6TyCtxt14opt_item_ident
librustc_driver-0b75ba01aeee6012.so:_RNvMsY_NtCs9UaAlnGT11v_12rustc_middle2tyNtNtB5_7context6TyCtxt14trait_is_alias
librustc_driver-0b75ba01aeee6012.so:_RNvMsY_NtCs9UaAlnGT11v_12rustc_middle2tyNtNtB5_7context6TyCtxt16find_field_index
librustc_driver-0b75ba01aeee6012.so:_RNvMsY_NtCs9UaAlnGT11v_12rustc_middle2tyNtNtB5_7context6TyCtxt16generator_layout
librustc_driver-0b75ba01aeee6012.so:_RNvMsY_NtCs9UaAlnGT11v_12rustc_middle2tyNtNtB5_7context6TyCtxt16trait_id_of_impl
librustc_driver-0b75ba01aeee6012.so:_RNvMsY_NtCs9UaAlnGT11v_12rustc_middle2tyNtNtB5_7context6TyCtxt17is_builtin_derive
librustc_driver-0b75ba01aeee6012.so:_RNvMsY_NtCs9UaAlnGT11v_12rustc_middle2tyNtNtB5_7context6TyCtxt18expect_variant_res
librustc_driver-0b75ba01aeee6012.so:_RNvMsY_NtCs9UaAlnGT11v_12rustc_middle2tyNtNtB5_7context6TyCtxt19get_attrs_unchecked
librustc_driver-0b75ba01aeee6012.so:_RNvMsY_NtCs9UaAlnGT11v_12rustc_middle2tyNtNtB5_7context6TyCtxt19opt_associated_item
librustc_driver-0b75ba01aeee6012.so:_RNvMsY_NtCs9UaAlnGT11v_12rustc_middle2tyNtNtB5_7context6TyCtxt19repr_options_of_def
librustc_driver-0b75ba01aeee6012.so:_RNvMsY_NtCs9UaAlnGT11v_12rustc_middle2tyNtNtB5_7context6TyCtxt20trait_is_coinductive
librustc_driver-0b75ba01aeee6012.so:_RNvMsY_NtCs9UaAlnGT11v_12rustc_middle2tyNtNtB5_7context6TyCtxt22provided_trait_methods
librustc_driver-0b75ba01aeee6012.so:_RNvMsY_NtCs9UaAlnGT11v_12rustc_middle2tyNtNtB5_7context6TyCtxt25should_collapse_debuginfo
librustc_driver-0b75ba01aeee6012.so:_RNvMsY_NtCs9UaAlnGT11v_12rustc_middle2tyNtNtB5_7context6TyCtxt26adjust_ident_and_get_scope
librustc_driver-0b75ba01aeee6012.so:_RNvMsY_NtCs9UaAlnGT11v_12rustc_middle2tyNtNtB5_7context6TyCtxt26impl_trait_in_trait_parent
librustc_driver-0b75ba01aeee6012.so:_RNvMsY_NtCs9UaAlnGT11v_12rustc_middle2tyNtNtB5_7context6TyCtxt28impls_are_allowed_to_overlap
librustc_driver-0b75ba01aeee6012.so:_RNvMsY_NtCs9UaAlnGT11v_12rustc_middle2tyNtNtB5_7context6TyCtxt8get_attr
librustc_driver-0b75ba01aeee6012.so:_RNvMsY_NtCs9UaAlnGT11v_12rustc_middle2tyNtNtB5_7context6TyCtxt8has_attr
librustc_driver-0b75ba01aeee6012.so:_RNvMsY_NtCs9UaAlnGT11v_12rustc_middle2tyNtNtB5_7context6TyCtxt9get_attrs
librustc_driver-0b75ba01aeee6012.so:_RNvMsY_NtCs9UaAlnGT11v_12rustc_middle2tyNtNtB5_7context6TyCtxt9item_name
librustc_driver-0b75ba01aeee6012.so:_RNvMsY_NtCs9fJVnCDuQRQ_9rustc_hir3hirNtB5_11VariantData4ctor
librustc_driver-0b75ba01aeee6012.so:_RNvMsY_NtCs9fJVnCDuQRQ_9rustc_hir3hirNtB5_11VariantData6fields
librustc_driver-0b75ba01aeee6012.so:_RNvMsZ_NtCs9UaAlnGT11v_12rustc_middle2tyNtB5_10SymbolName3new
librustc_driver-0b75ba01aeee6012.so:_RNvMs_Cs2SMw7k9Ard1_13rustc_featureNtB4_16UnstableFeatures16from_environment
librustc_driver-0b75ba01aeee6012.so:_RNvMs_Cs2SMw7k9Ard1_13rustc_featureNtB4_16UnstableFeatures16is_nightly_build
librustc_driver-0b75ba01aeee6012.so:_RNvMs_Cs3BVciWoC1df_18rustc_parse_formatNtB4_17InnerWidthMapping3new
librustc_driver-0b75ba01aeee6012.so:_RNvMs_Cs3YmreoQC60U_12rustc_driverNtB4_11RunCompiler15set_file_loader
librustc_driver-0b75ba01aeee6012.so:_RNvMs_Cs3YmreoQC60U_12rustc_driverNtB4_11RunCompiler24set_make_codegen_backend
librustc_driver-0b75ba01aeee6012.so:_RNvMs_Cs3YmreoQC60U_12rustc_driverNtB4_11RunCompiler3new
librustc_driver-0b75ba01aeee6012.so:_RNvMs_Cs3YmreoQC60U_12rustc_driverNtB4_11RunCompiler3run
librustc_driver-0b75ba01aeee6012.so:_RNvMs_Cs4C9R4OzljKl_9rustc_abiNtB4_11ReprOptions10discr_type
librustc_driver-0b75ba01aeee6012.so:_RNvMs_Cs4C9R4OzljKl_9rustc_abiNtB4_11ReprOptions21inhibit_union_abi_opt
librustc_driver-0b75ba01aeee6012.so:_RNvMs_Cs4C9R4OzljKl_9rustc_abiNtB4_11ReprOptions23inhibit_enum_layout_opt
librustc_driver-0b75ba01aeee6012.so:_RNvMs_Cs4C9R4OzljKl_9rustc_abiNtB4_11ReprOptions25can_randomize_type_layout
librustc_driver-0b75ba01aeee6012.so:_RNvMs_Cs4C9R4OzljKl_9rustc_abiNtB4_11ReprOptions35inhibit_struct_field_reordering_opt
librustc_driver-0b75ba01aeee6012.so:_RNvMs_Cs5rh5k6nS07H_9jobserverNtB4_6Client11acquire_raw
librustc_driver-0b75ba01aeee6012.so:_RNvMs_Cs5rh5k6nS07H_9jobserverNtB4_6Client11release_raw
librustc_driver-0b75ba01aeee6012.so:_RNvMs_Cs5rh5k6nS07H_9jobserverNtB4_6Client3new
librustc_driver-0b75ba01aeee6012.so:_RNvMs_Cs5rh5k6nS07H_9jobserverNtB4_6Client7acquire
librustc_driver-0b75ba01aeee6012.so:_RNvMs_Cs5rh5k6nS07H_9jobserverNtB4_6Client8from_env
librustc_driver-0b75ba01aeee6012.so:_RNvMs_Cs5rh5k6nS07H_9jobserverNtB4_6Client9configure
librustc_driver-0b75ba01aeee6012.so:_RNvMs_Cs6eP2FAaHkoX_7getoptsNtB4_7Options10optflagopt
librustc_driver-0b75ba01aeee6012.so:_RNvMs_Cs6eP2FAaHkoX_7getoptsNtB4_7Options11short_usage
librustc_driver-0b75ba01aeee6012.so:_RNvMs_Cs6eP2FAaHkoX_7getoptsNtB4_7Options11usage_items
librustc_driver-0b75ba01aeee6012.so:_RNvMs_Cs6eP2FAaHkoX_7getoptsNtB4_7Options12optflagmulti
librustc_driver-0b75ba01aeee6012.so:_RNvMs_Cs6eP2FAaHkoX_7getoptsNtB4_7Options13parsing_style
librustc_driver-0b75ba01aeee6012.so:_RNvMs_Cs6eP2FAaHkoX_7getoptsNtB4_7Options3new
librustc_driver-0b75ba01aeee6012.so:_RNvMs_Cs6eP2FAaHkoX_7getoptsNtB4_7Options3opt
librustc_driver-0b75ba01aeee6012.so:_RNvMs_Cs6eP2FAaHkoX_7getoptsNtB4_7Options5usage
librustc_driver-0b75ba01aeee6012.so:_RNvMs_Cs6eP2FAaHkoX_7getoptsNtB4_7Options6optopt
librustc_driver-0b75ba01aeee6012.so:_RNvMs_Cs6eP2FAaHkoX_7getoptsNtB4_7Options6reqopt
librustc_driver-0b75ba01aeee6012.so:_RNvMs_Cs6eP2FAaHkoX_7getoptsNtB4_7Options7optflag
librustc_driver-0b75ba01aeee6012.so:_RNvMs_Cs6eP2FAaHkoX_7getoptsNtB4_7Options8optmulti
librustc_driver-0b75ba01aeee6012.so:_RNvMs_Cs6eP2FAaHkoX_7getoptsNtB4_7Options9long_only
librustc_driver-0b75ba01aeee6012.so:_RNvMs_Cs7NPstCHd46s_7memmap2NtB4_4Mmap3map
librustc_driver-0b75ba01aeee6012.so:_RNvMs_Cs7NPstCHd46s_7memmap2NtB4_4Mmap8make_mut
librustc_driver-0b75ba01aeee6012.so:_RNvMs_Cs7PFPqSK8ZRQ_12chalk_engineNtB4_8Minimums13take_minimums
librustc_driver-0b75ba01aeee6012.so:_RNvMs_Cs7PFPqSK8ZRQ_12chalk_engineNtB4_8Minimums22minimum_of_pos_and_neg
librustc_driver-0b75ba01aeee6012.so:_RNvMs_Cs9JyJiVVtyKM_13rustc_resolveNtB4_11ParentScope6module
librustc_driver-0b75ba01aeee6012.so:_RNvMs_Cs9sNufDikgEk_8thin_vecNtB4_6Header3cap
librustc_driver-0b75ba01aeee6012.so:_RNvMs_Cs9sNufDikgEk_8thin_vecNtB4_6Header7set_cap
librustc_driver-0b75ba01aeee6012.so:_RNvMs_CsahqnHyO9x3C_14rustc_graphvizNtB4_2Id8as_slice
librustc_driver-0b75ba01aeee6012.so:_RNvMs_CsbQyOJncyArB_8tempfileNtB4_7Builder10rand_bytes
librustc_driver-0b75ba01aeee6012.so:_RNvMs_CsbQyOJncyArB_8tempfileNtB4_7Builder3new
librustc_driver-0b75ba01aeee6012.so:_RNvMs_CsbQyOJncyArB_8tempfileNtB4_7Builder6append
librustc_driver-0b75ba01aeee6012.so:_RNvMs_CsbQyOJncyArB_8tempfileNtB4_7Builder7tempdir
librustc_driver-0b75ba01aeee6012.so:_RNvMs_CsbQyOJncyArB_8tempfileNtB4_7Builder8tempfile
librustc_driver-0b75ba01aeee6012.so:_RNvMs_CsczMUV2s8Ncb_12rustc_errorsNtB4_16SubstitutionPart11is_addition
librustc_driver-0b75ba01aeee6012.so:_RNvMs_CsczMUV2s8Ncb_12rustc_errorsNtB4_16SubstitutionPart11is_deletion
librustc_driver-0b75ba01aeee6012.so:_RNvMs_CsczMUV2s8Ncb_12rustc_errorsNtB4_16SubstitutionPart14is_replacement
librustc_driver-0b75ba01aeee6012.so:_RNvMs_CsePhPwSoZdwI_13intl_memoizerNtB4_12IntlMemoizer12get_for_lang
librustc_driver-0b75ba01aeee6012.so:_RNvMs_CsiZEOmDhiqRE_11rustc_lexerNtNtB4_6cursor6Cursor13advance_token
librustc_driver-0b75ba01aeee6012.so:_RNvMs_CsiZEOmDhiqRE_11rustc_lexerNtNtB4_6cursor6Cursor24raw_double_quoted_string
librustc_driver-0b75ba01aeee6012.so:_RNvMs_NtCs1uAE8XsYwHC_9icu_locid10extensionsNtB4_10Extensions8is_empty
librustc_driver-0b75ba01aeee6012.so:_RNvMs_NtCs2SMw7k9Ard1_13rustc_feature6activeNtB4_8Features10incomplete
librustc_driver-0b75ba01aeee6012.so:_RNvMs_NtCs2SMw7k9Ard1_13rustc_feature6activeNtB4_8Features6active
librustc_driver-0b75ba01aeee6012.so:_RNvMs_NtCs2SMw7k9Ard1_13rustc_feature6activeNtB4_8Features7enabled
librustc_driver-0b75ba01aeee6012.so:_RNvMs_NtCs3Tcv2dxS6si_6flate23crcNtB4_3Crc3new
librustc_driver-0b75ba01aeee6012.so:_RNvMs_NtCs3Tcv2dxS6si_6flate23crcNtB4_3Crc3sum
librustc_driver-0b75ba01aeee6012.so:_RNvMs_NtCs3Tcv2dxS6si_6flate23crcNtB4_3Crc5reset
librustc_driver-0b75ba01aeee6012.so:_RNvMs_NtCs3Tcv2dxS6si_6flate23crcNtB4_3Crc6amount
librustc_driver-0b75ba01aeee6012.so:_RNvMs_NtCs3Tcv2dxS6si_6flate23crcNtB4_3Crc6update
librustc_driver-0b75ba01aeee6012.so:_RNvMs_NtCs3Tcv2dxS6si_6flate23crcNtB4_3Crc7combine
librustc_driver-0b75ba01aeee6012.so:_RNvMs_NtCs3Tcv2dxS6si_6flate23memNtB4_8Compress12compress_vec
librustc_driver-0b75ba01aeee6012.so:_RNvMs_NtCs3Tcv2dxS6si_6flate23memNtB4_8Compress3new
librustc_driver-0b75ba01aeee6012.so:_RNvMs_NtCs3Tcv2dxS6si_6flate23memNtB4_8Compress5reset
librustc_driver-0b75ba01aeee6012.so:_RNvMs_NtCs3Tcv2dxS6si_6flate23memNtB4_8Compress8compress
librustc_driver-0b75ba01aeee6012.so:_RNvMs_NtCs3Tcv2dxS6si_6flate23memNtB4_8Compress8total_in
librustc_driver-0b75ba01aeee6012.so:_RNvMs_NtCs3Tcv2dxS6si_6flate23memNtB4_8Compress9total_out
librustc_driver-0b75ba01aeee6012.so:_RNvMs_NtCs3gJ41u96r5N_18rustc_codegen_llvm5llvm_NtB4_14AttributePlace7as_uint
librustc_driver-0b75ba01aeee6012.so:_RNvMs_NtCs4TM5Xb5wYoE_16parking_lot_core9word_lockNtB4_8WordLock11unlock_slow
librustc_driver-0b75ba01aeee6012.so:_RNvMs_NtCs4TM5Xb5wYoE_16parking_lot_core9word_lockNtB4_8WordLock9lock_slow
librustc_driver-0b75ba01aeee6012.so:_RNvMs_NtCs57nGyfzsCVp_15rustc_transmute5rustcNtB6_6Assume10from_const
librustc_driver-0b75ba01aeee6012.so:_RNvMs_NtCs5ESSSXQhO3H_12regex_syntax6parserNtB4_6Parser3new
librustc_driver-0b75ba01aeee6012.so:_RNvMs_NtCs5ESSSXQhO3H_12regex_syntax6parserNtB4_6Parser5parse
librustc_driver-0b75ba01aeee6012.so:_RNvMs_NtCs7VFnuzYgaW2_18rustc_hir_analysis9autoderefNtB4_9Autoderef10step_count
librustc_driver-0b75ba01aeee6012.so:_RNvMs_NtCs7VFnuzYgaW2_18rustc_hir_analysis9autoderefNtB4_9Autoderef14silence_errors
librustc_driver-0b75ba01aeee6012.so:_RNvMs_NtCs7VFnuzYgaW2_18rustc_hir_analysis9autoderefNtB4_9Autoderef16into_obligations
librustc_driver-0b75ba01aeee6012.so:_RNvMs_NtCs7VFnuzYgaW2_18rustc_hir_analysis9autoderefNtB4_9Autoderef19current_obligations
librustc_driver-0b75ba01aeee6012.so:_RNvMs_NtCs7VFnuzYgaW2_18rustc_hir_analysis9autoderefNtB4_9Autoderef20include_raw_pointers
librustc_driver-0b75ba01aeee6012.so:_RNvMs_NtCs7VFnuzYgaW2_18rustc_hir_analysis9autoderefNtB4_9Autoderef23reached_recursion_limit
librustc_driver-0b75ba01aeee6012.so:_RNvMs_NtCs7VFnuzYgaW2_18rustc_hir_analysis9autoderefNtB4_9Autoderef3new
librustc_driver-0b75ba01aeee6012.so:_RNvMs_NtCs7VFnuzYgaW2_18rustc_hir_analysis9autoderefNtB4_9Autoderef4span
librustc_driver-0b75ba01aeee6012.so:_RNvMs_NtCs7VFnuzYgaW2_18rustc_hir_analysis9autoderefNtB4_9Autoderef5steps
librustc_driver-0b75ba01aeee6012.so:_RNvMs_NtCs7VFnuzYgaW2_18rustc_hir_analysis9autoderefNtB4_9Autoderef8final_ty
librustc_driver-0b75ba01aeee6012.so:_RNvMs_NtCs7tPUXX4pCjz_14regex_automata11determinizeNtB4_5State4dead
librustc_driver-0b75ba01aeee6012.so:_RNvMs_NtCs7tPUXX4pCjz_14regex_automata5regexINtB4_5RegexINtNtB6_10sparse_imp9SparseDFAINtNtCs5vfOnImlhtK_5alloc3vec3VechEEE10new_sparse
librustc_driver-0b75ba01aeee6012.so:_RNvMs_NtCs7tPUXX4pCjz_14regex_automata9dense_impINtB4_8DenseDFAINtNtCs5vfOnImlhtK_5alloc3vec3VecjEjE3new
librustc_driver-0b75ba01aeee6012.so:_RNvMs_NtCs8Vj2eT1fSnO_15unic_char_range5rangeNtB4_9CharRange3len
librustc_driver-0b75ba01aeee6012.so:_RNvMs_NtCs8Vj2eT1fSnO_15unic_char_range5rangeNtB4_9CharRange4iter
librustc_driver-0b75ba01aeee6012.so:_RNvMs_NtCs8Vj2eT1fSnO_15unic_char_range5rangeNtB4_9CharRange8cmp_char
librustc_driver-0b75ba01aeee6012.so:_RNvMs_NtCs8Vj2eT1fSnO_15unic_char_range5rangeNtB4_9CharRange8contains
librustc_driver-0b75ba01aeee6012.so:_RNvMs_NtCs8Vj2eT1fSnO_15unic_char_range5rangeNtB4_9CharRange8is_empty
librustc_driver-0b75ba01aeee6012.so:_RNvMs_NtCs8lLsNL5HvpN_5gimli4readNtB4_5Error11description
librustc_driver-0b75ba01aeee6012.so:_RNvMs_NtCs8lLsNL5HvpN_5gimli9constantsNtB4_6DwEhPe17is_valid_encoding
librustc_driver-0b75ba01aeee6012.so:_RNvMs_NtCs8udwNclQ4om_16rustc_query_impl17profiling_supportNtB4_21QueryKeyStringBuilder19def_id_to_string_id
librustc_driver-0b75ba01aeee6012.so:_RNvMs_NtCs9JyJiVVtyKM_13rustc_resolve6macrosNtB6_8Resolver18resolve_macro_path
librustc_driver-0b75ba01aeee6012.so:_RNvMs_NtCs9KpYfezRtzb_9rustc_ast4attrNtNtB6_3ast14NestedMetaItem12is_meta_item
librustc_driver-0b75ba01aeee6012.so:_RNvMs_NtCs9KpYfezRtzb_9rustc_ast4attrNtNtB6_3ast14NestedMetaItem13name_or_empty
librustc_driver-0b75ba01aeee6012.so:_RNvMs_NtCs9KpYfezRtzb_9rustc_ast4attrNtNtB6_3ast14NestedMetaItem14meta_item_list
librustc_driver-0b75ba01aeee6012.so:_RNvMs_NtCs9KpYfezRtzb_9rustc_ast4attrNtNtB6_3ast14NestedMetaItem18name_value_literal
librustc_driver-0b75ba01aeee6012.so:_RNvMs_NtCs9KpYfezRtzb_9rustc_ast4attrNtNtB6_3ast14NestedMetaItem23name_value_literal_span
librustc_driver-0b75ba01aeee6012.so:_RNvMs_NtCs9KpYfezRtzb_9rustc_ast4attrNtNtB6_3ast14NestedMetaItem3lit
librustc_driver-0b75ba01aeee6012.so:_RNvMs_NtCs9KpYfezRtzb_9rustc_ast4attrNtNtB6_3ast14NestedMetaItem5ident
librustc_driver-0b75ba01aeee6012.so:_RNvMs_NtCs9KpYfezRtzb_9rustc_ast4attrNtNtB6_3ast14NestedMetaItem7is_word
librustc_driver-0b75ba01aeee6012.so:_RNvMs_NtCs9KpYfezRtzb_9rustc_ast4attrNtNtB6_3ast14NestedMetaItem8has_name
librustc_driver-0b75ba01aeee6012.so:_RNvMs_NtCs9KpYfezRtzb_9rustc_ast4attrNtNtB6_3ast14NestedMetaItem9meta_item
librustc_driver-0b75ba01aeee6012.so:_RNvMs_NtCs9KpYfezRtzb_9rustc_ast4attrNtNtB6_3ast14NestedMetaItem9value_str
librustc_driver-0b75ba01aeee6012.so:_RNvMs_NtCs9UaAlnGT11v_12rustc_middle2tyNtB4_12ImplPolarity4flip
librustc_driver-0b75ba01aeee6012.so:_RNvMs_NtCs9UaAlnGT11v_12rustc_middle3hirNtB4_11ModuleItems10impl_items
librustc_driver-0b75ba01aeee6012.so:_RNvMs_NtCs9UaAlnGT11v_12rustc_middle3hirNtB4_11ModuleItems11definitions
librustc_driver-0b75ba01aeee6012.so:_RNvMs_NtCs9UaAlnGT11v_12rustc_middle3hirNtB4_11ModuleItems11trait_items
librustc_driver-0b75ba01aeee6012.so:_RNvMs_NtCs9UaAlnGT11v_12rustc_middle3hirNtB4_11ModuleItems13foreign_items
librustc_driver-0b75ba01aeee6012.so:_RNvMs_NtCs9UaAlnGT11v_12rustc_middle3hirNtB4_11ModuleItems5items
librustc_driver-0b75ba01aeee6012.so:_RNvMs_NtCs9UaAlnGT11v_12rustc_middle4lintNtB4_19ShallowLintLevelMap21lint_level_id_at_node
librustc_driver-0b75ba01aeee6012.so:_RNvMs_NtCs9UaAlnGT11v_12rustc_middle6traitsNtB4_15ObligationCause22to_constraint_category
librustc_driver-0b75ba01aeee6012.so:_RNvMs_NtCs9UaAlnGT11v_12rustc_middle6traitsNtB4_15ObligationCause4misc
librustc_driver-0b75ba01aeee6012.so:_RNvMs_NtCs9UaAlnGT11v_12rustc_middle6traitsNtB4_15ObligationCause4span
librustc_driver-0b75ba01aeee6012.so:_RNvMs_NtCs9fJVnCDuQRQ_9rustc_hir3hirNtB4_12LifetimeName9is_elided
librustc_driver-0b75ba01aeee6012.so:_RNvMs_NtCs9fJVnCDuQRQ_9rustc_hir6targetNtB4_6Target13from_def_kind
librustc_driver-0b75ba01aeee6012.so:_RNvMs_NtCs9fJVnCDuQRQ_9rustc_hir6targetNtB4_6Target15from_trait_item
librustc_driver-0b75ba01aeee6012.so:_RNvMs_NtCs9fJVnCDuQRQ_9rustc_hir6targetNtB4_6Target17from_foreign_item
librustc_driver-0b75ba01aeee6012.so:_RNvMs_NtCs9fJVnCDuQRQ_9rustc_hir6targetNtB4_6Target18from_generic_param
librustc_driver-0b75ba01aeee6012.so:_RNvMs_NtCs9fJVnCDuQRQ_9rustc_hir6targetNtB4_6Target4name
librustc_driver-0b75ba01aeee6012.so:_RNvMs_NtCs9fJVnCDuQRQ_9rustc_hir6targetNtB4_6Target9from_item
librustc_driver-0b75ba01aeee6012.so:_RNvMs_NtCs9puRwE6Jrst_14rustc_borrowck5errorNtB6_15MirBorrowckCtxt12buffer_error
librustc_driver-0b75ba01aeee6012.so:_RNvMs_NtCs9xF1GXCZqXD_18rustc_mir_dataflow10move_pathsNtB4_12MoveOutIndex15move_path_index
librustc_driver-0b75ba01aeee6012.so:_RNvMs_NtCs9xF1GXCZqXD_18rustc_mir_dataflow15elaborate_dropsNtB4_6Unwind10is_cleanup
librustc_driver-0b75ba01aeee6012.so:_RNvMs_NtCs9xF1GXCZqXD_18rustc_mir_dataflow15elaborate_dropsNtB4_6Unwind11into_option
librustc_driver-0b75ba01aeee6012.so:_RNvMs_NtCsBLdkomj5WW_13rustc_session12search_pathsNtB4_10SearchPath12from_cli_opt
librustc_driver-0b75ba01aeee6012.so:_RNvMs_NtCsBLdkomj5WW_13rustc_session12search_pathsNtB4_10SearchPath23from_sysroot_and_triple
